ARM GAS  C:\Users\blinky\AppData\Local\Temp/ccGWaaaa.s 			page 1


   1              		.syntax unified
   2              		.cpu cortex-m3
   3              		.fpu softvfp
   4              		.eabi_attribute 20, 1
   5              		.eabi_attribute 21, 1
   6              		.eabi_attribute 23, 3
   7              		.eabi_attribute 24, 1
   8              		.eabi_attribute 25, 1
   9              		.eabi_attribute 26, 1
  10              		.eabi_attribute 30, 6
  11              		.eabi_attribute 18, 4
  12              		.thumb
  13              		.file	"ADC_SAR_1.c"
  20 0000 A6010000 		.text
  20      02004800 
  20      00000201 
  20      FB0E0D00 
  20      01010101 
  21              	.Ltext0:
  22              		.global	ADC_SAR_1_initVar
  23              		.bss
  24              		.type	ADC_SAR_1_initVar, %object
  25              		.size	ADC_SAR_1_initVar, 1
  26              	ADC_SAR_1_initVar:
  27 0000 00       		.space	1
  28              		.global	ADC_SAR_1_Offset
  29 0001 00       		.align	1
  30              		.type	ADC_SAR_1_Offset, %object
  31              		.size	ADC_SAR_1_Offset, 2
  32              	ADC_SAR_1_Offset:
  33 0002 0000     		.space	2
  34              		.section	.text.ADC_SAR_1_Start,"ax",%progbits
  35              		.align	2
  36              		.global	ADC_SAR_1_Start
  37              		.thumb
  38              		.thumb_func
  39              		.type	ADC_SAR_1_Start, %function
  40              	ADC_SAR_1_Start:
  41              	.LFB2:
  42              		.file 1 "./Generated_Source/PSoC5/ADC_SAR_1.c"
   1:./Generated_Source/PSoC5/ADC_SAR_1.c **** /*******************************************************************************
   2:./Generated_Source/PSoC5/ADC_SAR_1.c **** * File Name: ADC_SAR_1.c
   3:./Generated_Source/PSoC5/ADC_SAR_1.c **** * Version 1.10
   4:./Generated_Source/PSoC5/ADC_SAR_1.c **** *
   5:./Generated_Source/PSoC5/ADC_SAR_1.c **** * Description:
   6:./Generated_Source/PSoC5/ADC_SAR_1.c **** *  This file provides the source code to the API for the Successive
   7:./Generated_Source/PSoC5/ADC_SAR_1.c **** *  approximation ADC Component.
   8:./Generated_Source/PSoC5/ADC_SAR_1.c **** *
   9:./Generated_Source/PSoC5/ADC_SAR_1.c **** * Note:
  10:./Generated_Source/PSoC5/ADC_SAR_1.c **** *
  11:./Generated_Source/PSoC5/ADC_SAR_1.c **** *******************************************************************************
ARM GAS  C:\Users\blinky\AppData\Local\Temp/ccGWaaaa.s 			page 2


  12:./Generated_Source/PSoC5/ADC_SAR_1.c **** * Copyright 2008-2009, Cypress Semiconductor Corporation.  All rights reserved.
  13:./Generated_Source/PSoC5/ADC_SAR_1.c **** * You may use this file only in accordance with the license, terms, conditions,
  14:./Generated_Source/PSoC5/ADC_SAR_1.c **** * disclaimers, and limitations in the end user license agreement accompanying
  15:./Generated_Source/PSoC5/ADC_SAR_1.c **** * the software package with which this file was provided.
  16:./Generated_Source/PSoC5/ADC_SAR_1.c **** *******************************************************************************/
  17:./Generated_Source/PSoC5/ADC_SAR_1.c **** 
  18:./Generated_Source/PSoC5/ADC_SAR_1.c **** #include "CyLib.h"
  19:./Generated_Source/PSoC5/ADC_SAR_1.c **** #include "ADC_SAR_1.h"
  20:./Generated_Source/PSoC5/ADC_SAR_1.c **** 
  21:./Generated_Source/PSoC5/ADC_SAR_1.c **** #if(ADC_SAR_1_DEFAULT_INTERNAL_CLK)
  22:./Generated_Source/PSoC5/ADC_SAR_1.c ****     #include "ADC_SAR_1_theACLK.h"
  23:./Generated_Source/PSoC5/ADC_SAR_1.c **** #endif /* End ADC_SAR_1_DEFAULT_INTERNAL_CLK */
  24:./Generated_Source/PSoC5/ADC_SAR_1.c **** 
  25:./Generated_Source/PSoC5/ADC_SAR_1.c **** uint8 ADC_SAR_1_initVar = 0;
  26:./Generated_Source/PSoC5/ADC_SAR_1.c **** int16 ADC_SAR_1_Offset = 0;
  27:./Generated_Source/PSoC5/ADC_SAR_1.c **** int16 ADC_SAR_1_CountsPerVolt;   // Gain compensation
  28:./Generated_Source/PSoC5/ADC_SAR_1.c **** 
  29:./Generated_Source/PSoC5/ADC_SAR_1.c **** void ADC_SAR_1_SetRef(int8 refMode);
  30:./Generated_Source/PSoC5/ADC_SAR_1.c **** void ADC_SAR_1_CalcGain(uint8 resolution);
  31:./Generated_Source/PSoC5/ADC_SAR_1.c **** 
  32:./Generated_Source/PSoC5/ADC_SAR_1.c **** 
  33:./Generated_Source/PSoC5/ADC_SAR_1.c **** /*******************************************************************************
  34:./Generated_Source/PSoC5/ADC_SAR_1.c **** * Function Name: ADC_SAR_1_Start
  35:./Generated_Source/PSoC5/ADC_SAR_1.c **** ********************************************************************************
  36:./Generated_Source/PSoC5/ADC_SAR_1.c **** *
  37:./Generated_Source/PSoC5/ADC_SAR_1.c **** * Summary:
  38:./Generated_Source/PSoC5/ADC_SAR_1.c **** *  Performs all required initialization for this component and enables the
  39:./Generated_Source/PSoC5/ADC_SAR_1.c **** *  power.
  40:./Generated_Source/PSoC5/ADC_SAR_1.c **** *
  41:./Generated_Source/PSoC5/ADC_SAR_1.c **** * Parameters:
  42:./Generated_Source/PSoC5/ADC_SAR_1.c **** *  void
  43:./Generated_Source/PSoC5/ADC_SAR_1.c **** *
  44:./Generated_Source/PSoC5/ADC_SAR_1.c **** * Return:
  45:./Generated_Source/PSoC5/ADC_SAR_1.c **** *  void
  46:./Generated_Source/PSoC5/ADC_SAR_1.c **** *
  47:./Generated_Source/PSoC5/ADC_SAR_1.c **** *******************************************************************************/
  48:./Generated_Source/PSoC5/ADC_SAR_1.c **** void ADC_SAR_1_Start(void)
  49:./Generated_Source/PSoC5/ADC_SAR_1.c **** {
  43              	me = 8
  44              		@ frame_needed = 1, uses_anonymous_args = 0
  45              		push	{r7, lr}
  46 0000 80B5     	.LCFI0:
  47              		sub	sp, sp, #8
  48 0002 82B0     	.LCFI1:
  49              		add	r7, sp, #0
  50 0004 00AF     	.LCFI2:
  51              		.loc 1 53 0
  50:./Generated_Source/PSoC5/ADC_SAR_1.c ****     uint8 tmpReg;
  51:./Generated_Source/PSoC5/ADC_SAR_1.c **** 
  52:./Generated_Source/PSoC5/ADC_SAR_1.c ****     /* If not Initialized then initialize all required hardware and software */
  53:./Generated_Source/PSoC5/ADC_SAR_1.c ****     if(ADC_SAR_1_initVar == 0)
  52              	.L5
  53 0006 294B     		ldrb	r3, [r3, #0]	@ zero_extendqisi2
  54 0008 1B78     		cmp	r3, #0
  55 000a 002B     		bne	.L2
  56 000c 2CD1     		.loc 1 55 0
  54:./Generated_Source/PSoC5/ADC_SAR_1.c ****     {
ARM GAS  C:\Users\blinky\AppData\Local\Temp/ccGWaaaa.s 			page 3


  55:./Generated_Source/PSoC5/ADC_SAR_1.c ****         ADC_SAR_1_initVar = 1;
  57              	r2, .L5
  58 000e 274A     		mov	r3, #1
  59 0010 4FF00103 		strb	r3, [r2, #0]
  60 0014 1370     		.loc 1 58 0
  56:./Generated_Source/PSoC5/ADC_SAR_1.c ****         /* This is only valid if there is an internal clock */
  57:./Generated_Source/PSoC5/ADC_SAR_1.c ****         #if(ADC_SAR_1_DEFAULT_INTERNAL_CLK)
  58:./Generated_Source/PSoC5/ADC_SAR_1.c ****             ADC_SAR_1_theACLK_SetMode(CYCLK_DUTY);
  61              		r0, #16
  62 0016 4FF01000 		bl	ADC_SAR_1_theACLK_SetMode
  63 001a FFF7FEFF 		.loc 1 62 0
  59:./Generated_Source/PSoC5/ADC_SAR_1.c ****         #endif /* End ADC_SAR_1_DEFAULT_INTERNAL_CLK */
  60:./Generated_Source/PSoC5/ADC_SAR_1.c **** 
  61:./Generated_Source/PSoC5/ADC_SAR_1.c ****         /* Start and set interrupt vector */
  62:./Generated_Source/PSoC5/ADC_SAR_1.c ****         CyIntSetPriority(ADC_SAR_1_INTC_NUMBER, ADC_SAR_1_INTC_PRIOR_NUMBER);
  64              	v	r0, #14
  65 001e 4FF00E00 		mov	r1, #7
  66 0022 4FF00701 		bl	CyIntSetPriority
  67 0026 FFF7FEFF 		.loc 1 63 0
  63:./Generated_Source/PSoC5/ADC_SAR_1.c ****         CyIntSetVector(ADC_SAR_1_INTC_NUMBER, ADC_SAR_1_ISR );
  68              		r0, #14
  69 002a 4FF00E00 		ldr	r1, .L5+4
  70 002e 2049     		bl	CyIntSetVector
  71 0030 FFF7FEFF 		.loc 1 66 0
  64:./Generated_Source/PSoC5/ADC_SAR_1.c **** 
  65:./Generated_Source/PSoC5/ADC_SAR_1.c ****         /* default CSR0=0 */
  66:./Generated_Source/PSoC5/ADC_SAR_1.c ****         tmpReg = ADC_SAR_1_SAR_CSR0;
  72              		r3, .L5+8
  73 0034 1F4B     		ldrb	r3, [r3, #0]
  74 0036 1B78     		strb	r3, [r7, #7]
  75 0038 FB71     		.loc 1 72 0
  67:./Generated_Source/PSoC5/ADC_SAR_1.c **** 
  68:./Generated_Source/PSoC5/ADC_SAR_1.c ****         /* Set Power parameter  */
  69:./Generated_Source/PSoC5/ADC_SAR_1.c ****         tmpReg |= (ADC_SAR_1_DEFAULT_POWER << ADC_SAR_1_SAR_POWER_SHIFT);
  70:./Generated_Source/PSoC5/ADC_SAR_1.c **** 
  71:./Generated_Source/PSoC5/ADC_SAR_1.c ****         /* Clear DAC value at beginning of sampling */
  72:./Generated_Source/PSoC5/ADC_SAR_1.c ****         tmpReg |= ADC_SAR_1_SAR_HIZ_CLEAR;
  76              	b	r3, [r7, #7]
  77 003a FB79     		orr	r3, r3, #8
  78 003c 43F00803 		strb	r3, [r7, #7]
  79 0040 FB71     		.loc 1 80 0
  73:./Generated_Source/PSoC5/ADC_SAR_1.c **** 
  74:./Generated_Source/PSoC5/ADC_SAR_1.c ****         /*Set Convertion mode */
  75:./Generated_Source/PSoC5/ADC_SAR_1.c ****         if(ADC_SAR_1_DEFAULT_CONV_MODE)                /* If triggered mode */
  76:./Generated_Source/PSoC5/ADC_SAR_1.c ****         {
  77:./Generated_Source/PSoC5/ADC_SAR_1.c ****             tmpReg |= ADC_SAR_1_SAR_MX_SOF_UDB;            /* source: UDB */
  78:./Generated_Source/PSoC5/ADC_SAR_1.c ****             tmpReg |= ADC_SAR_1_SAR_SOF_MODE_EDGE;        /* Set edge-sensitive sof source */
  79:./Generated_Source/PSoC5/ADC_SAR_1.c ****          }
  80:./Generated_Source/PSoC5/ADC_SAR_1.c ****         ADC_SAR_1_SAR_CSR0 = tmpReg;
  80              		r2, .L5+8
  81 0042 1C4A     		ldrb	r3, [r7, #7]
  82 0044 FB79     		strb	r3, [r2, #0]
  83 0046 1370     		.loc 1 83 0
  81:./Generated_Source/PSoC5/ADC_SAR_1.c **** 
  82:./Generated_Source/PSoC5/ADC_SAR_1.c ****         /* Enable IRQ mode*/
  83:./Generated_Source/PSoC5/ADC_SAR_1.c ****         ADC_SAR_1_SAR_CSR1 |= ADC_SAR_1_SAR_IRQ_MASK_EN | ADC_SAR_1_SAR_IRQ_MODE_EDGE;
  84              		r2, .L5+12
ARM GAS  C:\Users\blinky\AppData\Local\Temp/ccGWaaaa.s 			page 4


  85 0048 1B4A     		ldr	r3, .L5+12
  86 004a 1B4B     		ldrb	r3, [r3, #0]
  87 004c 1B78     		uxtb	r3, r3
  88 004e DBB2     		orr	r3, r3, #6
  89 0050 43F00603 		uxtb	r3, r3
  90 0054 DBB2     		strb	r3, [r2, #0]
  91 0056 1370     		.loc 1 86 0
  84:./Generated_Source/PSoC5/ADC_SAR_1.c ****         
  85:./Generated_Source/PSoC5/ADC_SAR_1.c ****         /*Set SAR ADC resolution ADC */
  86:./Generated_Source/PSoC5/ADC_SAR_1.c ****         ADC_SAR_1_SetResolution(ADC_SAR_1_DEFAULT_RESOLUTION);
  92              	 #12
  93 0058 4FF00C00 		bl	ADC_SAR_1_SetResolution
  94 005c FFF7FEFF 		.loc 1 92 0
  87:./Generated_Source/PSoC5/ADC_SAR_1.c **** 
  88:./Generated_Source/PSoC5/ADC_SAR_1.c ****         /*Sets input range of the ADC*/
  89:./Generated_Source/PSoC5/ADC_SAR_1.c ****         switch (ADC_SAR_1_DEFAULT_RANGE)
  90:./Generated_Source/PSoC5/ADC_SAR_1.c ****         {
  91:./Generated_Source/PSoC5/ADC_SAR_1.c ****             case ADC_SAR_1__VSS_TO_VREF:
  92:./Generated_Source/PSoC5/ADC_SAR_1.c ****                 ADC_SAR_1_SetRef(ADC_SAR_1_DEFAULT_RANGE);
  95              	v	r0, #0
  96 0060 4FF00000 		bl	ADC_SAR_1_SetRef
  97 0064 FFF7FEFF 	.L2:
  98              		.loc 1 138 0
  93:./Generated_Source/PSoC5/ADC_SAR_1.c ****                 break;
  94:./Generated_Source/PSoC5/ADC_SAR_1.c **** 
  95:./Generated_Source/PSoC5/ADC_SAR_1.c ****             case ADC_SAR_1__VSSA_TO_VDDA:
  96:./Generated_Source/PSoC5/ADC_SAR_1.c ****                 /* Set bit for VDD/2 mode */
  97:./Generated_Source/PSoC5/ADC_SAR_1.c ****                 ADC_SAR_1_SAR_CSR3 |= ADC_SAR_1_SAR_EN_RESVDA_EN;
  98:./Generated_Source/PSoC5/ADC_SAR_1.c ****                 ADC_SAR_1_SetRef(ADC_SAR_1__VSSA_TO_VDDA);
  99:./Generated_Source/PSoC5/ADC_SAR_1.c ****                 break;
 100:./Generated_Source/PSoC5/ADC_SAR_1.c ****             case ADC_SAR_1__VSSA_TO_VDAC:
 101:./Generated_Source/PSoC5/ADC_SAR_1.c ****                 ADC_SAR_1_SetRef(ADC_SAR_1__VSSA_TO_VDDA);
 102:./Generated_Source/PSoC5/ADC_SAR_1.c ****                 break;
 103:./Generated_Source/PSoC5/ADC_SAR_1.c **** 
 104:./Generated_Source/PSoC5/ADC_SAR_1.c ****             case ADC_SAR_1__VNEG_VREF_DIFF:
 105:./Generated_Source/PSoC5/ADC_SAR_1.c ****                 ADC_SAR_1_SAR_CSR3 |= ADC_SAR_1_SAR_EN_CP_EN;         /* Enable charge pump*/
 106:./Generated_Source/PSoC5/ADC_SAR_1.c ****                 ADC_SAR_1_SAR_CSR3 |= ADC_SAR_1_SAR_EN_BUF_VCM_EN;    /* Enable VCM reference buffe
 107:./Generated_Source/PSoC5/ADC_SAR_1.c ****                 ADC_SAR_1_SetRef(ADC_SAR_1_DEFAULT_RANGE);
 108:./Generated_Source/PSoC5/ADC_SAR_1.c ****                 break;
 109:./Generated_Source/PSoC5/ADC_SAR_1.c **** 
 110:./Generated_Source/PSoC5/ADC_SAR_1.c ****             case ADC_SAR_1__VNEG_VDDA_DIFF:
 111:./Generated_Source/PSoC5/ADC_SAR_1.c ****                 ADC_SAR_1_SAR_CSR3 |= ADC_SAR_1_SAR_EN_CP_EN;         /* Enable charge pump*/
 112:./Generated_Source/PSoC5/ADC_SAR_1.c ****                 ADC_SAR_1_SAR_CSR3 |= ADC_SAR_1_SAR_EN_BUF_VCM_EN;    /* Enable VCM reference buffe
 113:./Generated_Source/PSoC5/ADC_SAR_1.c ****                 ADC_SAR_1_SetRef(ADC_SAR_1__VSSA_TO_VDDA);
 114:./Generated_Source/PSoC5/ADC_SAR_1.c ****                 break;
 115:./Generated_Source/PSoC5/ADC_SAR_1.c **** 
 116:./Generated_Source/PSoC5/ADC_SAR_1.c ****             case ADC_SAR_1__VNEG_VDDA_2_DIFF:
 117:./Generated_Source/PSoC5/ADC_SAR_1.c ****                  /* Set bit for VDD/2 mode*/
 118:./Generated_Source/PSoC5/ADC_SAR_1.c ****                 ADC_SAR_1_SAR_CSR3 |= ADC_SAR_1_SAR_EN_RESVDA_EN;
 119:./Generated_Source/PSoC5/ADC_SAR_1.c ****                 ADC_SAR_1_SAR_CSR3 |= ADC_SAR_1_SAR_EN_CP_EN;         /* Enable charge pump*/
 120:./Generated_Source/PSoC5/ADC_SAR_1.c ****                 ADC_SAR_1_SAR_CSR3 |= ADC_SAR_1_SAR_EN_BUF_VCM_EN;    /* Enable VCM reference buffe
 121:./Generated_Source/PSoC5/ADC_SAR_1.c ****                 ADC_SAR_1_SetRef(ADC_SAR_1__VSSA_TO_VDDA);
 122:./Generated_Source/PSoC5/ADC_SAR_1.c ****                 break;
 123:./Generated_Source/PSoC5/ADC_SAR_1.c ****             case ADC_SAR_1__VNEG_VDAC_DIFF:
 124:./Generated_Source/PSoC5/ADC_SAR_1.c ****                 ADC_SAR_1_SetRef(ADC_SAR_1__VSSA_TO_VDDA);
 125:./Generated_Source/PSoC5/ADC_SAR_1.c ****                 break;
 126:./Generated_Source/PSoC5/ADC_SAR_1.c **** 
ARM GAS  C:\Users\blinky\AppData\Local\Temp/ccGWaaaa.s 			page 5


 127:./Generated_Source/PSoC5/ADC_SAR_1.c ****             default:
 128:./Generated_Source/PSoC5/ADC_SAR_1.c ****                 /* if default case is hit, invalid argument was passed.*/
 129:./Generated_Source/PSoC5/ADC_SAR_1.c ****                 break;
 130:./Generated_Source/PSoC5/ADC_SAR_1.c ****          }
 131:./Generated_Source/PSoC5/ADC_SAR_1.c **** 
 132:./Generated_Source/PSoC5/ADC_SAR_1.c ****     } /* End ADC_SAR_1_initVar */
 133:./Generated_Source/PSoC5/ADC_SAR_1.c **** 
 134:./Generated_Source/PSoC5/ADC_SAR_1.c ****     /*ADC_SAR_1_SAR_TR0 = ADC_SAR_1_SAR_CAP_TRIM_4;*/ /*Set attenuation capacitor*/
 135:./Generated_Source/PSoC5/ADC_SAR_1.c **** 
 136:./Generated_Source/PSoC5/ADC_SAR_1.c ****     /* This is only valid if there is an internal clock */
 137:./Generated_Source/PSoC5/ADC_SAR_1.c ****     #if(ADC_SAR_1_DEFAULT_INTERNAL_CLK)
 138:./Generated_Source/PSoC5/ADC_SAR_1.c ****         ADC_SAR_1_PWRMGR_CLK |= ADC_SAR_1_ACT_PWR_CLK_EN;
  99              		r2, .L5+16
 100 0068 144A     		ldr	r3, .L5+16
 101 006a 144B     		ldrb	r3, [r3, #0]
 102 006c 1B78     		uxtb	r3, r3
 103 006e DBB2     		orr	r3, r3, #1
 104 0070 43F00103 		uxtb	r3, r3
 105 0074 DBB2     		strb	r3, [r2, #0]
 106 0076 1370     		.loc 1 139 0
 139:./Generated_Source/PSoC5/ADC_SAR_1.c ****         ADC_SAR_1_theACLK_Enable();
 107              	SAR_1_theACLK_Start
 108 0078 FFF7FEFF 		.loc 1 143 0
 140:./Generated_Source/PSoC5/ADC_SAR_1.c ****     #endif /* End ADC_SAR_1_DEFAULT_INTERNAL_CLK */
 141:./Generated_Source/PSoC5/ADC_SAR_1.c **** 
 142:./Generated_Source/PSoC5/ADC_SAR_1.c ****     /* Enable clock for SAR ADC*/
 143:./Generated_Source/PSoC5/ADC_SAR_1.c ****     ADC_SAR_1_SAR_CLK |= ADC_SAR_1_SAR_MX_CLK_EN;
 109              	dr	r2, .L5+20
 110 007c 104A     		ldr	r3, .L5+20
 111 007e 104B     		ldrb	r3, [r3, #0]
 112 0080 1B78     		uxtb	r3, r3
 113 0082 DBB2     		orr	r3, r3, #8
 114 0084 43F00803 		uxtb	r3, r3
 115 0088 DBB2     		strb	r3, [r2, #0]
 116 008a 1370     		.loc 1 146 0
 144:./Generated_Source/PSoC5/ADC_SAR_1.c **** 
 145:./Generated_Source/PSoC5/ADC_SAR_1.c ****      /* Enable power for ADC */
 146:./Generated_Source/PSoC5/ADC_SAR_1.c ****     ADC_SAR_1_PWRMGR_SAR |= ADC_SAR_1_ACT_PWR_SAR_EN;
 117              	 .L5+24
 118 008c 0D4A     		ldr	r3, .L5+24
 119 008e 0D4B     		ldrb	r3, [r3, #0]
 120 0090 1B78     		uxtb	r3, r3
 121 0092 DBB2     		orr	r3, r3, #1
 122 0094 43F00103 		uxtb	r3, r3
 123 0098 DBB2     		strb	r3, [r2, #0]
 124 009a 1370     		.loc 1 149 0
 147:./Generated_Source/PSoC5/ADC_SAR_1.c ****     
 148:./Generated_Source/PSoC5/ADC_SAR_1.c ****     /* Clear a pending interrupt */
 149:./Generated_Source/PSoC5/ADC_SAR_1.c ****     CyIntClearPending(ADC_SAR_1_INTC_NUMBER);
 125              	 #14
 126 009c 4FF00E00 		bl	CyIntClearPending
 127 00a0 FFF7FEFF 		.loc 1 150 0
 150:./Generated_Source/PSoC5/ADC_SAR_1.c **** }
 128              	d	r7, r7, #8
 129 00a4 07F10807 		mov	sp, r7
 130 00a8 BD46     		pop	{r7, pc}
 131 00aa 80BD     	.L6:
ARM GAS  C:\Users\blinky\AppData\Local\Temp/ccGWaaaa.s 			page 6


 132              		.align	2
 133              	.L5:
 134              		.word	ADC_SAR_1_initVar
 135 00ac 00000000 		.word	ADC_SAR_1_ISR
 136 00b0 00000000 		.word	1073764608
 137 00b4 00590040 		.word	1073764609
 138 00b8 01590040 		.word	1073759138
 139 00bc A2430040 		.word	1073765159
 140 00c0 275B0040 		.word	1073759147
 141 00c4 AB430040 	.LFE2:
 142              		.size	ADC_SAR_1_Start, .-ADC_SAR_1_Start
 143              		.section	.text.ADC_SAR_1_SetRef,"ax",%progbits
 144              		.align	2
 145              		.global	ADC_SAR_1_SetRef
 146              		.thumb
 147              		.thumb_func
 148              		.type	ADC_SAR_1_SetRef, %function
 149              	ADC_SAR_1_SetRef:
 150              	.LFB3:
 151              		.loc 1 168 0
 151:./Generated_Source/PSoC5/ADC_SAR_1.c **** 
 152:./Generated_Source/PSoC5/ADC_SAR_1.c **** 
 153:./Generated_Source/PSoC5/ADC_SAR_1.c **** /*******************************************************************************
 154:./Generated_Source/PSoC5/ADC_SAR_1.c **** * Function Name: ADC_SAR_1_SetRef
 155:./Generated_Source/PSoC5/ADC_SAR_1.c **** ********************************************************************************
 156:./Generated_Source/PSoC5/ADC_SAR_1.c **** *
 157:./Generated_Source/PSoC5/ADC_SAR_1.c **** * Summary:
 158:./Generated_Source/PSoC5/ADC_SAR_1.c **** *   Sets reference for ADC
 159:./Generated_Source/PSoC5/ADC_SAR_1.c **** *
 160:./Generated_Source/PSoC5/ADC_SAR_1.c **** * Parameters:
 161:./Generated_Source/PSoC5/ADC_SAR_1.c **** *  refMode: Reference configuration.
 162:./Generated_Source/PSoC5/ADC_SAR_1.c **** *
 163:./Generated_Source/PSoC5/ADC_SAR_1.c **** * Return:
 164:./Generated_Source/PSoC5/ADC_SAR_1.c **** *  void
 165:./Generated_Source/PSoC5/ADC_SAR_1.c **** *
 166:./Generated_Source/PSoC5/ADC_SAR_1.c **** *******************************************************************************/
 167:./Generated_Source/PSoC5/ADC_SAR_1.c **** void ADC_SAR_1_SetRef(int8 refMode)
 168:./Generated_Source/PSoC5/ADC_SAR_1.c **** {
 152              	, frame = 16
 153              		@ frame_needed = 1, uses_anonymous_args = 0
 154              		@ link register save eliminated.
 155              		push	{r7}
 156 0000 80B4     	.LCFI3:
 157              		sub	sp, sp, #20
 158 0002 85B0     	.LCFI4:
 159              		add	r7, sp, #0
 160 0004 00AF     	.LCFI5:
 161              		@ lr needed for prologue
 162              		mov	r3, r0
 163 0006 0346     		strb	r3, [r7, #7]
 164 0008 FB71     		.loc 1 170 0
 169:./Generated_Source/PSoC5/ADC_SAR_1.c ****     uint8 tmpReg;
 170:./Generated_Source/PSoC5/ADC_SAR_1.c ****     if(refMode == ADC_SAR_1__VSSA_TO_VDDA)
 165              	7, #7]
 166 000a 97F90730 		cmp	r3, #1
 167 000e 012B     		bne	.L8
 168 0010 0BD1     		.loc 1 173 0
ARM GAS  C:\Users\blinky\AppData\Local\Temp/ccGWaaaa.s 			page 7


 171:./Generated_Source/PSoC5/ADC_SAR_1.c ****     {
 172:./Generated_Source/PSoC5/ADC_SAR_1.c ****         /* Use internal reference*/
 173:./Generated_Source/PSoC5/ADC_SAR_1.c ****         tmpReg = ADC_SAR_1_SAR_REF_S3_LSB_EN | ADC_SAR_1_SAR_REF_S4_LSB_EN;
 169              		r3, #24
 170 0012 4FF01803 		strb	r3, [r7, #15]
 171 0016 FB73     		.loc 1 175 0
 174:./Generated_Source/PSoC5/ADC_SAR_1.c ****         /*tmpReg = ADC_SAR_1_SAR_REF_S4_LSB_EN | ADC_SAR_1_SAR_REF_S7_LSB_EN;*/   /*IROS need updat
 175:./Generated_Source/PSoC5/ADC_SAR_1.c ****         ADC_SAR_1_SAR_CSR3 |= ADC_SAR_1_SAR_EN_BUF_VREF_EN;    /* Enable Int Ref Amp*/
 172              	r	r2, .L12
 173 0018 0F4A     		ldr	r3, .L12
 174 001a 0F4B     		ldrb	r3, [r3, #0]
 175 001c 1B78     		uxtb	r3, r3
 176 001e DBB2     		orr	r3, r3, #1
 177 0020 43F00103 		uxtb	r3, r3
 178 0024 DBB2     		strb	r3, [r2, #0]
 179 0026 1370     		b	.L10
 180 0028 0AE0     	.L8:
 181              		.loc 1 182 0
 176:./Generated_Source/PSoC5/ADC_SAR_1.c ****     }
 177:./Generated_Source/PSoC5/ADC_SAR_1.c ****     else
 178:./Generated_Source/PSoC5/ADC_SAR_1.c ****     {
 179:./Generated_Source/PSoC5/ADC_SAR_1.c ****         switch (ADC_SAR_1_DEFAULT_REFERENCE)
 180:./Generated_Source/PSoC5/ADC_SAR_1.c ****         {
 181:./Generated_Source/PSoC5/ADC_SAR_1.c ****             case ADC_SAR_1__INT_REF_NOT_BYPASSED:
 182:./Generated_Source/PSoC5/ADC_SAR_1.c ****                 tmpReg = ADC_SAR_1_SAR_REF_S3_LSB_EN | ADC_SAR_1_SAR_REF_S4_LSB_EN;
 182              	24
 183 002a 4FF01803 		strb	r3, [r7, #15]
 184 002e FB73     		.loc 1 183 0
 183:./Generated_Source/PSoC5/ADC_SAR_1.c ****                 ADC_SAR_1_SAR_CSR3 |= ADC_SAR_1_SAR_EN_BUF_VREF_EN; /* Enable Int Ref Amp*/
 185              	r	r2, .L12
 186 0030 094A     		ldr	r3, .L12
 187 0032 094B     		ldrb	r3, [r3, #0]
 188 0034 1B78     		uxtb	r3, r3
 189 0036 DBB2     		orr	r3, r3, #1
 190 0038 43F00103 		uxtb	r3, r3
 191 003c DBB2     		strb	r3, [r2, #0]
 192 003e 1370     	.L10:
 193              		.loc 1 201 0
 184:./Generated_Source/PSoC5/ADC_SAR_1.c ****                 break;
 185:./Generated_Source/PSoC5/ADC_SAR_1.c ****             case ADC_SAR_1__INT_REF_BYPASS:
 186:./Generated_Source/PSoC5/ADC_SAR_1.c ****                 tmpReg = ADC_SAR_1_SAR_REF_S2_LSB_EN | 
 187:./Generated_Source/PSoC5/ADC_SAR_1.c ****                          ADC_SAR_1_SAR_REF_S3_LSB_EN | 
 188:./Generated_Source/PSoC5/ADC_SAR_1.c ****                          ADC_SAR_1_SAR_REF_S4_LSB_EN;
 189:./Generated_Source/PSoC5/ADC_SAR_1.c ****                 ADC_SAR_1_SAR_CSR3 |= ADC_SAR_1_SAR_EN_BUF_VREF_EN; /* Enable Int Ref Amp*/
 190:./Generated_Source/PSoC5/ADC_SAR_1.c ****                 //ADC_SAR_1_SAR_CSR3 |= ADC_SAR_1_SAR_EN_BUF_VCM_EN;  /* Enable VCM Ref Amp*/
 191:./Generated_Source/PSoC5/ADC_SAR_1.c ****                 break;
 192:./Generated_Source/PSoC5/ADC_SAR_1.c ****             case ADC_SAR_1__EXT_REF:
 193:./Generated_Source/PSoC5/ADC_SAR_1.c ****                 tmpReg = ADC_SAR_1_SAR_REF_S2_LSB_EN;
 194:./Generated_Source/PSoC5/ADC_SAR_1.c ****                 ADC_SAR_1_SAR_CSR3 &= ~ADC_SAR_1_SAR_EN_BUF_VREF_EN; /* Disable Int Ref Amp*/
 195:./Generated_Source/PSoC5/ADC_SAR_1.c ****                 break;
 196:./Generated_Source/PSoC5/ADC_SAR_1.c ****             default:
 197:./Generated_Source/PSoC5/ADC_SAR_1.c ****                 /* if default case is hit, invalid argument was passed.*/
 198:./Generated_Source/PSoC5/ADC_SAR_1.c ****                 break;
 199:./Generated_Source/PSoC5/ADC_SAR_1.c ****          }
 200:./Generated_Source/PSoC5/ADC_SAR_1.c ****      }
 201:./Generated_Source/PSoC5/ADC_SAR_1.c ****     ADC_SAR_1_SAR_CSR6 = tmpReg;
 194              	.L12+4
ARM GAS  C:\Users\blinky\AppData\Local\Temp/ccGWaaaa.s 			page 8


 195 0040 064A     		ldrb	r3, [r7, #15]
 196 0042 FB7B     		strb	r3, [r2, #0]
 197 0044 1370     		.loc 1 202 0
 202:./Generated_Source/PSoC5/ADC_SAR_1.c ****     ADC_SAR_1_SAR_CSR7 = ADC_SAR_1_SAR_REF_S_MSB_DIS;
 198              		r2, .L12+8
 199 0046 064A     		mov	r3, #0
 200 0048 4FF00003 		strb	r3, [r2, #0]
 201 004c 1370     		.loc 1 204 0
 203:./Generated_Source/PSoC5/ADC_SAR_1.c **** 
 204:./Generated_Source/PSoC5/ADC_SAR_1.c ****  }
 202              		r7, r7, #20
 203 004e 07F11407 		mov	sp, r7
 204 0052 BD46     		pop	{r7}
 205 0054 80BC     		bx	lr
 206 0056 7047     	.L13:
 207              		.align	2
 208              	.L12:
 209              		.word	1073764611
 210 0058 03590040 		.word	1073764614
 211 005c 06590040 		.word	1073764615
 212 0060 07590040 	.LFE3:
 213              		.size	ADC_SAR_1_SetRef, .-ADC_SAR_1_SetRef
 214              		.section	.text.ADC_SAR_1_Stop,"ax",%progbits
 215              		.align	2
 216              		.global	ADC_SAR_1_Stop
 217              		.thumb
 218              		.thumb_func
 219              		.type	ADC_SAR_1_Stop, %function
 220              	ADC_SAR_1_Stop:
 221              	.LFB4:
 222              		.loc 1 222 0
 205:./Generated_Source/PSoC5/ADC_SAR_1.c **** 
 206:./Generated_Source/PSoC5/ADC_SAR_1.c **** 
 207:./Generated_Source/PSoC5/ADC_SAR_1.c **** /*******************************************************************************
 208:./Generated_Source/PSoC5/ADC_SAR_1.c **** * Function Name: ADC_SAR_1_Stop
 209:./Generated_Source/PSoC5/ADC_SAR_1.c **** ********************************************************************************
 210:./Generated_Source/PSoC5/ADC_SAR_1.c **** *
 211:./Generated_Source/PSoC5/ADC_SAR_1.c **** * Summary:
 212:./Generated_Source/PSoC5/ADC_SAR_1.c **** *  Stops and powers the SAR ADC component off.
 213:./Generated_Source/PSoC5/ADC_SAR_1.c **** *
 214:./Generated_Source/PSoC5/ADC_SAR_1.c **** * Parameters:
 215:./Generated_Source/PSoC5/ADC_SAR_1.c **** *  void
 216:./Generated_Source/PSoC5/ADC_SAR_1.c **** *
 217:./Generated_Source/PSoC5/ADC_SAR_1.c **** * Return:
 218:./Generated_Source/PSoC5/ADC_SAR_1.c **** *  void
 219:./Generated_Source/PSoC5/ADC_SAR_1.c **** *
 220:./Generated_Source/PSoC5/ADC_SAR_1.c **** *******************************************************************************/
 221:./Generated_Source/PSoC5/ADC_SAR_1.c **** void ADC_SAR_1_Stop(void)
 222:./Generated_Source/PSoC5/ADC_SAR_1.c **** {
 223              	= 0, frame = 0
 224              		@ frame_needed = 1, uses_anonymous_args = 0
 225              		push	{r7, lr}
 226 0000 80B5     	.LCFI6:
 227              		add	r7, sp, #0
 228 0002 00AF     	.LCFI7:
 229              		.loc 1 224 0
 223:./Generated_Source/PSoC5/ADC_SAR_1.c ****     /* Stop all conversions */
ARM GAS  C:\Users\blinky\AppData\Local\Temp/ccGWaaaa.s 			page 9


 224:./Generated_Source/PSoC5/ADC_SAR_1.c ****     ADC_SAR_1_SAR_CSR0 &= ~ADC_SAR_1_SAR_SOF_START_CONV;
 230              	, .L16
 231 0004 0C4A     		ldr	r3, .L16
 232 0006 0C4B     		ldrb	r3, [r3, #0]
 233 0008 1B78     		uxtb	r3, r3
 234 000a DBB2     		and	r3, r3, #254
 235 000c 03F0FE03 		strb	r3, [r2, #0]
 236 0010 1370     		.loc 1 227 0
 225:./Generated_Source/PSoC5/ADC_SAR_1.c **** 
 226:./Generated_Source/PSoC5/ADC_SAR_1.c ****          /* Disable power for ADC */
 227:./Generated_Source/PSoC5/ADC_SAR_1.c ****     ADC_SAR_1_PWRMGR_SAR &= ~ADC_SAR_1_ACT_PWR_SAR_EN;
 237              	, .L16+4
 238 0012 0A4A     		ldr	r3, .L16+4
 239 0014 094B     		ldrb	r3, [r3, #0]
 240 0016 1B78     		uxtb	r3, r3
 241 0018 DBB2     		and	r3, r3, #254
 242 001a 03F0FE03 		strb	r3, [r2, #0]
 243 001e 1370     		.loc 1 231 0
 228:./Generated_Source/PSoC5/ADC_SAR_1.c **** 
 229:./Generated_Source/PSoC5/ADC_SAR_1.c ****     /* This is only valid if there is an internal clock */
 230:./Generated_Source/PSoC5/ADC_SAR_1.c ****     #if(ADC_SAR_1_DEFAULT_INTERNAL_CLK)
 231:./Generated_Source/PSoC5/ADC_SAR_1.c ****         ADC_SAR_1_PWRMGR_CLK &= ~ADC_SAR_1_ACT_PWR_CLK_EN;
 244              	, .L16+8
 245 0020 074A     		ldr	r3, .L16+8
 246 0022 074B     		ldrb	r3, [r3, #0]
 247 0024 1B78     		uxtb	r3, r3
 248 0026 DBB2     		and	r3, r3, #254
 249 0028 03F0FE03 		strb	r3, [r2, #0]
 250 002c 1370     		.loc 1 232 0
 232:./Generated_Source/PSoC5/ADC_SAR_1.c ****         ADC_SAR_1_theACLK_Disable();
 251              	_SAR_1_theACLK_Stop
 252 002e FFF7FEFF 		.loc 1 235 0
 233:./Generated_Source/PSoC5/ADC_SAR_1.c ****     #endif /* End ADC_SAR_1_DEFAULT_INTERNAL_CLK */
 234:./Generated_Source/PSoC5/ADC_SAR_1.c **** 
 235:./Generated_Source/PSoC5/ADC_SAR_1.c **** }
 253              	ov	sp, r7
 254 0032 BD46     		pop	{r7, pc}
 255 0034 80BD     	.L17:
 256              		.align	2
 257 0036 C046     	.L16:
 258              		.word	1073764608
 259 0038 00590040 		.word	1073759147
 260 003c AB430040 		.word	1073759138
 261 0040 A2430040 	.LFE4:
 262              		.size	ADC_SAR_1_Stop, .-ADC_SAR_1_Stop
 263              		.section	.text.ADC_SAR_1_IRQ_Enable,"ax",%progbits
 264              		.align	2
 265              		.global	ADC_SAR_1_IRQ_Enable
 266              		.thumb
 267              		.thumb_func
 268              		.type	ADC_SAR_1_IRQ_Enable, %function
 269              	ADC_SAR_1_IRQ_Enable:
 270              	.LFB5:
 271              		.loc 1 255 0
 236:./Generated_Source/PSoC5/ADC_SAR_1.c **** 
 237:./Generated_Source/PSoC5/ADC_SAR_1.c **** 
 238:./Generated_Source/PSoC5/ADC_SAR_1.c **** /*******************************************************************************
ARM GAS  C:\Users\blinky\AppData\Local\Temp/ccGWaaaa.s 			page 10


 239:./Generated_Source/PSoC5/ADC_SAR_1.c **** * Function Name: ADC_SAR_1_IRQ_Enable
 240:./Generated_Source/PSoC5/ADC_SAR_1.c **** ********************************************************************************
 241:./Generated_Source/PSoC5/ADC_SAR_1.c **** * Summary:
 242:./Generated_Source/PSoC5/ADC_SAR_1.c **** *   Enables the interrupt.
 243:./Generated_Source/PSoC5/ADC_SAR_1.c **** *
 244:./Generated_Source/PSoC5/ADC_SAR_1.c **** *
 245:./Generated_Source/PSoC5/ADC_SAR_1.c **** * Parameters:
 246:./Generated_Source/PSoC5/ADC_SAR_1.c **** *   void.
 247:./Generated_Source/PSoC5/ADC_SAR_1.c **** *
 248:./Generated_Source/PSoC5/ADC_SAR_1.c **** *
 249:./Generated_Source/PSoC5/ADC_SAR_1.c **** * Return:
 250:./Generated_Source/PSoC5/ADC_SAR_1.c **** *   void.
 251:./Generated_Source/PSoC5/ADC_SAR_1.c **** *
 252:./Generated_Source/PSoC5/ADC_SAR_1.c **** *
 253:./Generated_Source/PSoC5/ADC_SAR_1.c **** *******************************************************************************/
 254:./Generated_Source/PSoC5/ADC_SAR_1.c **** void ADC_SAR_1_IRQ_Enable(void)
 255:./Generated_Source/PSoC5/ADC_SAR_1.c **** {
 272              	d = 0, frame = 0
 273              		@ frame_needed = 1, uses_anonymous_args = 0
 274              		push	{r7, lr}
 275 0000 80B5     	.LCFI8:
 276              		add	r7, sp, #0
 277 0002 00AF     	.LCFI9:
 278              		.loc 1 257 0
 256:./Generated_Source/PSoC5/ADC_SAR_1.c ****     /* Enable the general interrupt. */
 257:./Generated_Source/PSoC5/ADC_SAR_1.c ****     CyIntEnable(ADC_SAR_1_INTC_NUMBER);
 279              	, #14
 280 0004 4FF00E00 		bl	CyIntEnable
 281 0008 FFF7FEFF 		.loc 1 258 0
 258:./Generated_Source/PSoC5/ADC_SAR_1.c **** }
 282              	v	sp, r7
 283 000c BD46     		pop	{r7, pc}
 284 000e 80BD     	.LFE5:
 285              		.size	ADC_SAR_1_IRQ_Enable, .-ADC_SAR_1_IRQ_Enable
 286              		.section	.text.ADC_SAR_1_IRQ_Disable,"ax",%progbits
 287              		.align	2
 288              		.global	ADC_SAR_1_IRQ_Disable
 289              		.thumb
 290              		.thumb_func
 291              		.type	ADC_SAR_1_IRQ_Disable, %function
 292              	ADC_SAR_1_IRQ_Disable:
 293              	.LFB6:
 294              		.loc 1 278 0
 259:./Generated_Source/PSoC5/ADC_SAR_1.c **** 
 260:./Generated_Source/PSoC5/ADC_SAR_1.c **** 
 261:./Generated_Source/PSoC5/ADC_SAR_1.c **** /*******************************************************************************
 262:./Generated_Source/PSoC5/ADC_SAR_1.c **** * Function Name: ADC_SAR_1_IRQ_Disable
 263:./Generated_Source/PSoC5/ADC_SAR_1.c **** ********************************************************************************
 264:./Generated_Source/PSoC5/ADC_SAR_1.c **** * Summary:
 265:./Generated_Source/PSoC5/ADC_SAR_1.c **** *   Disables the Interrupt.
 266:./Generated_Source/PSoC5/ADC_SAR_1.c **** *
 267:./Generated_Source/PSoC5/ADC_SAR_1.c **** *
 268:./Generated_Source/PSoC5/ADC_SAR_1.c **** * Parameters:
 269:./Generated_Source/PSoC5/ADC_SAR_1.c **** *   void.
 270:./Generated_Source/PSoC5/ADC_SAR_1.c **** *
 271:./Generated_Source/PSoC5/ADC_SAR_1.c **** *
 272:./Generated_Source/PSoC5/ADC_SAR_1.c **** * Return:
ARM GAS  C:\Users\blinky\AppData\Local\Temp/ccGWaaaa.s 			page 11


 273:./Generated_Source/PSoC5/ADC_SAR_1.c **** *   void.
 274:./Generated_Source/PSoC5/ADC_SAR_1.c **** *
 275:./Generated_Source/PSoC5/ADC_SAR_1.c **** *
 276:./Generated_Source/PSoC5/ADC_SAR_1.c **** *******************************************************************************/
 277:./Generated_Source/PSoC5/ADC_SAR_1.c **** void ADC_SAR_1_IRQ_Disable(void)
 278:./Generated_Source/PSoC5/ADC_SAR_1.c **** {
 295              	pretend = 0, frame = 0
 296              		@ frame_needed = 1, uses_anonymous_args = 0
 297              		push	{r7, lr}
 298 0000 80B5     	.LCFI10:
 299              		add	r7, sp, #0
 300 0002 00AF     	.LCFI11:
 301              		.loc 1 280 0
 279:./Generated_Source/PSoC5/ADC_SAR_1.c ****     /* Disable the general interrupt. */
 280:./Generated_Source/PSoC5/ADC_SAR_1.c ****     CyIntDisable(ADC_SAR_1_INTC_NUMBER);
 302              	, #14
 303 0004 4FF00E00 		bl	CyIntDisable
 304 0008 FFF7FEFF 		.loc 1 281 0
 281:./Generated_Source/PSoC5/ADC_SAR_1.c **** }
 305              	v	sp, r7
 306 000c BD46     		pop	{r7, pc}
 307 000e 80BD     	.LFE6:
 308              		.size	ADC_SAR_1_IRQ_Disable, .-ADC_SAR_1_IRQ_Disable
 309              		.section	.text.ADC_SAR_1_SetPower,"ax",%progbits
 310              		.align	2
 311              		.global	ADC_SAR_1_SetPower
 312              		.thumb
 313              		.thumb_func
 314              		.type	ADC_SAR_1_SetPower, %function
 315              	ADC_SAR_1_SetPower:
 316              	.LFB7:
 317              		.loc 1 303 0
 282:./Generated_Source/PSoC5/ADC_SAR_1.c **** 
 283:./Generated_Source/PSoC5/ADC_SAR_1.c **** 
 284:./Generated_Source/PSoC5/ADC_SAR_1.c **** /*******************************************************************************
 285:./Generated_Source/PSoC5/ADC_SAR_1.c **** * Function Name: ADC_SAR_1_SetPower
 286:./Generated_Source/PSoC5/ADC_SAR_1.c **** ********************************************************************************
 287:./Generated_Source/PSoC5/ADC_SAR_1.c **** *
 288:./Generated_Source/PSoC5/ADC_SAR_1.c **** * Summary:
 289:./Generated_Source/PSoC5/ADC_SAR_1.c **** *  Sets the Power mode.
 290:./Generated_Source/PSoC5/ADC_SAR_1.c **** *
 291:./Generated_Source/PSoC5/ADC_SAR_1.c **** * Parameters:
 292:./Generated_Source/PSoC5/ADC_SAR_1.c **** *  power:  Power setting for ADC
 293:./Generated_Source/PSoC5/ADC_SAR_1.c **** *  0 ->    Normal
 294:./Generated_Source/PSoC5/ADC_SAR_1.c **** *  1 ->    Half power
 295:./Generated_Source/PSoC5/ADC_SAR_1.c **** *  2 ->    1/3rd power
 296:./Generated_Source/PSoC5/ADC_SAR_1.c **** *  3 ->    Quarter power.
 297:./Generated_Source/PSoC5/ADC_SAR_1.c **** *
 298:./Generated_Source/PSoC5/ADC_SAR_1.c **** * Return:
 299:./Generated_Source/PSoC5/ADC_SAR_1.c **** *  void
 300:./Generated_Source/PSoC5/ADC_SAR_1.c **** *
 301:./Generated_Source/PSoC5/ADC_SAR_1.c **** *******************************************************************************/
 302:./Generated_Source/PSoC5/ADC_SAR_1.c **** void ADC_SAR_1_SetPower(uint8 power)
 303:./Generated_Source/PSoC5/ADC_SAR_1.c **** {
 318              	pretend = 0, frame = 16
 319              		@ frame_needed = 1, uses_anonymous_args = 0
 320              		@ link register save eliminated.
ARM GAS  C:\Users\blinky\AppData\Local\Temp/ccGWaaaa.s 			page 12


 321              		push	{r7}
 322 0000 80B4     	.LCFI12:
 323              		sub	sp, sp, #20
 324 0002 85B0     	.LCFI13:
 325              		add	r7, sp, #0
 326 0004 00AF     	.LCFI14:
 327              		@ lr needed for prologue
 328              		mov	r3, r0
 329 0006 0346     		strb	r3, [r7, #7]
 330 0008 FB71     		.loc 1 307 0
 304:./Generated_Source/PSoC5/ADC_SAR_1.c ****     uint8 tmpReg;
 305:./Generated_Source/PSoC5/ADC_SAR_1.c **** 
 306:./Generated_Source/PSoC5/ADC_SAR_1.c ****     /* mask off invalid power settings */
 307:./Generated_Source/PSoC5/ADC_SAR_1.c ****     power &= ~ADC_SAR_1_SAR_API_POWER_MASK;
 331              	, #7]
 332 000a FB79     		bic	r3, r3, #3
 333 000c 23F00303 		strb	r3, [r7, #7]
 334 0010 FB71     		.loc 1 310 0
 308:./Generated_Source/PSoC5/ADC_SAR_1.c **** 
 309:./Generated_Source/PSoC5/ADC_SAR_1.c ****     /* Set Power parameter  */
 310:./Generated_Source/PSoC5/ADC_SAR_1.c ****     tmpReg = ADC_SAR_1_SAR_CSR0 & ~ADC_SAR_1_SAR_POWER_MASK;
 335              		r3, .L24
 336 0012 0C4B     		ldrb	r3, [r3, #0]
 337 0014 1B78     		uxtb	r3, r3
 338 0016 DBB2     		and	r3, r3, #63
 339 0018 03F03F03 		strb	r3, [r7, #15]
 340 001c FB73     		.loc 1 311 0
 311:./Generated_Source/PSoC5/ADC_SAR_1.c ****     tmpReg |= (power << ADC_SAR_1_SAR_POWER_SHIFT);
 341              	r3, [r7, #7]	@ zero_extendqisi2
 342 001e FB79     		lsl	r3, r3, #6
 343 0020 4FEA8313 		uxtb	r3, r3
 344 0024 DBB2     		ldrb	r2, [r7, #15]	@ zero_extendqisi2
 345 0026 FA7B     		mov	r1, r3
 346 0028 1946     		mov	r3, r2
 347 002a 1346     		orr	r3, r1, r3
 348 002c 41EA0303 		uxtb	r3, r3
 349 0030 DBB2     		strb	r3, [r7, #15]
 350 0032 FB73     		.loc 1 312 0
 312:./Generated_Source/PSoC5/ADC_SAR_1.c ****     ADC_SAR_1_SAR_CSR0 = tmpReg;
 351              	L24
 352 0034 034A     		ldrb	r3, [r7, #15]
 353 0036 FB7B     		strb	r3, [r2, #0]
 354 0038 1370     		.loc 1 313 0
 313:./Generated_Source/PSoC5/ADC_SAR_1.c **** }
 355              		r7, r7, #20
 356 003a 07F11407 		mov	sp, r7
 357 003e BD46     		pop	{r7}
 358 0040 80BC     		bx	lr
 359 0042 7047     	.L25:
 360              		.align	2
 361              	.L24:
 362              		.word	1073764608
 363 0044 00590040 	.LFE7:
 364              		.size	ADC_SAR_1_SetPower, .-ADC_SAR_1_SetPower
 365              		.section	.text.ADC_SAR_1_SetResolution,"ax",%progbits
 366              		.align	2
 367              		.global	ADC_SAR_1_SetResolution
ARM GAS  C:\Users\blinky\AppData\Local\Temp/ccGWaaaa.s 			page 13


 368              		.thumb
 369              		.thumb_func
 370              		.type	ADC_SAR_1_SetResolution, %function
 371              	ADC_SAR_1_SetResolution:
 372              	.LFB8:
 373              		.loc 1 339 0
 314:./Generated_Source/PSoC5/ADC_SAR_1.c **** 
 315:./Generated_Source/PSoC5/ADC_SAR_1.c **** 
 316:./Generated_Source/PSoC5/ADC_SAR_1.c **** /*******************************************************************************
 317:./Generated_Source/PSoC5/ADC_SAR_1.c **** * Function Name: ADC_SAR_1_SetResolution
 318:./Generated_Source/PSoC5/ADC_SAR_1.c **** ********************************************************************************
 319:./Generated_Source/PSoC5/ADC_SAR_1.c **** *
 320:./Generated_Source/PSoC5/ADC_SAR_1.c **** * Summary:
 321:./Generated_Source/PSoC5/ADC_SAR_1.c **** *  Sets the Relution of the SAR.
 322:./Generated_Source/PSoC5/ADC_SAR_1.c **** *
 323:./Generated_Source/PSoC5/ADC_SAR_1.c **** * Parameters:
 324:./Generated_Source/PSoC5/ADC_SAR_1.c **** *  resolution:
 325:./Generated_Source/PSoC5/ADC_SAR_1.c **** *  12 ->    RES12
 326:./Generated_Source/PSoC5/ADC_SAR_1.c **** *  10 ->    RES10
 327:./Generated_Source/PSoC5/ADC_SAR_1.c **** *  8  ->    RES8
 328:./Generated_Source/PSoC5/ADC_SAR_1.c **** *
 329:./Generated_Source/PSoC5/ADC_SAR_1.c **** * Return:
 330:./Generated_Source/PSoC5/ADC_SAR_1.c **** *  void
 331:./Generated_Source/PSoC5/ADC_SAR_1.c **** *
 332:./Generated_Source/PSoC5/ADC_SAR_1.c **** * Theory:
 333:./Generated_Source/PSoC5/ADC_SAR_1.c **** *
 334:./Generated_Source/PSoC5/ADC_SAR_1.c **** * Side Effects:
 335:./Generated_Source/PSoC5/ADC_SAR_1.c **** *  This function calls CalcGain procedure to calculate new gain based on 
 336:./Generated_Source/PSoC5/ADC_SAR_1.c **** *  resolution 
 337:./Generated_Source/PSoC5/ADC_SAR_1.c **** *******************************************************************************/
 338:./Generated_Source/PSoC5/ADC_SAR_1.c **** void ADC_SAR_1_SetResolution(uint8 resolution)
 339:./Generated_Source/PSoC5/ADC_SAR_1.c **** {
 374              	d = 0, frame = 16
 375              		@ frame_needed = 1, uses_anonymous_args = 0
 376              		push	{r7, lr}
 377 0000 80B5     	.LCFI15:
 378              		sub	sp, sp, #16
 379 0002 84B0     	.LCFI16:
 380              		add	r7, sp, #0
 381 0004 00AF     	.LCFI17:
 382              		mov	r3, r0
 383 0006 0346     		strb	r3, [r7, #7]
 384 0008 FB71     		.loc 1 343 0
 340:./Generated_Source/PSoC5/ADC_SAR_1.c ****     uint8 tmpReg;
 341:./Generated_Source/PSoC5/ADC_SAR_1.c **** 
 342:./Generated_Source/PSoC5/ADC_SAR_1.c ****     /*Set SAR ADC resolution ADC */
 343:./Generated_Source/PSoC5/ADC_SAR_1.c ****     switch (resolution)
 385              	r7, #7]	@ zero_extendqisi2
 386 000a FB79     		str	r3, [r7, #0]
 387 000c 3B60     		ldr	r3, [r7, #0]
 388 000e 3B68     		cmp	r3, #10
 389 0010 0A2B     		beq	.L29
 390 0012 0AD0     		ldr	r3, [r7, #0]
 391 0014 3B68     		cmp	r3, #12
 392 0016 0C2B     		beq	.L30
 393 0018 03D0     		ldr	r3, [r7, #0]
 394 001a 3B68     		cmp	r3, #8
ARM GAS  C:\Users\blinky\AppData\Local\Temp/ccGWaaaa.s 			page 14


 395 001c 082B     		beq	.L28
 396 001e 08D0     		b	.L27
 397 0020 0AE0     	.L30:
 398              		.loc 1 346 0
 344:./Generated_Source/PSoC5/ADC_SAR_1.c ****     {
 345:./Generated_Source/PSoC5/ADC_SAR_1.c ****         case ADC_SAR_1__BITS_12:
 346:./Generated_Source/PSoC5/ADC_SAR_1.c ****             tmpReg = ADC_SAR_1_SAR_RESOLUTION_12BIT;
 399              	strb	r3, [r7, #15]
 400 0022 6FF03F03 		.loc 1 347 0
 401 0026 FB73     		b	.L27
 347:./Generated_Source/PSoC5/ADC_SAR_1.c ****             break;
 402              	9:
 403 0028 06E0     		.loc 1 349 0
 404              		mvn	r3, #127
 348:./Generated_Source/PSoC5/ADC_SAR_1.c ****         case ADC_SAR_1__BITS_10:
 349:./Generated_Source/PSoC5/ADC_SAR_1.c ****             tmpReg = ADC_SAR_1_SAR_RESOLUTION_10BIT;
 405              	rb	r3, [r7, #15]
 406 002a 6FF07F03 		.loc 1 350 0
 407 002e FB73     		b	.L27
 350:./Generated_Source/PSoC5/ADC_SAR_1.c ****             break;
 408              	8:
 409 0030 02E0     		.loc 1 352 0
 410              		mov	r3, #64
 351:./Generated_Source/PSoC5/ADC_SAR_1.c ****         case ADC_SAR_1__BITS_8:
 352:./Generated_Source/PSoC5/ADC_SAR_1.c ****             tmpReg = ADC_SAR_1_SAR_RESOLUTION_8BIT;
 411              	rb	r3, [r7, #15]
 412 0032 4FF04003 	.L27:
 413 0036 FB73     		.loc 1 359 0
 414              		ldrb	r3, [r7, #15]
 353:./Generated_Source/PSoC5/ADC_SAR_1.c ****             break;
 354:./Generated_Source/PSoC5/ADC_SAR_1.c ****         default:
 355:./Generated_Source/PSoC5/ADC_SAR_1.c ****             /* if default case is hit, invalid argument was passed.*/
 356:./Generated_Source/PSoC5/ADC_SAR_1.c ****             break;
 357:./Generated_Source/PSoC5/ADC_SAR_1.c ****     }
 358:./Generated_Source/PSoC5/ADC_SAR_1.c ****     
 359:./Generated_Source/PSoC5/ADC_SAR_1.c ****      tmpReg |= ADC_SAR_1_SAR_SAMPLE_WIDTH;   /* 17 conversion cycles @ 12bits + 1 gap*/
 415              		r3, r3, #4
 416 0038 FB7B     		strb	r3, [r7, #15]
 417 003a 43F00403 		.loc 1 360 0
 418 003e FB73     		ldr	r2, .L32
 360:./Generated_Source/PSoC5/ADC_SAR_1.c ****     ADC_SAR_1_SAR_CSR2 = tmpReg;
 419              	b	r3, [r7, #15]
 420 0040 054A     		strb	r3, [r2, #0]
 421 0042 FB7B     		.loc 1 363 0
 422 0044 1370     		ldrb	r3, [r7, #7]	@ zero_extendqisi2
 361:./Generated_Source/PSoC5/ADC_SAR_1.c ****     
 362:./Generated_Source/PSoC5/ADC_SAR_1.c ****      /* Calculate gain for convert counts to volts */
 363:./Generated_Source/PSoC5/ADC_SAR_1.c ****     ADC_SAR_1_CalcGain(resolution);
 423              		r0, r3
 424 0046 FB79     		bl	ADC_SAR_1_CalcGain
 425 0048 1846     		.loc 1 365 0
 426 004a FFF7FEFF 		add	r7, r7, #16
 364:./Generated_Source/PSoC5/ADC_SAR_1.c **** 
 365:./Generated_Source/PSoC5/ADC_SAR_1.c **** }
 427              		sp, r7
 428 004e 07F11007 		pop	{r7, pc}
 429 0052 BD46     	.L33:
ARM GAS  C:\Users\blinky\AppData\Local\Temp/ccGWaaaa.s 			page 15


 430 0054 80BD     		.align	2
 431              	.L32:
 432 0056 C046     		.word	1073764610
 433              	.LFE8:
 434 0058 02590040 		.size	ADC_SAR_1_SetResolution, .-ADC_SAR_1_SetResolution
 435              		.section	.text.ADC_SAR_1_StartConvert,"ax",%progbits
 436              		.align	2
 437              		.global	ADC_SAR_1_StartConvert
 438              		.thumb
 439              		.thumb_func
 440              		.type	ADC_SAR_1_StartConvert, %function
 441              	ADC_SAR_1_StartConvert:
 442              	.LFB9:
 443              		.loc 1 391 0
 444              		@ args = 0, pretend = 0, frame = 0
 366:./Generated_Source/PSoC5/ADC_SAR_1.c **** 
 367:./Generated_Source/PSoC5/ADC_SAR_1.c **** 
 368:./Generated_Source/PSoC5/ADC_SAR_1.c **** /*******************************************************************************
 369:./Generated_Source/PSoC5/ADC_SAR_1.c **** * Function Name: ADC_SAR_1_StartConvert
 370:./Generated_Source/PSoC5/ADC_SAR_1.c **** ********************************************************************************
 371:./Generated_Source/PSoC5/ADC_SAR_1.c **** *
 372:./Generated_Source/PSoC5/ADC_SAR_1.c **** * Summary:
 373:./Generated_Source/PSoC5/ADC_SAR_1.c **** *  Starts ADC conversion using the given mode.
 374:./Generated_Source/PSoC5/ADC_SAR_1.c **** *
 375:./Generated_Source/PSoC5/ADC_SAR_1.c **** * Parameters:
 376:./Generated_Source/PSoC5/ADC_SAR_1.c **** *  void
 377:./Generated_Source/PSoC5/ADC_SAR_1.c **** *
 378:./Generated_Source/PSoC5/ADC_SAR_1.c **** * Return:
 379:./Generated_Source/PSoC5/ADC_SAR_1.c **** *  void
 380:./Generated_Source/PSoC5/ADC_SAR_1.c **** *
 381:./Generated_Source/PSoC5/ADC_SAR_1.c **** * Theory:
 382:./Generated_Source/PSoC5/ADC_SAR_1.c **** *  Forces the ADC to initiate a conversion. In Free Running mode, the ADC will 
 383:./Generated_Source/PSoC5/ADC_SAR_1.c **** *  run continuously. In a triggered mode the function also acts as a software
 384:./Generated_Source/PSoC5/ADC_SAR_1.c **** *  version of the SOC. Here every conversion has to be triggered by the routine. 
 385:./Generated_Source/PSoC5/ADC_SAR_1.c **** *  This writes into the SOC bit in SAR_CTRL reg.
 386:./Generated_Source/PSoC5/ADC_SAR_1.c **** *
 387:./Generated_Source/PSoC5/ADC_SAR_1.c **** * Side Effects:
 388:./Generated_Source/PSoC5/ADC_SAR_1.c **** *  
 389:./Generated_Source/PSoC5/ADC_SAR_1.c **** *******************************************************************************/
 390:./Generated_Source/PSoC5/ADC_SAR_1.c **** void ADC_SAR_1_StartConvert(void)
 391:./Generated_Source/PSoC5/ADC_SAR_1.c **** {
 445              	1, uses_anonymous_args = 0
 446              		@ link register save eliminated.
 447              		push	{r7}
 448              	.LCFI18:
 449 0000 80B4     		add	r7, sp, #0
 450              	.LCFI19:
 451 0002 00AF     		@ lr needed for prologue
 452              		.loc 1 398 0
 453              		ldr	r2, .L36
 392:./Generated_Source/PSoC5/ADC_SAR_1.c ****     if(ADC_SAR_1_DEFAULT_CONV_MODE)                /* If triggered mode */
 393:./Generated_Source/PSoC5/ADC_SAR_1.c ****     {
 394:./Generated_Source/PSoC5/ADC_SAR_1.c ****         ADC_SAR_1_SAR_CSR0 &= ~ADC_SAR_1_SAR_MX_SOF_UDB;   /* source: SOF bit */
 395:./Generated_Source/PSoC5/ADC_SAR_1.c ****     }
 396:./Generated_Source/PSoC5/ADC_SAR_1.c ****     
 397:./Generated_Source/PSoC5/ADC_SAR_1.c ****     /* Start the conversion */
 398:./Generated_Source/PSoC5/ADC_SAR_1.c ****     ADC_SAR_1_SAR_CSR0 |= ADC_SAR_1_SAR_SOF_START_CONV;
ARM GAS  C:\Users\blinky\AppData\Local\Temp/ccGWaaaa.s 			page 16


 454              	.L36
 455 0004 054A     		ldrb	r3, [r3, #0]
 456 0006 054B     		uxtb	r3, r3
 457 0008 1B78     		orr	r3, r3, #1
 458 000a DBB2     		uxtb	r3, r3
 459 000c 43F00103 		strb	r3, [r2, #0]
 460 0010 DBB2     		.loc 1 400 0
 461 0012 1370     		mov	sp, r7
 399:./Generated_Source/PSoC5/ADC_SAR_1.c **** 
 400:./Generated_Source/PSoC5/ADC_SAR_1.c **** }
 462              	}
 463 0014 BD46     		bx	lr
 464 0016 80BC     	.L37:
 465 0018 7047     		.align	2
 466              	.L36:
 467 001a C046     		.word	1073764608
 468              	.LFE9:
 469 001c 00590040 		.size	ADC_SAR_1_StartConvert, .-ADC_SAR_1_StartConvert
 470              		.section	.text.ADC_SAR_1_StopConvert,"ax",%progbits
 471              		.align	2
 472              		.global	ADC_SAR_1_StopConvert
 473              		.thumb
 474              		.thumb_func
 475              		.type	ADC_SAR_1_StopConvert, %function
 476              	ADC_SAR_1_StopConvert:
 477              	.LFB10:
 478              		.loc 1 426 0
 479              		@ args = 0, pretend = 0, frame = 0
 401:./Generated_Source/PSoC5/ADC_SAR_1.c **** 
 402:./Generated_Source/PSoC5/ADC_SAR_1.c **** 
 403:./Generated_Source/PSoC5/ADC_SAR_1.c **** /*******************************************************************************
 404:./Generated_Source/PSoC5/ADC_SAR_1.c **** * Function Name: ADC_SAR_1_StopConvert
 405:./Generated_Source/PSoC5/ADC_SAR_1.c **** ********************************************************************************
 406:./Generated_Source/PSoC5/ADC_SAR_1.c **** *
 407:./Generated_Source/PSoC5/ADC_SAR_1.c **** * Summary:
 408:./Generated_Source/PSoC5/ADC_SAR_1.c **** *  Stops ADC conversion using the given mode.
 409:./Generated_Source/PSoC5/ADC_SAR_1.c **** *
 410:./Generated_Source/PSoC5/ADC_SAR_1.c **** * Parameters:
 411:./Generated_Source/PSoC5/ADC_SAR_1.c **** *  void
 412:./Generated_Source/PSoC5/ADC_SAR_1.c **** *
 413:./Generated_Source/PSoC5/ADC_SAR_1.c **** * Return:
 414:./Generated_Source/PSoC5/ADC_SAR_1.c **** *  void
 415:./Generated_Source/PSoC5/ADC_SAR_1.c **** *
 416:./Generated_Source/PSoC5/ADC_SAR_1.c **** * Theory:
 417:./Generated_Source/PSoC5/ADC_SAR_1.c **** *  Stops ADC conversion in Free Running mode. 
 418:./Generated_Source/PSoC5/ADC_SAR_1.c **** *  In a triggered mode the function set a software version of the SOC to low level
 419:./Generated_Source/PSoC5/ADC_SAR_1.c **** *  and return SOF source to hardware SOF signal.
 420:./Generated_Source/PSoC5/ADC_SAR_1.c **** *  This writes into the SOC bit in SAR_CTRL reg.
 421:./Generated_Source/PSoC5/ADC_SAR_1.c **** *
 422:./Generated_Source/PSoC5/ADC_SAR_1.c **** * Side Effects:
 423:./Generated_Source/PSoC5/ADC_SAR_1.c **** *  
 424:./Generated_Source/PSoC5/ADC_SAR_1.c **** *******************************************************************************/
 425:./Generated_Source/PSoC5/ADC_SAR_1.c **** void ADC_SAR_1_StopConvert(void)
 426:./Generated_Source/PSoC5/ADC_SAR_1.c **** {
 480              	1, uses_anonymous_args = 0
 481              		@ link register save eliminated.
 482              		push	{r7}
ARM GAS  C:\Users\blinky\AppData\Local\Temp/ccGWaaaa.s 			page 17


 483              	.LCFI20:
 484 0000 80B4     		add	r7, sp, #0
 485              	.LCFI21:
 486 0002 00AF     		@ lr needed for prologue
 487              		.loc 1 428 0
 488              		ldr	r2, .L40
 427:./Generated_Source/PSoC5/ADC_SAR_1.c ****     /* Stop all conversions */
 428:./Generated_Source/PSoC5/ADC_SAR_1.c ****     ADC_SAR_1_SAR_CSR0 &= ~ADC_SAR_1_SAR_SOF_START_CONV;
 489              	.L40
 490 0004 044A     		ldrb	r3, [r3, #0]
 491 0006 044B     		uxtb	r3, r3
 492 0008 1B78     		and	r3, r3, #254
 493 000a DBB2     		strb	r3, [r2, #0]
 494 000c 03F0FE03 		.loc 1 436 0
 495 0010 1370     		mov	sp, r7
 429:./Generated_Source/PSoC5/ADC_SAR_1.c **** 
 430:./Generated_Source/PSoC5/ADC_SAR_1.c ****     if(ADC_SAR_1_DEFAULT_CONV_MODE)                /* If triggered mode */
 431:./Generated_Source/PSoC5/ADC_SAR_1.c ****     {
 432:./Generated_Source/PSoC5/ADC_SAR_1.c ****         /* Return source to UDB for hardware SOF signal */
 433:./Generated_Source/PSoC5/ADC_SAR_1.c ****         ADC_SAR_1_SAR_CSR0 |= ADC_SAR_1_SAR_MX_SOF_UDB;    /* source: UDB */
 434:./Generated_Source/PSoC5/ADC_SAR_1.c ****     }
 435:./Generated_Source/PSoC5/ADC_SAR_1.c ****     
 436:./Generated_Source/PSoC5/ADC_SAR_1.c **** }
 496              	7}
 497 0012 BD46     		bx	lr
 498 0014 80BC     	.L41:
 499 0016 7047     		.align	2
 500              	.L40:
 501              		.word	1073764608
 502              	.LFE10:
 503 0018 00590040 		.size	ADC_SAR_1_StopConvert, .-ADC_SAR_1_StopConvert
 504              		.section	.text.ADC_SAR_1_IsEndConversion,"ax",%progbits
 505              		.align	2
 506              		.global	ADC_SAR_1_IsEndConversion
 507              		.thumb
 508              		.thumb_func
 509              		.type	ADC_SAR_1_IsEndConversion, %function
 510              	ADC_SAR_1_IsEndConversion:
 511              	.LFB11:
 512              		.loc 1 457 0
 513              		@ args = 0, pretend = 0, frame = 16
 437:./Generated_Source/PSoC5/ADC_SAR_1.c **** 
 438:./Generated_Source/PSoC5/ADC_SAR_1.c **** 
 439:./Generated_Source/PSoC5/ADC_SAR_1.c **** /*******************************************************************************
 440:./Generated_Source/PSoC5/ADC_SAR_1.c **** * Function Name: ADC_SAR_1_IsEndConversion
 441:./Generated_Source/PSoC5/ADC_SAR_1.c **** ********************************************************************************
 442:./Generated_Source/PSoC5/ADC_SAR_1.c **** *
 443:./Generated_Source/PSoC5/ADC_SAR_1.c **** * Summary:
 444:./Generated_Source/PSoC5/ADC_SAR_1.c **** *  Queries the ADC to see if conversion is complete
 445:./Generated_Source/PSoC5/ADC_SAR_1.c **** *
 446:./Generated_Source/PSoC5/ADC_SAR_1.c **** * Parameters:
 447:./Generated_Source/PSoC5/ADC_SAR_1.c **** *  retMode:  Wait mode,
 448:./Generated_Source/PSoC5/ADC_SAR_1.c **** *   0 if return with answer imediately.
 449:./Generated_Source/PSoC5/ADC_SAR_1.c **** *   1 if wait until conversion is complete, then return.
 450:./Generated_Source/PSoC5/ADC_SAR_1.c **** *
 451:./Generated_Source/PSoC5/ADC_SAR_1.c **** * Return:
 452:./Generated_Source/PSoC5/ADC_SAR_1.c **** *  (uint8)  0 =>  Conversion not complete.
ARM GAS  C:\Users\blinky\AppData\Local\Temp/ccGWaaaa.s 			page 18


 453:./Generated_Source/PSoC5/ADC_SAR_1.c **** *           1 =>  Conversion complete.
 454:./Generated_Source/PSoC5/ADC_SAR_1.c **** *
 455:./Generated_Source/PSoC5/ADC_SAR_1.c **** *******************************************************************************/
 456:./Generated_Source/PSoC5/ADC_SAR_1.c **** uint8 ADC_SAR_1_IsEndConversion(uint8 retMode)
 457:./Generated_Source/PSoC5/ADC_SAR_1.c **** {
 514              	1, uses_anonymous_args = 0
 515              		@ link register save eliminated.
 516              		push	{r7}
 517              	.LCFI22:
 518 0000 80B4     		sub	sp, sp, #20
 519              	.LCFI23:
 520 0002 85B0     		add	r7, sp, #0
 521              	.LCFI24:
 522 0004 00AF     		@ lr needed for prologue
 523              		mov	r3, r0
 524              		strb	r3, [r7, #7]
 525 0006 0346     	.L43:
 526 0008 FB71     		.loc 1 462 0
 527              		ldr	r3, .L47
 458:./Generated_Source/PSoC5/ADC_SAR_1.c ****     uint8 status;
 459:./Generated_Source/PSoC5/ADC_SAR_1.c **** 
 460:./Generated_Source/PSoC5/ADC_SAR_1.c ****     do
 461:./Generated_Source/PSoC5/ADC_SAR_1.c ****     {
 462:./Generated_Source/PSoC5/ADC_SAR_1.c ****         status = ADC_SAR_1_SAR_CSR1 & ADC_SAR_1_SAR_EOF_1;
 528              	 #0]
 529 000a 094B     		uxtb	r3, r3
 530 000c 1B78     		and	r3, r3, #1
 531 000e DBB2     		strb	r3, [r7, #15]
 532 0010 03F00103 		.loc 1 463 0
 533 0014 FB73     		ldrb	r3, [r7, #15]	@ zero_extendqisi2
 463:./Generated_Source/PSoC5/ADC_SAR_1.c ****     } while ((status != ADC_SAR_1_SAR_EOF_1) && (retMode == ADC_SAR_1_WAIT_FOR_RESULT));
 534              	3, #1
 535 0016 FB7B     		beq	.L44
 536 0018 012B     		ldrb	r3, [r7, #7]	@ zero_extendqisi2
 537 001a 02D0     		cmp	r3, #0
 538 001c FB79     		beq	.L43
 539 001e 002B     	.L44:
 540 0020 F3D0     		.loc 1 465 0
 541              		ldrb	r3, [r7, #15]	@ zero_extendqisi2
 464:./Generated_Source/PSoC5/ADC_SAR_1.c **** 
 465:./Generated_Source/PSoC5/ADC_SAR_1.c ****     return(status);
 542              	466 0
 543 0022 FB7B     		mov	r0, r3
 466:./Generated_Source/PSoC5/ADC_SAR_1.c **** }
 544              	dd	r7, r7, #20
 545 0024 1846     		mov	sp, r7
 546 0026 07F11407 		pop	{r7}
 547 002a BD46     		bx	lr
 548 002c 80BC     	.L48:
 549 002e 7047     		.align	2
 550              	.L47:
 551              		.word	1073764609
 552              	.LFE11:
 553 0030 01590040 		.size	ADC_SAR_1_IsEndConversion, .-ADC_SAR_1_IsEndConversion
 554              		.section	.text.ADC_SAR_1_GetResult8,"ax",%progbits
 555              		.align	2
 556              		.global	ADC_SAR_1_GetResult8
ARM GAS  C:\Users\blinky\AppData\Local\Temp/ccGWaaaa.s 			page 19


 557              		.thumb
 558              		.thumb_func
 559              		.type	ADC_SAR_1_GetResult8, %function
 560              	ADC_SAR_1_GetResult8:
 561              	.LFB12:
 562              		.loc 1 484 0
 563              		@ args = 0, pretend = 0, frame = 0
 467:./Generated_Source/PSoC5/ADC_SAR_1.c **** 
 468:./Generated_Source/PSoC5/ADC_SAR_1.c **** 
 469:./Generated_Source/PSoC5/ADC_SAR_1.c **** /*******************************************************************************
 470:./Generated_Source/PSoC5/ADC_SAR_1.c **** * Function Name: ADC_SAR_1_GetResult8
 471:./Generated_Source/PSoC5/ADC_SAR_1.c **** ********************************************************************************
 472:./Generated_Source/PSoC5/ADC_SAR_1.c **** *
 473:./Generated_Source/PSoC5/ADC_SAR_1.c **** * Summary:
 474:./Generated_Source/PSoC5/ADC_SAR_1.c **** *  Returns an 8-bit result or the LSB of the last conversion.
 475:./Generated_Source/PSoC5/ADC_SAR_1.c **** *
 476:./Generated_Source/PSoC5/ADC_SAR_1.c **** * Parameters:
 477:./Generated_Source/PSoC5/ADC_SAR_1.c **** *  void
 478:./Generated_Source/PSoC5/ADC_SAR_1.c **** *
 479:./Generated_Source/PSoC5/ADC_SAR_1.c **** * Return:
 480:./Generated_Source/PSoC5/ADC_SAR_1.c **** *  ADC result.
 481:./Generated_Source/PSoC5/ADC_SAR_1.c **** *
 482:./Generated_Source/PSoC5/ADC_SAR_1.c **** *******************************************************************************/
 483:./Generated_Source/PSoC5/ADC_SAR_1.c **** int8 ADC_SAR_1_GetResult8( void )
 484:./Generated_Source/PSoC5/ADC_SAR_1.c **** {
 564              	 uses_anonymous_args = 0
 565              		@ link register save eliminated.
 566              		push	{r7}
 567              	.LCFI25:
 568 0000 80B4     		add	r7, sp, #0
 569              	.LCFI26:
 570 0002 00AF     		@ lr needed for prologue
 571              		.loc 1 485 0
 572              		ldr	r3, .L51
 485:./Generated_Source/PSoC5/ADC_SAR_1.c ****     return( ADC_SAR_1_SAR_WRK0 );
 573              	 [r3, #0]
 574 0004 034B     		uxtb	r3, r3
 575 0006 1B78     		sxtb	r3, r3
 576 0008 DBB2     		.loc 1 486 0
 577 000a 5BB2     		mov	r0, r3
 486:./Generated_Source/PSoC5/ADC_SAR_1.c **** }
 578              	sp, r7
 579 000c 1846     		pop	{r7}
 580 000e BD46     		bx	lr
 581 0010 80BC     	.L52:
 582 0012 7047     		.align	2
 583              	.L51:
 584              		.word	1073765280
 585              	.LFE12:
 586 0014 A05B0040 		.size	ADC_SAR_1_GetResult8, .-ADC_SAR_1_GetResult8
 587              		.section	.text.ADC_SAR_1_GetResult16,"ax",%progbits
 588              		.align	2
 589              		.global	ADC_SAR_1_GetResult16
 590              		.thumb
 591              		.thumb_func
 592              		.type	ADC_SAR_1_GetResult16, %function
 593              	ADC_SAR_1_GetResult16:
ARM GAS  C:\Users\blinky\AppData\Local\Temp/ccGWaaaa.s 			page 20


 594              	.LFB13:
 595              		.loc 1 504 0
 596              		@ args = 0, pretend = 0, frame = 0
 487:./Generated_Source/PSoC5/ADC_SAR_1.c **** 
 488:./Generated_Source/PSoC5/ADC_SAR_1.c **** 
 489:./Generated_Source/PSoC5/ADC_SAR_1.c **** /*******************************************************************************
 490:./Generated_Source/PSoC5/ADC_SAR_1.c **** * Function Name: ADC_SAR_1_GetResult16
 491:./Generated_Source/PSoC5/ADC_SAR_1.c **** ********************************************************************************
 492:./Generated_Source/PSoC5/ADC_SAR_1.c **** *
 493:./Generated_Source/PSoC5/ADC_SAR_1.c **** * Summary:
 494:./Generated_Source/PSoC5/ADC_SAR_1.c **** *  Gets the data available in the SAR DATA registers.
 495:./Generated_Source/PSoC5/ADC_SAR_1.c **** *
 496:./Generated_Source/PSoC5/ADC_SAR_1.c **** * Parameters:
 497:./Generated_Source/PSoC5/ADC_SAR_1.c **** *  void
 498:./Generated_Source/PSoC5/ADC_SAR_1.c **** *
 499:./Generated_Source/PSoC5/ADC_SAR_1.c **** * Return:
 500:./Generated_Source/PSoC5/ADC_SAR_1.c **** *  ADC result. WORD value which has the converted 12bits.
 501:./Generated_Source/PSoC5/ADC_SAR_1.c **** *
 502:./Generated_Source/PSoC5/ADC_SAR_1.c **** *******************************************************************************/
 503:./Generated_Source/PSoC5/ADC_SAR_1.c **** int16 ADC_SAR_1_GetResult16( void )
 504:./Generated_Source/PSoC5/ADC_SAR_1.c **** {
 597              	, uses_anonymous_args = 0
 598              		@ link register save eliminated.
 599              		push	{r7}
 600              	.LCFI27:
 601 0000 80B4     		add	r7, sp, #0
 602              	.LCFI28:
 603 0002 00AF     		@ lr needed for prologue
 604              		.loc 1 505 0
 605              		ldr	r3, .L55
 505:./Generated_Source/PSoC5/ADC_SAR_1.c ****     return( (ADC_SAR_1_SAR_WRK1 << 8 ) | ADC_SAR_1_SAR_WRK0 );
 606              	 [r3, #0]
 607 0004 084B     		uxtb	r3, r3
 608 0006 1B78     		lsl	r3, r3, #8
 609 0008 DBB2     		uxth	r2, r3
 610 000a 4FEA0323 		ldr	r3, .L55+4
 611 000e 9AB2     		ldrb	r3, [r3, #0]
 612 0010 064B     		uxtb	r3, r3
 613 0012 1B78     		orr	r3, r2, r3
 614 0014 DBB2     		uxth	r3, r3
 615 0016 42EA0303 		sxth	r3, r3
 616 001a 9BB2     		.loc 1 506 0
 617 001c 1BB2     		mov	r0, r3
 506:./Generated_Source/PSoC5/ADC_SAR_1.c **** }
 618              		pop	{r7}
 619 001e 1846     		bx	lr
 620 0020 BD46     	.L56:
 621 0022 80BC     		.align	2
 622 0024 7047     	.L55:
 623              		.word	1073765281
 624 0026 C046     		.word	1073765280
 625              	.LFE13:
 626 0028 A15B0040 		.size	ADC_SAR_1_GetResult16, .-ADC_SAR_1_GetResult16
 627 002c A05B0040 		.section	.text.ADC_SAR_1_SetOffset,"ax",%progbits
 628              		.align	2
 629              		.global	ADC_SAR_1_SetOffset
 630              		.thumb
ARM GAS  C:\Users\blinky\AppData\Local\Temp/ccGWaaaa.s 			page 21


 631              		.thumb_func
 632              		.type	ADC_SAR_1_SetOffset, %function
 633              	ADC_SAR_1_SetOffset:
 634              	.LFB14:
 635              		.loc 1 524 0
 636              		@ args = 0, pretend = 0, frame = 8
 637              		@ frame_needed = 1, uses_anonymous_args = 0
 507:./Generated_Source/PSoC5/ADC_SAR_1.c **** 
 508:./Generated_Source/PSoC5/ADC_SAR_1.c **** 
 509:./Generated_Source/PSoC5/ADC_SAR_1.c **** /*******************************************************************************
 510:./Generated_Source/PSoC5/ADC_SAR_1.c **** * Function Name: ADC_SAR_1_SetOffset
 511:./Generated_Source/PSoC5/ADC_SAR_1.c **** ********************************************************************************
 512:./Generated_Source/PSoC5/ADC_SAR_1.c **** *
 513:./Generated_Source/PSoC5/ADC_SAR_1.c **** * Summary:
 514:./Generated_Source/PSoC5/ADC_SAR_1.c **** *  This function sets the offset for voltage readings.
 515:./Generated_Source/PSoC5/ADC_SAR_1.c **** *
 516:./Generated_Source/PSoC5/ADC_SAR_1.c **** * Parameters:
 517:./Generated_Source/PSoC5/ADC_SAR_1.c **** *  int16  offset  Offset in counts
 518:./Generated_Source/PSoC5/ADC_SAR_1.c **** *
 519:./Generated_Source/PSoC5/ADC_SAR_1.c **** * Return:
 520:./Generated_Source/PSoC5/ADC_SAR_1.c **** *  void
 521:./Generated_Source/PSoC5/ADC_SAR_1.c **** *
 522:./Generated_Source/PSoC5/ADC_SAR_1.c **** *******************************************************************************/
 523:./Generated_Source/PSoC5/ADC_SAR_1.c **** void ADC_SAR_1_SetOffset(int16 offset)
 524:./Generated_Source/PSoC5/ADC_SAR_1.c **** {
 638              	e eliminated.
 639              		push	{r7}
 640              	.LCFI29:
 641              		sub	sp, sp, #12
 642 0000 80B4     	.LCFI30:
 643              		add	r7, sp, #0
 644 0002 83B0     	.LCFI31:
 645              		@ lr needed for prologue
 646 0004 00AF     		mov	r3, r0
 647              		strh	r3, [r7, #6]	@ movhi
 648              		.loc 1 526 0
 649 0006 0346     		ldr	r2, .L59
 650 0008 FB80     		ldrh	r3, [r7, #6]	@ movhi
 525:./Generated_Source/PSoC5/ADC_SAR_1.c **** 
 526:./Generated_Source/PSoC5/ADC_SAR_1.c ****     ADC_SAR_1_Offset = offset;
 651              	, #0]	@ movhi
 652 000a 044A     		.loc 1 527 0
 653 000c FB88     		add	r7, r7, #12
 654 000e 1380     		mov	sp, r7
 527:./Generated_Source/PSoC5/ADC_SAR_1.c **** }
 655              		{r7}
 656 0010 07F10C07 		bx	lr
 657 0014 BD46     	.L60:
 658 0016 80BC     		.align	2
 659 0018 7047     	.L59:
 660              		.word	ADC_SAR_1_Offset
 661 001a C046     	.LFE14:
 662              		.size	ADC_SAR_1_SetOffset, .-ADC_SAR_1_SetOffset
 663 001c 00000000 		.section	.text.ADC_SAR_1_CalcGain,"ax",%progbits
 664              		.align	2
 665              		.global	ADC_SAR_1_CalcGain
 666              		.thumb
ARM GAS  C:\Users\blinky\AppData\Local\Temp/ccGWaaaa.s 			page 22


 667              		.thumb_func
 668              		.type	ADC_SAR_1_CalcGain, %function
 669              	ADC_SAR_1_CalcGain:
 670              	.LFB15:
 671              		.loc 1 545 0
 672              		@ args = 0, pretend = 0, frame = 16
 673              		@ frame_needed = 1, uses_anonymous_args = 0
 528:./Generated_Source/PSoC5/ADC_SAR_1.c **** 
 529:./Generated_Source/PSoC5/ADC_SAR_1.c **** 
 530:./Generated_Source/PSoC5/ADC_SAR_1.c **** /*******************************************************************************
 531:./Generated_Source/PSoC5/ADC_SAR_1.c **** * Function Name: ADC_SAR_1_CalcGain
 532:./Generated_Source/PSoC5/ADC_SAR_1.c **** ********************************************************************************
 533:./Generated_Source/PSoC5/ADC_SAR_1.c **** *
 534:./Generated_Source/PSoC5/ADC_SAR_1.c **** * Summary:
 535:./Generated_Source/PSoC5/ADC_SAR_1.c **** *  This function calculates the ADC gain in counts per volt.
 536:./Generated_Source/PSoC5/ADC_SAR_1.c **** *
 537:./Generated_Source/PSoC5/ADC_SAR_1.c **** * Parameters:
 538:./Generated_Source/PSoC5/ADC_SAR_1.c **** *  uint8: resolution
 539:./Generated_Source/PSoC5/ADC_SAR_1.c **** *
 540:./Generated_Source/PSoC5/ADC_SAR_1.c **** * Return:
 541:./Generated_Source/PSoC5/ADC_SAR_1.c **** *  void
 542:./Generated_Source/PSoC5/ADC_SAR_1.c **** *
 543:./Generated_Source/PSoC5/ADC_SAR_1.c **** *******************************************************************************/
 544:./Generated_Source/PSoC5/ADC_SAR_1.c **** void ADC_SAR_1_CalcGain( uint8 resolution )
 545:./Generated_Source/PSoC5/ADC_SAR_1.c **** {
 674              	ve eliminated.
 675              		push	{r7}
 676              	.LCFI32:
 677              		sub	sp, sp, #20
 678 0000 80B4     	.LCFI33:
 679              		add	r7, sp, #0
 680 0002 85B0     	.LCFI34:
 681              		@ lr needed for prologue
 682 0004 00AF     		mov	r3, r0
 683              		strb	r3, [r7, #7]
 684              		.loc 1 546 0
 685 0006 0346     		movw	r3, #4095
 686 0008 FB71     		str	r3, [r7, #8]
 546:./Generated_Source/PSoC5/ADC_SAR_1.c ****     uint32 counts = 0xFFF; /*default 12 bits*/
 687              	
 688 000a 40F6FF73 		mov	r3, #2048
 689 000e BB60     		strh	r3, [r7, #14]	@ movhi
 547:./Generated_Source/PSoC5/ADC_SAR_1.c ****     uint16 diff_zero = 0x800;
 690              	loc 1 549 0
 691 0010 4FF40063 		ldrb	r3, [r7, #7]	@ zero_extendqisi2
 692 0014 FB81     		cmp	r3, #10
 548:./Generated_Source/PSoC5/ADC_SAR_1.c ****     
 549:./Generated_Source/PSoC5/ADC_SAR_1.c ****     if(resolution == ADC_SAR_1__BITS_10)
 693              	e	.L62
 694 0016 FB79     		.loc 1 551 0
 695 0018 0A2B     		ldr	r3, [r7, #8]
 696 001a 07D1     		lsr	r3, r3, #2
 550:./Generated_Source/PSoC5/ADC_SAR_1.c ****     {
 551:./Generated_Source/PSoC5/ADC_SAR_1.c ****         counts >>= 2;
 697              		r3, [r7, #8]
 698 001c BB68     		.loc 1 552 0
 699 001e 4FEA9303 		ldrh	r3, [r7, #14]
ARM GAS  C:\Users\blinky\AppData\Local\Temp/ccGWaaaa.s 			page 23


 700 0022 BB60     		lsr	r3, r3, #2
 552:./Generated_Source/PSoC5/ADC_SAR_1.c ****         diff_zero >>= 2;
 701              	h	r3, [r7, #14]	@ movhi
 702 0024 FB89     	.L62:
 703 0026 4FEA9303 		.loc 1 554 0
 704 002a FB81     		ldrb	r3, [r7, #7]	@ zero_extendqisi2
 705              		cmp	r3, #8
 553:./Generated_Source/PSoC5/ADC_SAR_1.c ****     }
 554:./Generated_Source/PSoC5/ADC_SAR_1.c ****     if(resolution == ADC_SAR_1__BITS_8)
 706              	.L64
 707 002c FB79     		.loc 1 556 0
 708 002e 082B     		ldr	r3, [r7, #8]
 709 0030 07D1     		lsr	r3, r3, #4
 555:./Generated_Source/PSoC5/ADC_SAR_1.c ****     {
 556:./Generated_Source/PSoC5/ADC_SAR_1.c ****         counts >>= 4;
 710              		r3, [r7, #8]
 711 0032 BB68     		.loc 1 557 0
 712 0034 4FEA1313 		ldrh	r3, [r7, #14]
 713 0038 BB60     		lsr	r3, r3, #4
 557:./Generated_Source/PSoC5/ADC_SAR_1.c ****         diff_zero >>= 4;
 714              	h	r3, [r7, #14]	@ movhi
 715 003a FB89     	.L64:
 716 003c 4FEA1313 		.loc 1 559 0
 717 0040 FB81     		ldr	r1, [r7, #8]
 718              		mov	r3, r1
 558:./Generated_Source/PSoC5/ADC_SAR_1.c ****     }
 559:./Generated_Source/PSoC5/ADC_SAR_1.c ****     counts *= 1000; /* To avoid float point arithmetic*/
 719              	r2, r3, #2
 720 0042 B968     		lsl	r3, r2, #5
 721 0044 0B46     		rsb	r3, r2, r3
 722 0046 4FEA8302 		add	r3, r3, r1
 723 004a 4FEA4213 		lsl	r3, r3, #3
 724 004e C2EB0303 		str	r3, [r7, #8]
 725 0052 0B44     		.loc 1 564 0
 726 0054 4FEAC303 		ldr	r3, [r7, #8]
 727 0058 BB60     		lsr	r3, r3, #11
 560:./Generated_Source/PSoC5/ADC_SAR_1.c **** 
 561:./Generated_Source/PSoC5/ADC_SAR_1.c ****         switch (ADC_SAR_1_DEFAULT_RANGE)
 562:./Generated_Source/PSoC5/ADC_SAR_1.c ****         {   /*TODO: use float point when it will be available*/
 563:./Generated_Source/PSoC5/ADC_SAR_1.c ****             case ADC_SAR_1__VSS_TO_VREF:
 564:./Generated_Source/PSoC5/ADC_SAR_1.c ****                 ADC_SAR_1_CountsPerVolt = counts / ADC_SAR_1_DEFAULT_REF_VOLTAGE_MV / 2;
 728              	 r3
 729 005a BB68     		ldr	r2, .L67
 730 005c 4FEAD323 		strh	r3, [r2, #0]	@ movhi
 731 0060 9BB2     		.loc 1 565 0
 732 0062 054A     		ldr	r2, .L67+4
 733 0064 1380     		mov	r3, #0
 565:./Generated_Source/PSoC5/ADC_SAR_1.c ****                 ADC_SAR_1_Offset = 0;
 734              	r3, [r2, #0]	@ movhi
 735 0066 054A     		.loc 1 602 0
 736 0068 4FF00003 		add	r7, r7, #20
 737 006c 1380     		mov	sp, r7
 566:./Generated_Source/PSoC5/ADC_SAR_1.c ****                 break;
 567:./Generated_Source/PSoC5/ADC_SAR_1.c **** 
 568:./Generated_Source/PSoC5/ADC_SAR_1.c ****             case ADC_SAR_1__VSSA_TO_VDDA:
 569:./Generated_Source/PSoC5/ADC_SAR_1.c ****                 ADC_SAR_1_CountsPerVolt = counts / ADC_SAR_1_DEFAULT_REF_VOLTAGE_MV;
 570:./Generated_Source/PSoC5/ADC_SAR_1.c ****                 ADC_SAR_1_Offset = 0;
ARM GAS  C:\Users\blinky\AppData\Local\Temp/ccGWaaaa.s 			page 24


 571:./Generated_Source/PSoC5/ADC_SAR_1.c ****                 break;
 572:./Generated_Source/PSoC5/ADC_SAR_1.c **** 
 573:./Generated_Source/PSoC5/ADC_SAR_1.c ****             case ADC_SAR_1__VSSA_TO_VDAC:
 574:./Generated_Source/PSoC5/ADC_SAR_1.c ****                 ADC_SAR_1_CountsPerVolt = counts / ADC_SAR_1_DEFAULT_REF_VOLTAGE_MV / 2;
 575:./Generated_Source/PSoC5/ADC_SAR_1.c ****                 ADC_SAR_1_Offset = 0;
 576:./Generated_Source/PSoC5/ADC_SAR_1.c ****                 break;
 577:./Generated_Source/PSoC5/ADC_SAR_1.c **** 
 578:./Generated_Source/PSoC5/ADC_SAR_1.c ****             case ADC_SAR_1__VNEG_VREF_DIFF:
 579:./Generated_Source/PSoC5/ADC_SAR_1.c ****                 ADC_SAR_1_CountsPerVolt = counts / ADC_SAR_1_DEFAULT_REF_VOLTAGE_MV / 2;
 580:./Generated_Source/PSoC5/ADC_SAR_1.c ****                 ADC_SAR_1_Offset = diff_zero;
 581:./Generated_Source/PSoC5/ADC_SAR_1.c ****                 break;
 582:./Generated_Source/PSoC5/ADC_SAR_1.c ****                 
 583:./Generated_Source/PSoC5/ADC_SAR_1.c ****             case ADC_SAR_1__VNEG_VDDA_DIFF:
 584:./Generated_Source/PSoC5/ADC_SAR_1.c ****                 ADC_SAR_1_CountsPerVolt = counts / ADC_SAR_1_DEFAULT_REF_VOLTAGE_MV / 2;
 585:./Generated_Source/PSoC5/ADC_SAR_1.c ****                 ADC_SAR_1_Offset = diff_zero;
 586:./Generated_Source/PSoC5/ADC_SAR_1.c ****                 break;
 587:./Generated_Source/PSoC5/ADC_SAR_1.c **** 
 588:./Generated_Source/PSoC5/ADC_SAR_1.c ****             case ADC_SAR_1__VNEG_VDDA_2_DIFF:
 589:./Generated_Source/PSoC5/ADC_SAR_1.c ****                 ADC_SAR_1_CountsPerVolt = counts / ADC_SAR_1_DEFAULT_REF_VOLTAGE_MV;
 590:./Generated_Source/PSoC5/ADC_SAR_1.c ****                 ADC_SAR_1_Offset = diff_zero;
 591:./Generated_Source/PSoC5/ADC_SAR_1.c ****                 break;
 592:./Generated_Source/PSoC5/ADC_SAR_1.c **** 
 593:./Generated_Source/PSoC5/ADC_SAR_1.c ****             case ADC_SAR_1__VNEG_VDAC_DIFF:
 594:./Generated_Source/PSoC5/ADC_SAR_1.c ****                 ADC_SAR_1_CountsPerVolt = counts / ADC_SAR_1_DEFAULT_REF_VOLTAGE_MV / 2;
 595:./Generated_Source/PSoC5/ADC_SAR_1.c ****                 ADC_SAR_1_Offset = diff_zero;
 596:./Generated_Source/PSoC5/ADC_SAR_1.c ****                 break;
 597:./Generated_Source/PSoC5/ADC_SAR_1.c **** 
 598:./Generated_Source/PSoC5/ADC_SAR_1.c ****             default:
 599:./Generated_Source/PSoC5/ADC_SAR_1.c ****                 /* if default case is hit, invalid argument was passed.*/
 600:./Generated_Source/PSoC5/ADC_SAR_1.c ****                 break;
 601:./Generated_Source/PSoC5/ADC_SAR_1.c ****          }
 602:./Generated_Source/PSoC5/ADC_SAR_1.c **** }
 738              		{r7}
 739 006e 07F11407 		bx	lr
 740 0072 BD46     	.L68:
 741 0074 80BC     		.align	2
 742 0076 7047     	.L67:
 743              		.word	ADC_SAR_1_CountsPerVolt
 744              		.word	ADC_SAR_1_Offset
 745              	.LFE15:
 746 0078 00000000 		.size	ADC_SAR_1_CalcGain, .-ADC_SAR_1_CalcGain
 747 007c 00000000 		.section	.text.ADC_SAR_1_SetGain,"ax",%progbits
 748              		.align	2
 749              		.global	ADC_SAR_1_SetGain
 750              		.thumb
 751              		.thumb_func
 752              		.type	ADC_SAR_1_SetGain, %function
 753              	ADC_SAR_1_SetGain:
 754              	.LFB16:
 755              		.loc 1 620 0
 756              		@ args = 0, pretend = 0, frame = 8
 757              		@ frame_needed = 1, uses_anonymous_args = 0
 603:./Generated_Source/PSoC5/ADC_SAR_1.c **** 
 604:./Generated_Source/PSoC5/ADC_SAR_1.c **** 
 605:./Generated_Source/PSoC5/ADC_SAR_1.c **** /*******************************************************************************
 606:./Generated_Source/PSoC5/ADC_SAR_1.c **** * Function Name: ADC_SAR_1_SetGain
 607:./Generated_Source/PSoC5/ADC_SAR_1.c **** ********************************************************************************
ARM GAS  C:\Users\blinky\AppData\Local\Temp/ccGWaaaa.s 			page 25


 608:./Generated_Source/PSoC5/ADC_SAR_1.c **** *
 609:./Generated_Source/PSoC5/ADC_SAR_1.c **** * Summary:
 610:./Generated_Source/PSoC5/ADC_SAR_1.c **** *  This function sets the ADC gain in counts per volt.
 611:./Generated_Source/PSoC5/ADC_SAR_1.c **** *
 612:./Generated_Source/PSoC5/ADC_SAR_1.c **** * Parameters:
 613:./Generated_Source/PSoC5/ADC_SAR_1.c **** *  int16  adcGain  counts per volt
 614:./Generated_Source/PSoC5/ADC_SAR_1.c **** *
 615:./Generated_Source/PSoC5/ADC_SAR_1.c **** * Return:
 616:./Generated_Source/PSoC5/ADC_SAR_1.c **** *  void
 617:./Generated_Source/PSoC5/ADC_SAR_1.c **** *
 618:./Generated_Source/PSoC5/ADC_SAR_1.c **** *******************************************************************************/
 619:./Generated_Source/PSoC5/ADC_SAR_1.c **** void ADC_SAR_1_SetGain(int16 adcGain)
 620:./Generated_Source/PSoC5/ADC_SAR_1.c **** {
 758              	e eliminated.
 759              		push	{r7}
 760              	.LCFI35:
 761              		sub	sp, sp, #12
 762 0000 80B4     	.LCFI36:
 763              		add	r7, sp, #0
 764 0002 83B0     	.LCFI37:
 765              		@ lr needed for prologue
 766 0004 00AF     		mov	r3, r0
 767              		strh	r3, [r7, #6]	@ movhi
 768              		.loc 1 622 0
 769 0006 0346     		ldr	r2, .L71
 770 0008 FB80     		ldrh	r3, [r7, #6]	@ movhi
 621:./Generated_Source/PSoC5/ADC_SAR_1.c **** 
 622:./Generated_Source/PSoC5/ADC_SAR_1.c ****     ADC_SAR_1_CountsPerVolt = adcGain;
 771              	, #0]	@ movhi
 772 000a 044A     		.loc 1 623 0
 773 000c FB88     		add	r7, r7, #12
 774 000e 1380     		mov	sp, r7
 623:./Generated_Source/PSoC5/ADC_SAR_1.c **** }
 775              		{r7}
 776 0010 07F10C07 		bx	lr
 777 0014 BD46     	.L72:
 778 0016 80BC     		.align	2
 779 0018 7047     	.L71:
 780              		.word	ADC_SAR_1_CountsPerVolt
 781 001a C046     	.LFE16:
 782              		.size	ADC_SAR_1_SetGain, .-ADC_SAR_1_SetGain
 783 001c 00000000 		.section	.text.ADC_SAR_1_CountsTo_mVolts,"ax",%progbits
 784              		.align	2
 785              		.global	ADC_SAR_1_CountsTo_mVolts
 786              		.thumb
 787              		.thumb_func
 788              		.type	ADC_SAR_1_CountsTo_mVolts, %function
 789              	ADC_SAR_1_CountsTo_mVolts:
 790              	.LFB17:
 791              		.loc 1 641 0
 792              		@ args = 0, pretend = 0, frame = 16
 793              		@ frame_needed = 1, uses_anonymous_args = 0
 624:./Generated_Source/PSoC5/ADC_SAR_1.c **** 
 625:./Generated_Source/PSoC5/ADC_SAR_1.c **** 
 626:./Generated_Source/PSoC5/ADC_SAR_1.c **** /*******************************************************************************
 627:./Generated_Source/PSoC5/ADC_SAR_1.c **** * Function Name: ADC_SAR_1_CountsTo_mVolts
 628:./Generated_Source/PSoC5/ADC_SAR_1.c **** ********************************************************************************
ARM GAS  C:\Users\blinky\AppData\Local\Temp/ccGWaaaa.s 			page 26


 629:./Generated_Source/PSoC5/ADC_SAR_1.c **** *
 630:./Generated_Source/PSoC5/ADC_SAR_1.c **** * Summary:
 631:./Generated_Source/PSoC5/ADC_SAR_1.c **** *  This function converts ADC counts to mVolts
 632:./Generated_Source/PSoC5/ADC_SAR_1.c **** *
 633:./Generated_Source/PSoC5/ADC_SAR_1.c **** * Parameters:
 634:./Generated_Source/PSoC5/ADC_SAR_1.c **** *  int16  adcCounts   Reading from ADC.
 635:./Generated_Source/PSoC5/ADC_SAR_1.c **** *
 636:./Generated_Source/PSoC5/ADC_SAR_1.c **** * Return:
 637:./Generated_Source/PSoC5/ADC_SAR_1.c **** *  int16  Result in mVolts
 638:./Generated_Source/PSoC5/ADC_SAR_1.c **** *
 639:./Generated_Source/PSoC5/ADC_SAR_1.c **** *******************************************************************************/
 640:./Generated_Source/PSoC5/ADC_SAR_1.c **** int16 ADC_SAR_1_CountsTo_mVolts( int16 adcCounts)
 641:./Generated_Source/PSoC5/ADC_SAR_1.c **** {
 794              	ve eliminated.
 795              		push	{r7}
 796              	.LCFI38:
 797              		sub	sp, sp, #20
 798 0000 80B4     	.LCFI39:
 799              		add	r7, sp, #0
 800 0002 85B0     	.LCFI40:
 801              		@ lr needed for prologue
 802 0004 00AF     		mov	r3, r0
 803              		strh	r3, [r7, #6]	@ movhi
 804              		.loc 1 643 0
 805 0006 0346     		mov	r3, #0
 806 0008 FB80     		strh	r3, [r7, #14]	@ movhi
 642:./Generated_Source/PSoC5/ADC_SAR_1.c **** 
 643:./Generated_Source/PSoC5/ADC_SAR_1.c ****     int16 mVolts = 0;
 807              	
 808 000a 4FF00003 		ldrh	r2, [r7, #6]
 809 000e FB81     		ldr	r3, .L75
 644:./Generated_Source/PSoC5/ADC_SAR_1.c **** 
 645:./Generated_Source/PSoC5/ADC_SAR_1.c ****     /* Subtract ADC offset */
 646:./Generated_Source/PSoC5/ADC_SAR_1.c ****     adcCounts -= ADC_SAR_1_Offset;
 810              	drh	r3, [r3, #0]
 811 0010 FA88     		uxth	r3, r3
 812 0012 114B     		rsb	r3, r3, r2
 813 0014 1B88     		uxth	r3, r3
 814 0016 9BB2     		strh	r3, [r7, #6]	@ movhi
 815 0018 C3EB0203 		.loc 1 648 0
 816 001c 9BB2     		ldrsh	r1, [r7, #6]
 817 001e FB80     		mov	r3, r1
 647:./Generated_Source/PSoC5/ADC_SAR_1.c **** 
 648:./Generated_Source/PSoC5/ADC_SAR_1.c ****     mVolts = ( (int32)adcCounts * 1000 ) / ADC_SAR_1_CountsPerVolt ;
 818              	 r3, #2
 819 0020 B7F90610 		lsl	r3, r2, #5
 820 0024 0B46     		rsb	r3, r2, r3
 821 0026 4FEA8302 		add	r3, r3, r1
 822 002a 4FEA4213 		lsl	r3, r3, #3
 823 002e C2EB0303 		mov	r2, r3
 824 0032 0B44     		ldr	r3, .L75+4
 825 0034 4FEAC303 		ldrh	r3, [r3, #0]
 826 0038 1A46     		sxth	r3, r3
 827 003a 084B     		sdiv	r3, r2, r3
 828 003c 1B88     		strh	r3, [r7, #14]	@ movhi
 829 003e 1BB2     		.loc 1 650 0
 830 0040 92FBF3F3 		ldrsh	r3, [r7, #14]
ARM GAS  C:\Users\blinky\AppData\Local\Temp/ccGWaaaa.s 			page 27


 831 0044 FB81     		.loc 1 651 0
 649:./Generated_Source/PSoC5/ADC_SAR_1.c **** 
 650:./Generated_Source/PSoC5/ADC_SAR_1.c ****     return( mVolts );
 832              	dd	r7, r7, #20
 833 0046 B7F90E30 		mov	sp, r7
 651:./Generated_Source/PSoC5/ADC_SAR_1.c **** }
 834              	op	{r7}
 835 004a 1846     		bx	lr
 836 004c 07F11407 	.L76:
 837 0050 BD46     		.align	2
 838 0052 80BC     	.L75:
 839 0054 7047     		.word	ADC_SAR_1_Offset
 840              		.word	ADC_SAR_1_CountsPerVolt
 841 0056 C046     	.LFE17:
 842              		.size	ADC_SAR_1_CountsTo_mVolts, .-ADC_SAR_1_CountsTo_mVolts
 843 0058 00000000 		.comm	ADC_SAR_1_CountsPerVolt,2,2
 844 005c 00000000 		.section	.debug_frame,"",%progbits
 845              	.Lframe0:
 846              		.4byte	.LECIE0-.LSCIE0
 847              	.LSCIE0:
 848              		.4byte	0xffffffff
 849              		.byte	0x1
 850 0000 0C000000 		.ascii	"\000"
 851              		.uleb128 0x1
 852 0004 FFFFFFFF 		.sleb128 -4
 853 0008 01       		.byte	0xe
 854 0009 00       		.byte	0xc
 855 000a 01       		.uleb128 0xd
 856 000b 7C       		.uleb128 0x0
 857 000c 0E       		.align	2
 858 000d 0C       	.LECIE0:
 859 000e 0D       	.LSFDE0:
 860 000f 00       		.4byte	.LEFDE0-.LASFDE0
 861              	.LASFDE0:
 862              		.4byte	.Lframe0
 863              		.4byte	.LFB2
 864 0010 1C000000 		.4byte	.LFE2-.LFB2
 865              		.byte	0x4
 866 0014 00000000 		.4byte	.LCFI0-.LFB2
 867 0018 00000000 		.byte	0xe
 868 001c C8000000 		.uleb128 0x8
 869 0020 42       		.byte	0x4
 870              		.4byte	.LCFI1-.LCFI0
 871 0021 0E       		.byte	0xe
 872 0022 08       		.uleb128 0x10
 873 0023 42       		.byte	0x8e
 874              		.uleb128 0x1
 875 0024 0E       		.byte	0x87
 876 0025 10       		.uleb128 0x2
 877 0026 8E       		.byte	0x4
 878 0027 01       		.4byte	.LCFI2-.LCFI1
 879 0028 87       		.byte	0xd
 880 0029 02       		.uleb128 0x7
 881 002a 42       		.align	2
 882              	.LEFDE0:
 883 002b 0D       	.LSFDE2:
 884 002c 07       		.4byte	.LEFDE2-.LASFDE2
ARM GAS  C:\Users\blinky\AppData\Local\Temp/ccGWaaaa.s 			page 28


 885 002d 000000   	.LASFDE2:
 886              		.4byte	.Lframe0
 887              		.4byte	.LFB3
 888 0030 18000000 		.4byte	.LFE3-.LFB3
 889              		.byte	0x4
 890 0034 00000000 		.4byte	.LCFI3-.LFB3
 891 0038 00000000 		.byte	0xe
 892 003c 64000000 		.uleb128 0x4
 893 0040 42       		.byte	0x4
 894              		.4byte	.LCFI4-.LCFI3
 895 0041 0E       		.byte	0xe
 896 0042 04       		.uleb128 0x18
 897 0043 42       		.byte	0x87
 898              		.uleb128 0x1
 899 0044 0E       		.byte	0x4
 900 0045 18       		.4byte	.LCFI5-.LCFI4
 901 0046 87       		.byte	0xd
 902 0047 01       		.uleb128 0x7
 903 0048 42       		.align	2
 904              	.LEFDE2:
 905 0049 0D       	.LSFDE4:
 906 004a 07       		.4byte	.LEFDE4-.LASFDE4
 907 004b 00       	.LASFDE4:
 908              		.4byte	.Lframe0
 909              		.4byte	.LFB4
 910 004c 18000000 		.4byte	.LFE4-.LFB4
 911              		.byte	0x4
 912 0050 00000000 		.4byte	.LCFI6-.LFB4
 913 0054 00000000 		.byte	0xe
 914 0058 44000000 		.uleb128 0x8
 915 005c 42       		.byte	0x8e
 916              		.uleb128 0x1
 917 005d 0E       		.byte	0x87
 918 005e 08       		.uleb128 0x2
 919 005f 8E       		.byte	0x4
 920 0060 01       		.4byte	.LCFI7-.LCFI6
 921 0061 87       		.byte	0xd
 922 0062 02       		.uleb128 0x7
 923 0063 42       		.align	2
 924              	.LEFDE4:
 925 0064 0D       	.LSFDE6:
 926 0065 07       		.4byte	.LEFDE6-.LASFDE6
 927 0066 0000     	.LASFDE6:
 928              		.4byte	.Lframe0
 929              		.4byte	.LFB5
 930 0068 18000000 		.4byte	.LFE5-.LFB5
 931              		.byte	0x4
 932 006c 00000000 		.4byte	.LCFI8-.LFB5
 933 0070 00000000 		.byte	0xe
 934 0074 10000000 		.uleb128 0x8
 935 0078 42       		.byte	0x8e
 936              		.uleb128 0x1
 937 0079 0E       		.byte	0x87
 938 007a 08       		.uleb128 0x2
 939 007b 8E       		.byte	0x4
 940 007c 01       		.4byte	.LCFI9-.LCFI8
 941 007d 87       		.byte	0xd
ARM GAS  C:\Users\blinky\AppData\Local\Temp/ccGWaaaa.s 			page 29


 942 007e 02       		.uleb128 0x7
 943 007f 42       		.align	2
 944              	.LEFDE6:
 945 0080 0D       	.LSFDE8:
 946 0081 07       		.4byte	.LEFDE8-.LASFDE8
 947 0082 0000     	.LASFDE8:
 948              		.4byte	.Lframe0
 949              		.4byte	.LFB6
 950 0084 18000000 		.4byte	.LFE6-.LFB6
 951              		.byte	0x4
 952 0088 00000000 		.4byte	.LCFI10-.LFB6
 953 008c 00000000 		.byte	0xe
 954 0090 10000000 		.uleb128 0x8
 955 0094 42       		.byte	0x8e
 956              		.uleb128 0x1
 957 0095 0E       		.byte	0x87
 958 0096 08       		.uleb128 0x2
 959 0097 8E       		.byte	0x4
 960 0098 01       		.4byte	.LCFI11-.LCFI10
 961 0099 87       		.byte	0xd
 962 009a 02       		.uleb128 0x7
 963 009b 42       		.align	2
 964              	.LEFDE8:
 965 009c 0D       	.LSFDE10:
 966 009d 07       		.4byte	.LEFDE10-.LASFDE10
 967 009e 0000     	.LASFDE10:
 968              		.4byte	.Lframe0
 969              		.4byte	.LFB7
 970 00a0 18000000 		.4byte	.LFE7-.LFB7
 971              		.byte	0x4
 972 00a4 00000000 		.4byte	.LCFI12-.LFB7
 973 00a8 00000000 		.byte	0xe
 974 00ac 48000000 		.uleb128 0x4
 975 00b0 42       		.byte	0x4
 976              		.4byte	.LCFI13-.LCFI12
 977 00b1 0E       		.byte	0xe
 978 00b2 04       		.uleb128 0x18
 979 00b3 42       		.byte	0x87
 980              		.uleb128 0x1
 981 00b4 0E       		.byte	0x4
 982 00b5 18       		.4byte	.LCFI14-.LCFI13
 983 00b6 87       		.byte	0xd
 984 00b7 01       		.uleb128 0x7
 985 00b8 42       		.align	2
 986              	.LEFDE10:
 987 00b9 0D       	.LSFDE12:
 988 00ba 07       		.4byte	.LEFDE12-.LASFDE12
 989 00bb 00       	.LASFDE12:
 990              		.4byte	.Lframe0
 991              		.4byte	.LFB8
 992 00bc 1C000000 		.4byte	.LFE8-.LFB8
 993              		.byte	0x4
 994 00c0 00000000 		.4byte	.LCFI15-.LFB8
 995 00c4 00000000 		.byte	0xe
 996 00c8 5C000000 		.uleb128 0x8
 997 00cc 42       		.byte	0x4
 998              		.4byte	.LCFI16-.LCFI15
ARM GAS  C:\Users\blinky\AppData\Local\Temp/ccGWaaaa.s 			page 30


 999 00cd 0E       		.byte	0xe
 1000 00ce 08       		.uleb128 0x18
 1001 00cf 42       		.byte	0x8e
 1002              		.uleb128 0x1
 1003 00d0 0E       		.byte	0x87
 1004 00d1 18       		.uleb128 0x2
 1005 00d2 8E       		.byte	0x4
 1006 00d3 01       		.4byte	.LCFI17-.LCFI16
 1007 00d4 87       		.byte	0xd
 1008 00d5 02       		.uleb128 0x7
 1009 00d6 42       		.align	2
 1010              	.LEFDE12:
 1011 00d7 0D       	.LSFDE14:
 1012 00d8 07       		.4byte	.LEFDE14-.LASFDE14
 1013 00d9 000000   	.LASFDE14:
 1014              		.4byte	.Lframe0
 1015              		.4byte	.LFB9
 1016 00dc 14000000 		.4byte	.LFE9-.LFB9
 1017              		.byte	0x4
 1018 00e0 00000000 		.4byte	.LCFI18-.LFB9
 1019 00e4 00000000 		.byte	0xe
 1020 00e8 20000000 		.uleb128 0x4
 1021 00ec 42       		.byte	0x87
 1022              		.uleb128 0x1
 1023 00ed 0E       		.byte	0x4
 1024 00ee 04       		.4byte	.LCFI19-.LCFI18
 1025 00ef 87       		.byte	0xd
 1026 00f0 01       		.uleb128 0x7
 1027 00f1 42       		.align	2
 1028              	.LEFDE14:
 1029 00f2 0D       	.LSFDE16:
 1030 00f3 07       		.4byte	.LEFDE16-.LASFDE16
 1031              	.LASFDE16:
 1032              		.4byte	.Lframe0
 1033              		.4byte	.LFB10
 1034 00f4 14000000 		.4byte	.LFE10-.LFB10
 1035              		.byte	0x4
 1036 00f8 00000000 		.4byte	.LCFI20-.LFB10
 1037 00fc 00000000 		.byte	0xe
 1038 0100 1C000000 		.uleb128 0x4
 1039 0104 42       		.byte	0x87
 1040              		.uleb128 0x1
 1041 0105 0E       		.byte	0x4
 1042 0106 04       		.4byte	.LCFI21-.LCFI20
 1043 0107 87       		.byte	0xd
 1044 0108 01       		.uleb128 0x7
 1045 0109 42       		.align	2
 1046              	.LEFDE16:
 1047 010a 0D       	.LSFDE18:
 1048 010b 07       		.4byte	.LEFDE18-.LASFDE18
 1049              	.LASFDE18:
 1050              		.4byte	.Lframe0
 1051              		.4byte	.LFB11
 1052 010c 18000000 		.4byte	.LFE11-.LFB11
 1053              		.byte	0x4
 1054 0110 00000000 		.4byte	.LCFI22-.LFB11
 1055 0114 00000000 		.byte	0xe
ARM GAS  C:\Users\blinky\AppData\Local\Temp/ccGWaaaa.s 			page 31


 1056 0118 34000000 		.uleb128 0x4
 1057 011c 42       		.byte	0x4
 1058              		.4byte	.LCFI23-.LCFI22
 1059 011d 0E       		.byte	0xe
 1060 011e 04       		.uleb128 0x18
 1061 011f 42       		.byte	0x87
 1062              		.uleb128 0x1
 1063 0120 0E       		.byte	0x4
 1064 0121 18       		.4byte	.LCFI24-.LCFI23
 1065 0122 87       		.byte	0xd
 1066 0123 01       		.uleb128 0x7
 1067 0124 42       		.align	2
 1068              	.LEFDE18:
 1069 0125 0D       	.LSFDE20:
 1070 0126 07       		.4byte	.LEFDE20-.LASFDE20
 1071 0127 00       	.LASFDE20:
 1072              		.4byte	.Lframe0
 1073              		.4byte	.LFB12
 1074 0128 14000000 		.4byte	.LFE12-.LFB12
 1075              		.byte	0x4
 1076 012c 00000000 		.4byte	.LCFI25-.LFB12
 1077 0130 00000000 		.byte	0xe
 1078 0134 18000000 		.uleb128 0x4
 1079 0138 42       		.byte	0x87
 1080              		.uleb128 0x1
 1081 0139 0E       		.byte	0x4
 1082 013a 04       		.4byte	.LCFI26-.LCFI25
 1083 013b 87       		.byte	0xd
 1084 013c 01       		.uleb128 0x7
 1085 013d 42       		.align	2
 1086              	.LEFDE20:
 1087 013e 0D       	.LSFDE22:
 1088 013f 07       		.4byte	.LEFDE22-.LASFDE22
 1089              	.LASFDE22:
 1090              		.4byte	.Lframe0
 1091              		.4byte	.LFB13
 1092 0140 14000000 		.4byte	.LFE13-.LFB13
 1093              		.byte	0x4
 1094 0144 00000000 		.4byte	.LCFI27-.LFB13
 1095 0148 00000000 		.byte	0xe
 1096 014c 30000000 		.uleb128 0x4
 1097 0150 42       		.byte	0x87
 1098              		.uleb128 0x1
 1099 0151 0E       		.byte	0x4
 1100 0152 04       		.4byte	.LCFI28-.LCFI27
 1101 0153 87       		.byte	0xd
 1102 0154 01       		.uleb128 0x7
 1103 0155 42       		.align	2
 1104              	.LEFDE22:
 1105 0156 0D       	.LSFDE24:
 1106 0157 07       		.4byte	.LEFDE24-.LASFDE24
 1107              	.LASFDE24:
 1108              		.4byte	.Lframe0
 1109              		.4byte	.LFB14
 1110 0158 18000000 		.4byte	.LFE14-.LFB14
 1111              		.byte	0x4
 1112 015c 00000000 		.4byte	.LCFI29-.LFB14
ARM GAS  C:\Users\blinky\AppData\Local\Temp/ccGWaaaa.s 			page 32


 1113 0160 00000000 		.byte	0xe
 1114 0164 20000000 		.uleb128 0x4
 1115 0168 42       		.byte	0x4
 1116              		.4byte	.LCFI30-.LCFI29
 1117 0169 0E       		.byte	0xe
 1118 016a 04       		.uleb128 0x10
 1119 016b 42       		.byte	0x87
 1120              		.uleb128 0x1
 1121 016c 0E       		.byte	0x4
 1122 016d 10       		.4byte	.LCFI31-.LCFI30
 1123 016e 87       		.byte	0xd
 1124 016f 01       		.uleb128 0x7
 1125 0170 42       		.align	2
 1126              	.LEFDE24:
 1127 0171 0D       	.LSFDE26:
 1128 0172 07       		.4byte	.LEFDE26-.LASFDE26
 1129 0173 00       	.LASFDE26:
 1130              		.4byte	.Lframe0
 1131              		.4byte	.LFB15
 1132 0174 18000000 		.4byte	.LFE15-.LFB15
 1133              		.byte	0x4
 1134 0178 00000000 		.4byte	.LCFI32-.LFB15
 1135 017c 00000000 		.byte	0xe
 1136 0180 80000000 		.uleb128 0x4
 1137 0184 42       		.byte	0x4
 1138              		.4byte	.LCFI33-.LCFI32
 1139 0185 0E       		.byte	0xe
 1140 0186 04       		.uleb128 0x18
 1141 0187 42       		.byte	0x87
 1142              		.uleb128 0x1
 1143 0188 0E       		.byte	0x4
 1144 0189 18       		.4byte	.LCFI34-.LCFI33
 1145 018a 87       		.byte	0xd
 1146 018b 01       		.uleb128 0x7
 1147 018c 42       		.align	2
 1148              	.LEFDE26:
 1149 018d 0D       	.LSFDE28:
 1150 018e 07       		.4byte	.LEFDE28-.LASFDE28
 1151 018f 00       	.LASFDE28:
 1152              		.4byte	.Lframe0
 1153              		.4byte	.LFB16
 1154 0190 18000000 		.4byte	.LFE16-.LFB16
 1155              		.byte	0x4
 1156 0194 00000000 		.4byte	.LCFI35-.LFB16
 1157 0198 00000000 		.byte	0xe
 1158 019c 20000000 		.uleb128 0x4
 1159 01a0 42       		.byte	0x4
 1160              		.4byte	.LCFI36-.LCFI35
 1161 01a1 0E       		.byte	0xe
 1162 01a2 04       		.uleb128 0x10
 1163 01a3 42       		.byte	0x87
 1164              		.uleb128 0x1
 1165 01a4 0E       		.byte	0x4
 1166 01a5 10       		.4byte	.LCFI37-.LCFI36
 1167 01a6 87       		.byte	0xd
 1168 01a7 01       		.uleb128 0x7
 1169 01a8 42       		.align	2
ARM GAS  C:\Users\blinky\AppData\Local\Temp/ccGWaaaa.s 			page 33


 1170              	.LEFDE28:
 1171 01a9 0D       	.LSFDE30:
 1172 01aa 07       		.4byte	.LEFDE30-.LASFDE30
 1173 01ab 00       	.LASFDE30:
 1174              		.4byte	.Lframe0
 1175              		.4byte	.LFB17
 1176 01ac 18000000 		.4byte	.LFE17-.LFB17
 1177              		.byte	0x4
 1178 01b0 00000000 		.4byte	.LCFI38-.LFB17
 1179 01b4 00000000 		.byte	0xe
 1180 01b8 60000000 		.uleb128 0x4
 1181 01bc 42       		.byte	0x4
 1182              		.4byte	.LCFI39-.LCFI38
 1183 01bd 0E       		.byte	0xe
 1184 01be 04       		.uleb128 0x18
 1185 01bf 42       		.byte	0x87
 1186              		.uleb128 0x1
 1187 01c0 0E       		.byte	0x4
 1188 01c1 18       		.4byte	.LCFI40-.LCFI39
 1189 01c2 87       		.byte	0xd
 1190 01c3 01       		.uleb128 0x7
 1191 01c4 42       		.align	2
 1192              	.LEFDE30:
 1193 01c5 0D       		.text
 1194 01c6 07       	.Letext0: