ARM GAS  C:\Users\blinky\AppData\Local\Temp/ccaubaaa.s 			page 1


   1              		.syntax unified
   2              		.cpu cortex-m3
   3              		.fpu softvfp
   4              		.eabi_attribute 20, 1
   5              		.eabi_attribute 21, 1
   6              		.eabi_attribute 23, 3
   7              		.eabi_attribute 24, 1
   8              		.eabi_attribute 25, 1
   9              		.eabi_attribute 26, 1
  10              		.eabi_attribute 30, 6
  11              		.eabi_attribute 18, 4
  12              		.thumb
  13              		.file	"CyDmac.c"
  14              		.section	.debug_abbrev,"",%progbits
  15              	.Ldebug_abbrev0:
  16              		.section	.debug_info,"",%progbits
  17              	.Ldebug_info0:
  18              		.section	.debug_line,"",%progbits
  19              	.Ldebug_line0:
  20 0000 7E020000 		.text
  20      02005100 
  20      00000201 
  20      FB0E0D00 
  20      01010101 
  21              	.Ltext0:
  22              		.bss
  23              		.align	2
  24              	CyDmaChannels:
  25 0000 00000000 		.space	4
  26              		.section	.text.CyEnterCriticalSection,"ax",%progbits
  27              		.align	2
  28              		.global	CyEnterCriticalSection
  29              		.thumb
  30              		.thumb_func
  31              		.type	CyEnterCriticalSection, %function
  32              	CyEnterCriticalSection:
  33              	.LFB2:
  34              		.file 1 "./Generated_Source/PSoC5/CyDmac.c"
   1:./Generated_Source/PSoC5/CyDmac.c **** /*******************************************************************************
   2:./Generated_Source/PSoC5/CyDmac.c **** * File Name: CyDmac.c  
   3:./Generated_Source/PSoC5/CyDmac.c **** * Version 1.40
   4:./Generated_Source/PSoC5/CyDmac.c **** *
   5:./Generated_Source/PSoC5/CyDmac.c **** *  Description:
   6:./Generated_Source/PSoC5/CyDmac.c **** *   Provides an API for the DMAC component. The API includes functions
   7:./Generated_Source/PSoC5/CyDmac.c **** *   for the DMA controller, DMA channels and Transfer Descriptors.
   8:./Generated_Source/PSoC5/CyDmac.c **** *
   9:./Generated_Source/PSoC5/CyDmac.c **** *   This API is the library version not the auto generated code that gets
  10:./Generated_Source/PSoC5/CyDmac.c **** *   generated when the user places a DMA component on the schematic.
  11:./Generated_Source/PSoC5/CyDmac.c **** *   The auto generated code would use the APi's in this module.
  12:./Generated_Source/PSoC5/CyDmac.c **** *
  13:./Generated_Source/PSoC5/CyDmac.c **** *  Note:
  14:./Generated_Source/PSoC5/CyDmac.c **** *   This code is endian agnostic.
  15:./Generated_Source/PSoC5/CyDmac.c **** *
  16:./Generated_Source/PSoC5/CyDmac.c **** *   The Transfer Descriptor memory can be used as regular memory if the TD's
  17:./Generated_Source/PSoC5/CyDmac.c **** *   are not being used.
  18:./Generated_Source/PSoC5/CyDmac.c **** *
  19:./Generated_Source/PSoC5/CyDmac.c **** *   This code uses the first byte of each TD to manage
ARM GAS  C:\Users\blinky\AppData\Local\Temp/ccaubaaa.s 			page 2


  20:./Generated_Source/PSoC5/CyDmac.c **** *   the free list of TD's. The user can over write this once the TD is
  21:./Generated_Source/PSoC5/CyDmac.c **** *   allocated.
  22:./Generated_Source/PSoC5/CyDmac.c **** *
  23:./Generated_Source/PSoC5/CyDmac.c **** *  Note: 
  24:./Generated_Source/PSoC5/CyDmac.c **** *   Documentation of the API's in this file is located in the
  25:./Generated_Source/PSoC5/CyDmac.c **** *   System Reference Guide provided with PSoC Creator.
  26:./Generated_Source/PSoC5/CyDmac.c **** *  
  27:./Generated_Source/PSoC5/CyDmac.c **** *
  28:./Generated_Source/PSoC5/CyDmac.c **** *******************************************************************************
  29:./Generated_Source/PSoC5/CyDmac.c **** * Copyright 2008-2009, Cypress Semiconductor Corporation.  All rights reserved.
  30:./Generated_Source/PSoC5/CyDmac.c **** * You may use this file only in accordance with the license, terms, conditions, 
  31:./Generated_Source/PSoC5/CyDmac.c **** * disclaimers, and limitations in the end user license agreement accompanying 
  32:./Generated_Source/PSoC5/CyDmac.c **** * the software package with which this file was provided.
  33:./Generated_Source/PSoC5/CyDmac.c **** ********************************************************************************/
  34:./Generated_Source/PSoC5/CyDmac.c **** 
  35:./Generated_Source/PSoC5/CyDmac.c **** 
  36:./Generated_Source/PSoC5/CyDmac.c **** #include <CYDEVICE.H>
  37:./Generated_Source/PSoC5/CyDmac.c **** #include <CYDMAC.H>
  38:./Generated_Source/PSoC5/CyDmac.c **** 
  39:./Generated_Source/PSoC5/CyDmac.c **** 
  40:./Generated_Source/PSoC5/CyDmac.c **** 
  41:./Generated_Source/PSoC5/CyDmac.c **** 
  42:./Generated_Source/PSoC5/CyDmac.c **** /* Current Number of free elements in the list. */
  43:./Generated_Source/PSoC5/CyDmac.c **** static uint8 CyDmaTdCurrentNumber;
  44:./Generated_Source/PSoC5/CyDmac.c **** 
  45:./Generated_Source/PSoC5/CyDmac.c **** /* Index of the first available TD. */
  46:./Generated_Source/PSoC5/CyDmac.c **** static uint8 CyDmaTdFreeIndex;
  47:./Generated_Source/PSoC5/CyDmac.c **** 
  48:./Generated_Source/PSoC5/CyDmac.c **** /* Bit map of DMA channel ownership. */
  49:./Generated_Source/PSoC5/CyDmac.c **** static uint32 CyDmaChannels = DMA_CHANNELS_USED__MASK0;
  50:./Generated_Source/PSoC5/CyDmac.c **** 
  51:./Generated_Source/PSoC5/CyDmac.c **** void CyEnterCriticalSection(void);
  52:./Generated_Source/PSoC5/CyDmac.c **** void CyExitCriticalSection(void);
  53:./Generated_Source/PSoC5/CyDmac.c **** 
  54:./Generated_Source/PSoC5/CyDmac.c **** void CyEnterCriticalSection(void)
  55:./Generated_Source/PSoC5/CyDmac.c **** {
  35              	= 0, frame = 0
  36              		@ frame_needed = 1, uses_anonymous_args = 0
  37              		@ link register save eliminated.
  38              		push	{r7}
  39 0000 80B4     	.LCFI0:
  40              		add	r7, sp, #0
  41 0002 00AF     	.LCFI1:
  42              		@ lr needed for prologue
  43              		.loc 1 56 0
  56:./Generated_Source/PSoC5/CyDmac.c **** }
  44              	r7
  45 0004 BD46     		pop	{r7}
  46 0006 80BC     		bx	lr
  47 0008 7047     	.LFE2:
  48              		.size	CyEnterCriticalSection, .-CyEnterCriticalSection
  49              		.section	.text.CyExitCriticalSection,"ax",%progbits
  50 000a C046     		.align	2
  51              		.global	CyExitCriticalSection
  52              		.thumb
  53              		.thumb_func
  54              		.type	CyExitCriticalSection, %function
ARM GAS  C:\Users\blinky\AppData\Local\Temp/ccaubaaa.s 			page 3


  55              	CyExitCriticalSection:
  56              	.LFB3:
  57              		.loc 1 59 0
  57:./Generated_Source/PSoC5/CyDmac.c **** 
  58:./Generated_Source/PSoC5/CyDmac.c **** void CyExitCriticalSection(void)
  59:./Generated_Source/PSoC5/CyDmac.c **** {
  58              	retend = 0, frame = 0
  59              		@ frame_needed = 1, uses_anonymous_args = 0
  60              		@ link register save eliminated.
  61              		push	{r7}
  62 0000 80B4     	.LCFI2:
  63              		add	r7, sp, #0
  64 0002 00AF     	.LCFI3:
  65              		@ lr needed for prologue
  66              		.loc 1 60 0
  60:./Generated_Source/PSoC5/CyDmac.c **** }
  67              	r7
  68 0004 BD46     		pop	{r7}
  69 0006 80BC     		bx	lr
  70 0008 7047     	.LFE3:
  71              		.size	CyExitCriticalSection, .-CyExitCriticalSection
  72              		.section	.text.CyDmacConfigure,"ax",%progbits
  73 000a C046     		.align	2
  74              		.global	CyDmacConfigure
  75              		.thumb
  76              		.thumb_func
  77              		.type	CyDmacConfigure, %function
  78              	CyDmacConfigure:
  79              	.LFB4:
  80              		.loc 1 80 0
  61:./Generated_Source/PSoC5/CyDmac.c **** 
  62:./Generated_Source/PSoC5/CyDmac.c **** 
  63:./Generated_Source/PSoC5/CyDmac.c **** /*******************************************************************************
  64:./Generated_Source/PSoC5/CyDmac.c **** * Function Name: CyDmacConfigure
  65:./Generated_Source/PSoC5/CyDmac.c **** ********************************************************************************
  66:./Generated_Source/PSoC5/CyDmac.c **** * Summary:
  67:./Generated_Source/PSoC5/CyDmac.c **** *   Sets the DMAC Configuration register with the default values.
  68:./Generated_Source/PSoC5/CyDmac.c **** *   Initializes the linked list of Transfer Descriptors.
  69:./Generated_Source/PSoC5/CyDmac.c **** *
  70:./Generated_Source/PSoC5/CyDmac.c **** * Parameters:
  71:./Generated_Source/PSoC5/CyDmac.c **** *   void.
  72:./Generated_Source/PSoC5/CyDmac.c **** *
  73:./Generated_Source/PSoC5/CyDmac.c **** *
  74:./Generated_Source/PSoC5/CyDmac.c **** * Return:
  75:./Generated_Source/PSoC5/CyDmac.c **** *   void.
  76:./Generated_Source/PSoC5/CyDmac.c **** *
  77:./Generated_Source/PSoC5/CyDmac.c **** *
  78:./Generated_Source/PSoC5/CyDmac.c **** *******************************************************************************/
  79:./Generated_Source/PSoC5/CyDmac.c **** void CyDmacConfigure(void)
  80:./Generated_Source/PSoC5/CyDmac.c **** {
  81              	retend = 0, frame = 8
  82              		@ frame_needed = 1, uses_anonymous_args = 0
  83              		@ link register save eliminated.
  84              		push	{r7}
  85 0000 80B4     	.LCFI4:
  86              		sub	sp, sp, #12
  87 0002 83B0     	.LCFI5:
ARM GAS  C:\Users\blinky\AppData\Local\Temp/ccaubaaa.s 			page 4


  88              		add	r7, sp, #0
  89 0004 00AF     	.LCFI6:
  90              		@ lr needed for prologue
  91              		.loc 1 85 0
  81:./Generated_Source/PSoC5/CyDmac.c ****     uint8 index;
  82:./Generated_Source/PSoC5/CyDmac.c **** 
  83:./Generated_Source/PSoC5/CyDmac.c **** 
  84:./Generated_Source/PSoC5/CyDmac.c ****     /* Set TD list variables. */
  85:./Generated_Source/PSoC5/CyDmac.c ****     CyDmaTdFreeIndex = NUMBEROF_TDS - 1;
  92              	10
  93 0006 174A     		mov	r3, #127
  94 0008 4FF07F03 		strb	r3, [r2, #0]
  95 000c 1370     		.loc 1 86 0
  86:./Generated_Source/PSoC5/CyDmac.c ****     CyDmaTdCurrentNumber = NUMBEROF_TDS;
  96              		r2, .L10+4
  97 000e 164A     		mvn	r3, #127
  98 0010 6FF07F03 		strb	r3, [r2, #0]
  99 0014 1370     		.loc 1 89 0
  87:./Generated_Source/PSoC5/CyDmac.c **** 
  88:./Generated_Source/PSoC5/CyDmac.c ****     /* Make TD free list. */
  89:./Generated_Source/PSoC5/CyDmac.c ****     for(index = NUMBEROF_TDS - 1; index; index--)
 100              		r3, #127
 101 0016 4FF07F03 		strb	r3, [r7, #7]
 102 001a FB71     		b	.L6
 103 001c 0FE0     	.L7:
 104              		.loc 1 91 0
  90:./Generated_Source/PSoC5/CyDmac.c ****     {
  91:./Generated_Source/PSoC5/CyDmac.c ****         DMAC_TDMEM[index].TD0[0] = index - 1;
 105              		r3, [r7, #7]	@ zero_extendqisi2
 106 001e FB79     		lsl	r3, r3, #3
 107 0020 4FEAC303 		add	r2, r3, #1073741824
 108 0024 03F18042 		add	r2, r2, #30720
 109 0028 02F5F042 		ldrb	r3, [r7, #7]
 110 002c FB79     		add	r3, r3, #-1
 111 002e 03F1FF33 		uxtb	r3, r3
 112 0032 DBB2     		strb	r3, [r2, #0]
 113 0034 1370     		.loc 1 89 0
 114              		ldrb	r3, [r7, #7]
 115 0036 FB79     		add	r3, r3, #-1
 116 0038 03F1FF33 		strb	r3, [r7, #7]
 117 003c FB71     	.L6:
 118              		ldrb	r3, [r7, #7]	@ zero_extendqisi2
 119 003e FB79     		cmp	r3, #0
 120 0040 002B     		bne	.L7
 121 0042 ECD1     		.loc 1 95 0
  92:./Generated_Source/PSoC5/CyDmac.c ****     }
  93:./Generated_Source/PSoC5/CyDmac.c **** 
  94:./Generated_Source/PSoC5/CyDmac.c ****     /* Make the last one point to zero. */
  95:./Generated_Source/PSoC5/CyDmac.c ****     DMAC_TDMEM[index].TD0[0] = 0;
 122              	]	@ zero_extendqisi2
 123 0044 FB79     		lsl	r3, r3, #3
 124 0046 4FEAC303 		add	r3, r3, #1073741824
 125 004a 03F18043 		add	r3, r3, #30720
 126 004e 03F5F043 		mov	r2, #0
 127 0052 4FF00002 		strb	r2, [r3, #0]
 128 0056 1A70     		.loc 1 96 0
  96:./Generated_Source/PSoC5/CyDmac.c **** }
ARM GAS  C:\Users\blinky\AppData\Local\Temp/ccaubaaa.s 			page 5


 129              	, r7, #12
 130 0058 07F10C07 		mov	sp, r7
 131 005c BD46     		pop	{r7}
 132 005e 80BC     		bx	lr
 133 0060 7047     	.L11:
 134              		.align	2
 135 0062 C046     	.L10:
 136              		.word	CyDmaTdFreeIndex
 137 0064 05000000 		.word	CyDmaTdCurrentNumber
 138 0068 04000000 	.LFE4:
 139              		.size	CyDmacConfigure, .-CyDmacConfigure
 140              		.section	.text.CyDmacError,"ax",%progbits
 141              		.align	2
 142              		.global	CyDmacError
 143              		.thumb
 144              		.thumb_func
 145              		.type	CyDmacError, %function
 146              	CyDmacError:
 147              	.LFB5:
 148              		.loc 1 118 0
  97:./Generated_Source/PSoC5/CyDmac.c **** 
  98:./Generated_Source/PSoC5/CyDmac.c **** 
  99:./Generated_Source/PSoC5/CyDmac.c **** /*******************************************************************************
 100:./Generated_Source/PSoC5/CyDmac.c **** * Function Name: CyDmacError
 101:./Generated_Source/PSoC5/CyDmac.c **** ********************************************************************************
 102:./Generated_Source/PSoC5/CyDmac.c **** * Summary:
 103:./Generated_Source/PSoC5/CyDmac.c **** * Gets the error bits from the DMAC.
 104:./Generated_Source/PSoC5/CyDmac.c **** *
 105:./Generated_Source/PSoC5/CyDmac.c **** * Parameters:
 106:./Generated_Source/PSoC5/CyDmac.c **** *   void.
 107:./Generated_Source/PSoC5/CyDmac.c **** *
 108:./Generated_Source/PSoC5/CyDmac.c **** *
 109:./Generated_Source/PSoC5/CyDmac.c **** *
 110:./Generated_Source/PSoC5/CyDmac.c **** * Return:
 111:./Generated_Source/PSoC5/CyDmac.c **** *   Returns the 4 bits of error data from the DMAC error register.
 112:./Generated_Source/PSoC5/CyDmac.c **** *
 113:./Generated_Source/PSoC5/CyDmac.c **** *   should each bit get described here?
 114:./Generated_Source/PSoC5/CyDmac.c **** *
 115:./Generated_Source/PSoC5/CyDmac.c **** *
 116:./Generated_Source/PSoC5/CyDmac.c **** *******************************************************************************/
 117:./Generated_Source/PSoC5/CyDmac.c **** uint8 CyDmacError(void)
 118:./Generated_Source/PSoC5/CyDmac.c **** {
 149              	 = 0, frame = 0
 150              		@ frame_needed = 1, uses_anonymous_args = 0
 151              		@ link register save eliminated.
 152              		push	{r7}
 153 0000 80B4     	.LCFI7:
 154              		add	r7, sp, #0
 155 0002 00AF     	.LCFI8:
 156              		@ lr needed for prologue
 157              		.loc 1 119 0
 119:./Generated_Source/PSoC5/CyDmac.c ****     return (0x0Fu & *DMAC_ERR);
 158              	.L14
 159 0004 044B     		ldr	r3, [r3, #0]
 160 0006 1B68     		uxtb	r3, r3
 161 0008 DBB2     		and	r3, r3, #15
 162 000a 03F00F03 		.loc 1 120 0
ARM GAS  C:\Users\blinky\AppData\Local\Temp/ccaubaaa.s 			page 6


 120:./Generated_Source/PSoC5/CyDmac.c **** }
 163              	r0, r3
 164 000e 1846     		mov	sp, r7
 165 0010 BD46     		pop	{r7}
 166 0012 80BC     		bx	lr
 167 0014 7047     	.L15:
 168              		.align	2
 169 0016 C046     	.L14:
 170              		.word	1073770500
 171 0018 04700040 	.LFE5:
 172              		.size	CyDmacError, .-CyDmacError
 173              		.section	.text.CyDmacClearError,"ax",%progbits
 174              		.align	2
 175              		.global	CyDmacClearError
 176              		.thumb
 177              		.thumb_func
 178              		.type	CyDmacClearError, %function
 179              	CyDmacClearError:
 180              	.LFB6:
 181              		.loc 1 144 0
 121:./Generated_Source/PSoC5/CyDmac.c **** 
 122:./Generated_Source/PSoC5/CyDmac.c **** 
 123:./Generated_Source/PSoC5/CyDmac.c **** /*******************************************************************************
 124:./Generated_Source/PSoC5/CyDmac.c **** * Function Name: CyDmacClearError
 125:./Generated_Source/PSoC5/CyDmac.c **** ********************************************************************************
 126:./Generated_Source/PSoC5/CyDmac.c **** * Summary:
 127:./Generated_Source/PSoC5/CyDmac.c **** *   Clears the error bits in the error register of the DMAC..
 128:./Generated_Source/PSoC5/CyDmac.c **** *
 129:./Generated_Source/PSoC5/CyDmac.c **** * Parameters:
 130:./Generated_Source/PSoC5/CyDmac.c **** * error:
 131:./Generated_Source/PSoC5/CyDmac.c **** *   Clears the error bits in the DMAC error register.
 132:./Generated_Source/PSoC5/CyDmac.c **** *
 133:./Generated_Source/PSoC5/CyDmac.c **** *
 134:./Generated_Source/PSoC5/CyDmac.c **** *
 135:./Generated_Source/PSoC5/CyDmac.c **** * Return:
 136:./Generated_Source/PSoC5/CyDmac.c **** *   void.
 137:./Generated_Source/PSoC5/CyDmac.c **** *
 138:./Generated_Source/PSoC5/CyDmac.c **** * Theory:
 139:./Generated_Source/PSoC5/CyDmac.c **** *   Once an error occurs the error bits are sticky and are only cleared
 140:./Generated_Source/PSoC5/CyDmac.c **** *   by a write to the error register.
 141:./Generated_Source/PSoC5/CyDmac.c **** *
 142:./Generated_Source/PSoC5/CyDmac.c **** *******************************************************************************/
 143:./Generated_Source/PSoC5/CyDmac.c **** void CyDmacClearError(uint8 error)
 144:./Generated_Source/PSoC5/CyDmac.c **** {
 182              	d = 0, frame = 8
 183              		@ frame_needed = 1, uses_anonymous_args = 0
 184              		@ link register save eliminated.
 185              		push	{r7}
 186 0000 80B4     	.LCFI9:
 187              		sub	sp, sp, #12
 188 0002 83B0     	.LCFI10:
 189              		add	r7, sp, #0
 190 0004 00AF     	.LCFI11:
 191              		@ lr needed for prologue
 192              		mov	r3, r0
 193 0006 0346     		strb	r3, [r7, #7]
 194 0008 FB71     		.loc 1 145 0
ARM GAS  C:\Users\blinky\AppData\Local\Temp/ccaubaaa.s 			page 7


 145:./Generated_Source/PSoC5/CyDmac.c ****     *DMAC_ERR = 0x0Fu & error;
 195              	
 196 000a 054A     		ldrb	r3, [r7, #7]	@ zero_extendqisi2
 197 000c FB79     		and	r3, r3, #15
 198 000e 03F00F03 		str	r3, [r2, #0]
 199 0012 1360     		.loc 1 146 0
 146:./Generated_Source/PSoC5/CyDmac.c **** }
 200              		r7, r7, #12
 201 0014 07F10C07 		mov	sp, r7
 202 0018 BD46     		pop	{r7}
 203 001a 80BC     		bx	lr
 204 001c 7047     	.L19:
 205              		.align	2
 206 001e C046     	.L18:
 207              		.word	1073770500
 208 0020 04700040 	.LFE6:
 209              		.size	CyDmacClearError, .-CyDmacClearError
 210              		.section	.text.CyDmacErrorAddress,"ax",%progbits
 211              		.align	2
 212              		.global	CyDmacErrorAddress
 213              		.thumb
 214              		.thumb_func
 215              		.type	CyDmacErrorAddress, %function
 216              	CyDmacErrorAddress:
 217              	.LFB7:
 218              		.loc 1 171 0
 147:./Generated_Source/PSoC5/CyDmac.c **** 
 148:./Generated_Source/PSoC5/CyDmac.c **** 
 149:./Generated_Source/PSoC5/CyDmac.c **** /*******************************************************************************
 150:./Generated_Source/PSoC5/CyDmac.c **** * Function Name: CyDmacErrorAddress
 151:./Generated_Source/PSoC5/CyDmac.c **** ********************************************************************************
 152:./Generated_Source/PSoC5/CyDmac.c **** * Summary:
 153:./Generated_Source/PSoC5/CyDmac.c **** *   when an BUS_TIMEOUT, UNPOP_ACC and PERIPH_ERR occurs the address
 154:./Generated_Source/PSoC5/CyDmac.c **** *   of the error is written to the error address register and
 155:./Generated_Source/PSoC5/CyDmac.c **** *   can be read with this function.
 156:./Generated_Source/PSoC5/CyDmac.c **** *
 157:./Generated_Source/PSoC5/CyDmac.c **** *   If there are multiple errors, only the address of the first is
 158:./Generated_Source/PSoC5/CyDmac.c **** *   saved.
 159:./Generated_Source/PSoC5/CyDmac.c **** *
 160:./Generated_Source/PSoC5/CyDmac.c **** * Parameters:
 161:./Generated_Source/PSoC5/CyDmac.c **** *   void.
 162:./Generated_Source/PSoC5/CyDmac.c **** *
 163:./Generated_Source/PSoC5/CyDmac.c **** *
 164:./Generated_Source/PSoC5/CyDmac.c **** *
 165:./Generated_Source/PSoC5/CyDmac.c **** * Return:
 166:./Generated_Source/PSoC5/CyDmac.c **** *   The address that caused the error.
 167:./Generated_Source/PSoC5/CyDmac.c **** *
 168:./Generated_Source/PSoC5/CyDmac.c **** *
 169:./Generated_Source/PSoC5/CyDmac.c **** *******************************************************************************/
 170:./Generated_Source/PSoC5/CyDmac.c **** uint32 CyDmacErrorAddress(void)
 171:./Generated_Source/PSoC5/CyDmac.c **** {
 219              	d = 0, frame = 0
 220              		@ frame_needed = 1, uses_anonymous_args = 0
 221              		@ link register save eliminated.
 222              		push	{r7}
 223 0000 80B4     	.LCFI12:
 224              		add	r7, sp, #0
ARM GAS  C:\Users\blinky\AppData\Local\Temp/ccaubaaa.s 			page 8


 225 0002 00AF     	.LCFI13:
 226              		@ lr needed for prologue
 227              		.loc 1 172 0
 172:./Generated_Source/PSoC5/CyDmac.c ****     return CY_GET_REG32(DMAC_ERR_ADR);
 228              	.L22
 229 0004 024B     		ldr	r3, [r3, #0]
 230 0006 1B68     		.loc 1 173 0
 173:./Generated_Source/PSoC5/CyDmac.c **** }
 231              	v	r0, r3
 232 0008 1846     		mov	sp, r7
 233 000a BD46     		pop	{r7}
 234 000c 80BC     		bx	lr
 235 000e 7047     	.L23:
 236              		.align	2
 237              	.L22:
 238              		.word	1073770504
 239 0010 08700040 	.LFE7:
 240              		.size	CyDmacErrorAddress, .-CyDmacErrorAddress
 241              		.section	.text.CyDmaChAlloc,"ax",%progbits
 242              		.align	2
 243              		.global	CyDmaChAlloc
 244              		.thumb
 245              		.thumb_func
 246              		.type	CyDmaChAlloc, %function
 247              	CyDmaChAlloc:
 248              	.LFB8:
 249              		.loc 1 194 0
 174:./Generated_Source/PSoC5/CyDmac.c **** 
 175:./Generated_Source/PSoC5/CyDmac.c **** 
 176:./Generated_Source/PSoC5/CyDmac.c **** /*******************************************************************************
 177:./Generated_Source/PSoC5/CyDmac.c **** * Function Name: CyDmaChAlloc
 178:./Generated_Source/PSoC5/CyDmac.c **** ********************************************************************************
 179:./Generated_Source/PSoC5/CyDmac.c **** * Summary:
 180:./Generated_Source/PSoC5/CyDmac.c **** *   Allocates a channel of the DMAC to be used by the caller.
 181:./Generated_Source/PSoC5/CyDmac.c **** *
 182:./Generated_Source/PSoC5/CyDmac.c **** * Parameters:
 183:./Generated_Source/PSoC5/CyDmac.c **** *   void.
 184:./Generated_Source/PSoC5/CyDmac.c **** *
 185:./Generated_Source/PSoC5/CyDmac.c **** *
 186:./Generated_Source/PSoC5/CyDmac.c **** *
 187:./Generated_Source/PSoC5/CyDmac.c **** * Return:
 188:./Generated_Source/PSoC5/CyDmac.c **** *   The channel that can be used by the caller for DMA activity.
 189:./Generated_Source/PSoC5/CyDmac.c **** *   DMA_INVALID_CHANNEL if there are no channels left. 
 190:./Generated_Source/PSoC5/CyDmac.c **** *
 191:./Generated_Source/PSoC5/CyDmac.c **** *
 192:./Generated_Source/PSoC5/CyDmac.c **** *******************************************************************************/
 193:./Generated_Source/PSoC5/CyDmac.c **** uint8 CyDmaChAlloc(void)
 194:./Generated_Source/PSoC5/CyDmac.c **** {
 250              	d = 0, frame = 8
 251              		@ frame_needed = 1, uses_anonymous_args = 0
 252              		push	{r7, lr}
 253 0000 80B5     	.LCFI14:
 254              		sub	sp, sp, #8
 255 0002 82B0     	.LCFI15:
 256              		add	r7, sp, #0
 257 0004 00AF     	.LCFI16:
 258              		.loc 1 200 0
ARM GAS  C:\Users\blinky\AppData\Local\Temp/ccaubaaa.s 			page 9


 195:./Generated_Source/PSoC5/CyDmac.c ****     uint8 index;
 196:./Generated_Source/PSoC5/CyDmac.c ****     uint32 channel;
 197:./Generated_Source/PSoC5/CyDmac.c **** 
 198:./Generated_Source/PSoC5/CyDmac.c **** 
 199:./Generated_Source/PSoC5/CyDmac.c ****     /* Enter critical section! */
 200:./Generated_Source/PSoC5/CyDmac.c ****     CyEnterCriticalSection();
 259              	erCriticalSection
 260 0006 FFF7FEFF 		.loc 1 203 0
 201:./Generated_Source/PSoC5/CyDmac.c **** 
 202:./Generated_Source/PSoC5/CyDmac.c ****     /* Look for a free channel. */
 203:./Generated_Source/PSoC5/CyDmac.c ****     for(index = 0, channel = 1; index < NUMBEROF_CHANNELS; index++, channel <<= 1)
 261              	ov	r3, #0
 262 000a 4FF00003 		strb	r3, [r7, #3]
 263 000e FB70     		mov	r3, #1
 264 0010 4FF00103 		str	r3, [r7, #4]
 265 0014 7B60     		b	.L25
 266 0016 16E0     	.L26:
 267              		.loc 1 205 0
 204:./Generated_Source/PSoC5/CyDmac.c ****     {
 205:./Generated_Source/PSoC5/CyDmac.c ****         if(!(CyDmaChannels & channel))
 268              	, .L33
 269 0018 134B     		ldr	r2, [r3, #0]
 270 001a 1A68     		ldr	r3, [r7, #4]
 271 001c 7B68     		and	r3, r2, r3
 272 001e 02EA0303 		cmp	r3, #0
 273 0022 002B     		bne	.L27
 274 0024 07D1     		.loc 1 208 0
 206:./Generated_Source/PSoC5/CyDmac.c ****         {
 207:./Generated_Source/PSoC5/CyDmac.c ****             /* Mark the channel as used. */
 208:./Generated_Source/PSoC5/CyDmac.c ****             CyDmaChannels |= channel;
 275              	, .L33
 276 0026 104B     		ldr	r2, [r3, #0]
 277 0028 1A68     		ldr	r3, [r7, #4]
 278 002a 7B68     		orr	r2, r2, r3
 279 002c 42EA0302 		ldr	r3, .L33
 280 0030 0D4B     		str	r2, [r3, #0]
 281 0032 1A60     		.loc 1 209 0
 209:./Generated_Source/PSoC5/CyDmac.c ****             break;
 282              	
 283 0034 0AE0     	.L27:
 284              		.loc 1 203 0
 285              		ldrb	r3, [r7, #3]
 286 0036 FB78     		add	r3, r3, #1
 287 0038 03F10103 		strb	r3, [r7, #3]
 288 003c FB70     		ldr	r3, [r7, #4]
 289 003e 7B68     		lsl	r3, r3, #1
 290 0040 4FEA4303 		str	r3, [r7, #4]
 291 0044 7B60     	.L25:
 292              		ldrb	r3, [r7, #3]	@ zero_extendqisi2
 293 0046 FB78     		cmp	r3, #23
 294 0048 172B     		bls	.L26
 295 004a E5D9     	.L29:
 296              		.loc 1 213 0
 210:./Generated_Source/PSoC5/CyDmac.c ****         }
 211:./Generated_Source/PSoC5/CyDmac.c ****     }
 212:./Generated_Source/PSoC5/CyDmac.c **** 
 213:./Generated_Source/PSoC5/CyDmac.c ****     if(index >= NUMBEROF_CHANNELS)
ARM GAS  C:\Users\blinky\AppData\Local\Temp/ccaubaaa.s 			page 10


 297              	 #3]	@ zero_extendqisi2
 298 004c FB78     		cmp	r3, #23
 299 004e 172B     		bls	.L30
 300 0050 02D9     		.loc 1 215 0
 214:./Generated_Source/PSoC5/CyDmac.c ****     {
 215:./Generated_Source/PSoC5/CyDmac.c ****         index = DMA_INVALID_CHANNEL;    
 301              		r3, #-1
 302 0052 4FF0FF33 		strb	r3, [r7, #3]
 303 0056 FB70     	.L30:
 304              		.loc 1 219 0
 216:./Generated_Source/PSoC5/CyDmac.c ****     }
 217:./Generated_Source/PSoC5/CyDmac.c **** 
 218:./Generated_Source/PSoC5/CyDmac.c ****     /* Exit critical section! */
 219:./Generated_Source/PSoC5/CyDmac.c ****     CyExitCriticalSection();
 305              	CyExitCriticalSection
 306 0058 FFF7FEFF 		.loc 1 221 0
 220:./Generated_Source/PSoC5/CyDmac.c **** 
 221:./Generated_Source/PSoC5/CyDmac.c ****     return index;
 307              	drb	r3, [r7, #3]	@ zero_extendqisi2
 308 005c FB78     		.loc 1 222 0
 222:./Generated_Source/PSoC5/CyDmac.c **** }
 309              	ov	r0, r3
 310 005e 1846     		add	r7, r7, #8
 311 0060 07F10807 		mov	sp, r7
 312 0064 BD46     		pop	{r7, pc}
 313 0066 80BD     	.L34:
 314              		.align	2
 315              	.L33:
 316              		.word	CyDmaChannels
 317 0068 00000000 	.LFE8:
 318              		.size	CyDmaChAlloc, .-CyDmaChAlloc
 319              		.section	.text.CyDmaChFree,"ax",%progbits
 320              		.align	2
 321              		.global	CyDmaChFree
 322              		.thumb
 323              		.thumb_func
 324              		.type	CyDmaChFree, %function
 325              	CyDmaChFree:
 326              	.LFB9:
 327              		.loc 1 242 0
 223:./Generated_Source/PSoC5/CyDmac.c **** 
 224:./Generated_Source/PSoC5/CyDmac.c **** 
 225:./Generated_Source/PSoC5/CyDmac.c **** /*******************************************************************************
 226:./Generated_Source/PSoC5/CyDmac.c **** * Function Name: CyDmaChFree
 227:./Generated_Source/PSoC5/CyDmac.c **** ********************************************************************************
 228:./Generated_Source/PSoC5/CyDmac.c **** * Summary:
 229:./Generated_Source/PSoC5/CyDmac.c **** * Frees a channel allocated by DmaChAlloc.
 230:./Generated_Source/PSoC5/CyDmac.c **** *
 231:./Generated_Source/PSoC5/CyDmac.c **** * Parameters:
 232:./Generated_Source/PSoC5/CyDmac.c **** * chHandle:
 233:./Generated_Source/PSoC5/CyDmac.c **** *   Handle to the DMA channel previously allocated by a call to DmaChAlloc.
 234:./Generated_Source/PSoC5/CyDmac.c **** *
 235:./Generated_Source/PSoC5/CyDmac.c **** *
 236:./Generated_Source/PSoC5/CyDmac.c **** * Return:
 237:./Generated_Source/PSoC5/CyDmac.c **** *   0 in successful or CYRET_BAD_PARAM.
 238:./Generated_Source/PSoC5/CyDmac.c **** *
 239:./Generated_Source/PSoC5/CyDmac.c **** *
ARM GAS  C:\Users\blinky\AppData\Local\Temp/ccaubaaa.s 			page 11


 240:./Generated_Source/PSoC5/CyDmac.c **** *******************************************************************************/
 241:./Generated_Source/PSoC5/CyDmac.c **** cystatus CyDmaChFree(uint8 chHandle)
 242:./Generated_Source/PSoC5/CyDmac.c **** {
 328              	d = 0, frame = 16
 329              		@ frame_needed = 1, uses_anonymous_args = 0
 330              		push	{r7, lr}
 331 0000 80B5     	.LCFI17:
 332              		sub	sp, sp, #16
 333 0002 84B0     	.LCFI18:
 334              		add	r7, sp, #0
 335 0004 00AF     	.LCFI19:
 336              		mov	r3, r0
 337 0006 0346     		strb	r3, [r7, #7]
 338 0008 FB71     		.loc 1 246 0
 243:./Generated_Source/PSoC5/CyDmac.c ****     cystatus status;
 244:./Generated_Source/PSoC5/CyDmac.c **** 
 245:./Generated_Source/PSoC5/CyDmac.c **** 
 246:./Generated_Source/PSoC5/CyDmac.c ****     if(chHandle < NUMBEROF_CHANNELS)
 339              	r7, #7]	@ zero_extendqisi2
 340 000a FB79     		cmp	r3, #23
 341 000c 172B     		bhi	.L36
 342 000e 15D8     		.loc 1 249 0
 247:./Generated_Source/PSoC5/CyDmac.c ****     {
 248:./Generated_Source/PSoC5/CyDmac.c ****         /* Enter critical section! */
 249:./Generated_Source/PSoC5/CyDmac.c ****         CyEnterCriticalSection();
 343              	CyEnterCriticalSection
 344 0010 FFF7FEFF 		.loc 1 252 0
 250:./Generated_Source/PSoC5/CyDmac.c **** 
 251:./Generated_Source/PSoC5/CyDmac.c ****         /* Clear the bit mask that keeps track of ownership. */
 252:./Generated_Source/PSoC5/CyDmac.c ****         CyDmaChannels &= ~(1 << chHandle);
 345              	drb	r2, [r7, #7]	@ zero_extendqisi2
 346 0014 FA79     		mov	r3, #1
 347 0016 4FF00103 		lsl	r3, r3, r2
 348 001a 03FA02F3 		mvn	r3, r3
 349 001e 6FEA0303 		mov	r2, r3
 350 0022 1A46     		ldr	r3, .L40
 351 0024 0A4B     		ldr	r3, [r3, #0]
 352 0026 1B68     		and	r2, r2, r3
 353 0028 02EA0302 		ldr	r3, .L40
 354 002c 084B     		str	r2, [r3, #0]
 355 002e 1A60     		.loc 1 255 0
 253:./Generated_Source/PSoC5/CyDmac.c **** 
 254:./Generated_Source/PSoC5/CyDmac.c ****         /* Exit critical section! */
 255:./Generated_Source/PSoC5/CyDmac.c ****         CyExitCriticalSection();
 356              	riticalSection
 357 0030 FFF7FEFF 		.loc 1 256 0
 256:./Generated_Source/PSoC5/CyDmac.c ****         status = CYRET_SUCCESS;
 358              	ov	r3, #0
 359 0034 4FF00003 		str	r3, [r7, #12]
 360 0038 FB60     		b	.L38
 361 003a 02E0     	.L36:
 362              		.loc 1 260 0
 257:./Generated_Source/PSoC5/CyDmac.c ****     }
 258:./Generated_Source/PSoC5/CyDmac.c ****     else
 259:./Generated_Source/PSoC5/CyDmac.c ****     {
 260:./Generated_Source/PSoC5/CyDmac.c ****         status = CYRET_BAD_PARAM;
 363              	r3, #1
ARM GAS  C:\Users\blinky\AppData\Local\Temp/ccaubaaa.s 			page 12


 364 003c 4FF00103 		str	r3, [r7, #12]
 365 0040 FB60     	.L38:
 366              		.loc 1 263 0
 261:./Generated_Source/PSoC5/CyDmac.c ****     }
 262:./Generated_Source/PSoC5/CyDmac.c **** 
 263:./Generated_Source/PSoC5/CyDmac.c ****     return status;
 367              		r3, [r7, #12]
 368 0042 FB68     		.loc 1 264 0
 264:./Generated_Source/PSoC5/CyDmac.c **** }
 369              	ov	r0, r3
 370 0044 1846     		add	r7, r7, #16
 371 0046 07F11007 		mov	sp, r7
 372 004a BD46     		pop	{r7, pc}
 373 004c 80BD     	.L41:
 374              		.align	2
 375 004e C046     	.L40:
 376              		.word	CyDmaChannels
 377 0050 00000000 	.LFE9:
 378              		.size	CyDmaChFree, .-CyDmaChFree
 379              		.section	.text.CyDmaChEnable,"ax",%progbits
 380              		.align	2
 381              		.global	CyDmaChEnable
 382              		.thumb
 383              		.thumb_func
 384              		.type	CyDmaChEnable, %function
 385              	CyDmaChEnable:
 386              	.LFB10:
 387              		.loc 1 287 0
 265:./Generated_Source/PSoC5/CyDmac.c **** 
 266:./Generated_Source/PSoC5/CyDmac.c **** 
 267:./Generated_Source/PSoC5/CyDmac.c **** /*******************************************************************************
 268:./Generated_Source/PSoC5/CyDmac.c **** * Function Name: CyDmaChEnable
 269:./Generated_Source/PSoC5/CyDmac.c **** ********************************************************************************
 270:./Generated_Source/PSoC5/CyDmac.c **** * Summary:
 271:./Generated_Source/PSoC5/CyDmac.c **** * Enables the DMA channel for execution depending on how it was configured.
 272:./Generated_Source/PSoC5/CyDmac.c **** *
 273:./Generated_Source/PSoC5/CyDmac.c **** * Parameters:
 274:./Generated_Source/PSoC5/CyDmac.c **** * chHandle:
 275:./Generated_Source/PSoC5/CyDmac.c **** *   Handle to the dma channel to be enabled.
 276:./Generated_Source/PSoC5/CyDmac.c **** *
 277:./Generated_Source/PSoC5/CyDmac.c **** * preserveTds;
 278:./Generated_Source/PSoC5/CyDmac.c **** *   0 if elements of TD should reflect current state of TD execuction.
 279:./Generated_Source/PSoC5/CyDmac.c **** *   1 if the DMA controller should not change values of the TD.
 280:./Generated_Source/PSoC5/CyDmac.c **** *
 281:./Generated_Source/PSoC5/CyDmac.c **** * Return:
 282:./Generated_Source/PSoC5/CyDmac.c **** *   0 in successful or CYRET_BAD_PARAM.
 283:./Generated_Source/PSoC5/CyDmac.c **** *
 284:./Generated_Source/PSoC5/CyDmac.c **** *
 285:./Generated_Source/PSoC5/CyDmac.c **** *******************************************************************************/
 286:./Generated_Source/PSoC5/CyDmac.c **** cystatus CyDmaChEnable(uint8 chHandle, uint8 preserveTds)
 287:./Generated_Source/PSoC5/CyDmac.c **** {
 388              	d = 0, frame = 24
 389              		@ frame_needed = 1, uses_anonymous_args = 0
 390              		@ link register save eliminated.
 391              		push	{r7}
 392 0000 80B4     	.LCFI20:
 393              		sub	sp, sp, #28
ARM GAS  C:\Users\blinky\AppData\Local\Temp/ccaubaaa.s 			page 13


 394 0002 87B0     	.LCFI21:
 395              		add	r7, sp, #0
 396 0004 00AF     	.LCFI22:
 397              		@ lr needed for prologue
 398              		mov	r3, r0
 399 0006 0346     		mov	r2, r1
 400 0008 0A46     		strb	r3, [r7, #15]
 401 000a FB73     		mov	r3, r2
 402 000c 1346     		strb	r3, [r7, #14]
 403 000e BB73     		.loc 1 291 0
 288:./Generated_Source/PSoC5/CyDmac.c ****     cystatus status;
 289:./Generated_Source/PSoC5/CyDmac.c **** 
 290:./Generated_Source/PSoC5/CyDmac.c **** 
 291:./Generated_Source/PSoC5/CyDmac.c ****     if(chHandle < NUMBEROF_CHANNELS)
 404              	15]	@ zero_extendqisi2
 405 0010 FB7B     		cmp	r3, #23
 406 0012 172B     		bhi	.L43
 407 0014 28D8     		.loc 1 293 0
 292:./Generated_Source/PSoC5/CyDmac.c ****     {
 293:./Generated_Source/PSoC5/CyDmac.c ****         DMAC_CH[chHandle].basic_cfg[0] = (DMAC_CH[chHandle].basic_cfg[0] &  ~0x20u) | ((preserveTds
 408              	b	r3, [r7, #15]	@ zero_extendqisi2
 409 0016 FB7B     		lsl	r3, r3, #4
 410 0018 4FEA0313 		ldr	r1, .L50
 411 001c 1749     		str	r1, [r7, #0]
 412 001e 3960     		ldr	r2, [r7, #0]
 413 0020 3A68     		add	r2, r3, r2
 414 0022 1A44     		str	r2, [r7, #0]
 415 0024 3A60     		ldrb	r3, [r7, #15]	@ zero_extendqisi2
 416 0026 FB7B     		lsl	r3, r3, #4
 417 0028 4FEA0313 		mov	r2, r3
 418 002c 1A46     		ldr	r3, .L50
 419 002e 134B     		add	r3, r2, r3
 420 0030 1344     		ldrb	r3, [r3, #0]	@ zero_extendqisi2
 421 0032 1B78     		str	r3, [r7, #4]
 422 0034 7B60     		ldr	r3, [r7, #4]
 423 0036 7B68     		and	r3, r3, #223
 424 0038 03F0DF03 		str	r3, [r7, #4]
 425 003c 7B60     		ldrb	r3, [r7, #14]	@ zero_extendqisi2
 426 003e BB7B     		cmp	r3, #0
 427 0040 002B     		beq	.L45
 428 0042 03D0     		mov	r1, #33
 429 0044 4FF02101 		str	r1, [r7, #8]
 430 0048 B960     		b	.L47
 431 004a 02E0     	.L45:
 432              		mov	r2, #1
 433 004c 4FF00102 		str	r2, [r7, #8]
 434 0050 BA60     	.L47:
 435              		ldr	r1, [r7, #4]
 436 0052 7968     		ldr	r2, [r7, #8]
 437 0054 BA68     		orr	r3, r1, r2
 438 0056 41EA0203 		uxtb	r3, r3
 439 005a DBB2     		ldr	r1, [r7, #0]
 440 005c 3968     		strb	r3, [r1, #0]
 441 005e 0B70     		.loc 1 294 0
 294:./Generated_Source/PSoC5/CyDmac.c ****         status = CYRET_SUCCESS;
 442              	.L48
 443 0060 4FF00003 	.L43:
ARM GAS  C:\Users\blinky\AppData\Local\Temp/ccaubaaa.s 			page 14


 444 0064 7B61     		.loc 1 298 0
 445 0066 02E0     		mov	r3, #1
 446              		str	r3, [r7, #20]
 295:./Generated_Source/PSoC5/CyDmac.c ****     }
 296:./Generated_Source/PSoC5/CyDmac.c ****     else
 297:./Generated_Source/PSoC5/CyDmac.c ****     {
 298:./Generated_Source/PSoC5/CyDmac.c ****         status = CYRET_BAD_PARAM;
 447              	
 448 0068 4FF00103 		.loc 1 301 0
 449 006c 7B61     		ldr	r3, [r7, #20]
 450              		.loc 1 302 0
 299:./Generated_Source/PSoC5/CyDmac.c ****     }
 300:./Generated_Source/PSoC5/CyDmac.c **** 
 301:./Generated_Source/PSoC5/CyDmac.c ****     return status;
 451              	v	r0, r3
 452 006e 7B69     		add	r7, r7, #28
 302:./Generated_Source/PSoC5/CyDmac.c **** }
 453              	ov	sp, r7
 454 0070 1846     		pop	{r7}
 455 0072 07F11C07 		bx	lr
 456 0076 BD46     	.L51:
 457 0078 80BC     		.align	2
 458 007a 7047     	.L50:
 459              		.word	1073770512
 460              	.LFE10:
 461              		.size	CyDmaChEnable, .-CyDmaChEnable
 462 007c 10700040 		.section	.text.CyDmaChDisable,"ax",%progbits
 463              		.align	2
 464              		.global	CyDmaChDisable
 465              		.thumb
 466              		.thumb_func
 467              		.type	CyDmaChDisable, %function
 468              	CyDmaChDisable:
 469              	.LFB11:
 470              		.loc 1 329 0
 471              		@ args = 0, pretend = 0, frame = 16
 472              		@ frame_needed = 1, uses_anonymous_args = 0
 303:./Generated_Source/PSoC5/CyDmac.c **** 
 304:./Generated_Source/PSoC5/CyDmac.c **** 
 305:./Generated_Source/PSoC5/CyDmac.c **** /*******************************************************************************
 306:./Generated_Source/PSoC5/CyDmac.c **** * Function Name: CyDmaChDisable
 307:./Generated_Source/PSoC5/CyDmac.c **** ********************************************************************************
 308:./Generated_Source/PSoC5/CyDmac.c **** * Summary:
 309:./Generated_Source/PSoC5/CyDmac.c **** *   Disables the DMA channel.
 310:./Generated_Source/PSoC5/CyDmac.c **** *
 311:./Generated_Source/PSoC5/CyDmac.c **** * Parameters:
 312:./Generated_Source/PSoC5/CyDmac.c **** * chHandle:
 313:./Generated_Source/PSoC5/CyDmac.c **** *   Handle to the dma channel.
 314:./Generated_Source/PSoC5/CyDmac.c **** *
 315:./Generated_Source/PSoC5/CyDmac.c **** *
 316:./Generated_Source/PSoC5/CyDmac.c **** * Return:
 317:./Generated_Source/PSoC5/CyDmac.c **** *   0 in successful or CYRET_BAD_PARAM.
 318:./Generated_Source/PSoC5/CyDmac.c **** *
 319:./Generated_Source/PSoC5/CyDmac.c **** * Theory:
 320:./Generated_Source/PSoC5/CyDmac.c **** *   Once this function has been called. DmaChStatus can be polled
 321:./Generated_Source/PSoC5/CyDmac.c **** *   to determine when the Channel has been disabled and determine
 322:./Generated_Source/PSoC5/CyDmac.c **** *   which TD was being executed.
ARM GAS  C:\Users\blinky\AppData\Local\Temp/ccaubaaa.s 			page 15


 323:./Generated_Source/PSoC5/CyDmac.c **** *
 324:./Generated_Source/PSoC5/CyDmac.c **** *   If it is currently executing it will
 325:./Generated_Source/PSoC5/CyDmac.c **** *   allow the current burst to finish naturally.
 326:./Generated_Source/PSoC5/CyDmac.c **** *
 327:./Generated_Source/PSoC5/CyDmac.c **** *******************************************************************************/
 328:./Generated_Source/PSoC5/CyDmac.c **** cystatus CyDmaChDisable(uint8 chHandle)
 329:./Generated_Source/PSoC5/CyDmac.c **** {
 473              	e eliminated.
 474              		push	{r7}
 475              	.LCFI23:
 476              		sub	sp, sp, #20
 477 0000 80B4     	.LCFI24:
 478              		add	r7, sp, #0
 479 0002 85B0     	.LCFI25:
 480              		@ lr needed for prologue
 481 0004 00AF     		mov	r3, r0
 482              		strb	r3, [r7, #7]
 483              		.loc 1 333 0
 484 0006 0346     		ldrb	r3, [r7, #7]	@ zero_extendqisi2
 485 0008 FB71     		cmp	r3, #23
 330:./Generated_Source/PSoC5/CyDmac.c ****     cystatus status;
 331:./Generated_Source/PSoC5/CyDmac.c **** 
 332:./Generated_Source/PSoC5/CyDmac.c **** 
 333:./Generated_Source/PSoC5/CyDmac.c ****     if(chHandle < NUMBEROF_CHANNELS)
 486              	oc 1 335 0
 487 000a FB79     		ldrb	r3, [r7, #7]	@ zero_extendqisi2
 488 000c 172B     		lsl	r3, r3, #4
 489 000e 12D8     		ldr	r1, .L57
 334:./Generated_Source/PSoC5/CyDmac.c ****     {
 335:./Generated_Source/PSoC5/CyDmac.c ****         DMAC_CH[chHandle].basic_cfg[0] &= ~0x21u;
 490              		r1, r3, r1
 491 0010 FB79     		ldrb	r3, [r7, #7]	@ zero_extendqisi2
 492 0012 4FEA0313 		lsl	r3, r3, #4
 493 0016 0D49     		mov	r2, r3
 494 0018 1944     		ldr	r3, .L57
 495 001a FB79     		add	r3, r2, r3
 496 001c 4FEA0313 		ldrb	r3, [r3, #0]	@ zero_extendqisi2
 497 0020 1A46     		and	r3, r3, #222
 498 0022 0A4B     		strb	r3, [r1, #0]
 499 0024 1344     		.loc 1 336 0
 500 0026 1B78     		mov	r3, #0
 501 0028 03F0DE03 		str	r3, [r7, #12]
 502 002c 0B70     		b	.L55
 336:./Generated_Source/PSoC5/CyDmac.c ****         status = CYRET_SUCCESS;
 503              	 340 0
 504 002e 4FF00003 		mov	r3, #1
 505 0032 FB60     		str	r3, [r7, #12]
 506 0034 02E0     	.L55:
 507              		.loc 1 343 0
 337:./Generated_Source/PSoC5/CyDmac.c ****     }
 338:./Generated_Source/PSoC5/CyDmac.c ****     else
 339:./Generated_Source/PSoC5/CyDmac.c ****     {
 340:./Generated_Source/PSoC5/CyDmac.c ****         status = CYRET_BAD_PARAM;
 508              	r3, [r7, #12]
 509 0036 4FF00103 		.loc 1 344 0
 510 003a FB60     		mov	r0, r3
 511              		add	r7, r7, #20
ARM GAS  C:\Users\blinky\AppData\Local\Temp/ccaubaaa.s 			page 16


 341:./Generated_Source/PSoC5/CyDmac.c ****     }
 342:./Generated_Source/PSoC5/CyDmac.c **** 
 343:./Generated_Source/PSoC5/CyDmac.c ****     return status;
 512              		sp, r7
 513 003c FB68     		pop	{r7}
 344:./Generated_Source/PSoC5/CyDmac.c **** }
 514              	x	lr
 515 003e 1846     	.L58:
 516 0040 07F11407 		.align	2
 517 0044 BD46     	.L57:
 518 0046 80BC     		.word	1073770512
 519 0048 7047     	.LFE11:
 520              		.size	CyDmaChDisable, .-CyDmaChDisable
 521 004a C046     		.section	.text.CyDmaChPriority,"ax",%progbits
 522              		.align	2
 523 004c 10700040 		.global	CyDmaChPriority
 524              		.thumb
 525              		.thumb_func
 526              		.type	CyDmaChPriority, %function
 527              	CyDmaChPriority:
 528              	.LFB12:
 529              		.loc 1 367 0
 530              		@ args = 0, pretend = 0, frame = 16
 531              		@ frame_needed = 1, uses_anonymous_args = 0
 532              		@ link register save eliminated.
 533              		push	{r7}
 345:./Generated_Source/PSoC5/CyDmac.c **** 
 346:./Generated_Source/PSoC5/CyDmac.c **** /*******************************************************************************
 347:./Generated_Source/PSoC5/CyDmac.c **** * Function Name: CyDmaChPriority
 348:./Generated_Source/PSoC5/CyDmac.c **** ********************************************************************************
 349:./Generated_Source/PSoC5/CyDmac.c **** * Summary:
 350:./Generated_Source/PSoC5/CyDmac.c **** * Sets the priority of a DMA channel.
 351:./Generated_Source/PSoC5/CyDmac.c **** *
 352:./Generated_Source/PSoC5/CyDmac.c **** * Parameters:
 353:./Generated_Source/PSoC5/CyDmac.c **** * chHandle:
 354:./Generated_Source/PSoC5/CyDmac.c **** *   Handle to the dma channel.
 355:./Generated_Source/PSoC5/CyDmac.c **** *
 356:./Generated_Source/PSoC5/CyDmac.c **** * priority:
 357:./Generated_Source/PSoC5/CyDmac.c **** *   Priority to set the channel to, 0 - 7.
 358:./Generated_Source/PSoC5/CyDmac.c **** *
 359:./Generated_Source/PSoC5/CyDmac.c **** *
 360:./Generated_Source/PSoC5/CyDmac.c **** *
 361:./Generated_Source/PSoC5/CyDmac.c **** * Return:
 362:./Generated_Source/PSoC5/CyDmac.c **** *   0 in successful or CYRET_BAD_PARAM.
 363:./Generated_Source/PSoC5/CyDmac.c **** *
 364:./Generated_Source/PSoC5/CyDmac.c **** *
 365:./Generated_Source/PSoC5/CyDmac.c **** *******************************************************************************/
 366:./Generated_Source/PSoC5/CyDmac.c **** cystatus CyDmaChPriority(uint8 chHandle, uint8 priority)
 367:./Generated_Source/PSoC5/CyDmac.c **** {
 534              	, #20
 535              	.LCFI27:
 536              		add	r7, sp, #0
 537              	.LCFI28:
 538 0000 80B4     		@ lr needed for prologue
 539              		mov	r3, r0
 540 0002 85B0     		mov	r2, r1
 541              		strb	r3, [r7, #7]
ARM GAS  C:\Users\blinky\AppData\Local\Temp/ccaubaaa.s 			page 17


 542 0004 00AF     		mov	r3, r2
 543              		strb	r3, [r7, #6]
 544              		.loc 1 372 0
 545 0006 0346     		ldrb	r3, [r7, #7]	@ zero_extendqisi2
 546 0008 0A46     		cmp	r3, #23
 547 000a FB71     		bhi	.L60
 548 000c 1346     		.loc 1 374 0
 549 000e BB71     		ldrb	r3, [r7, #7]	@ zero_extendqisi2
 368:./Generated_Source/PSoC5/CyDmac.c ****     uint8 Value;
 369:./Generated_Source/PSoC5/CyDmac.c ****     cystatus status;
 370:./Generated_Source/PSoC5/CyDmac.c **** 
 371:./Generated_Source/PSoC5/CyDmac.c **** 
 372:./Generated_Source/PSoC5/CyDmac.c ****     if(chHandle < NUMBEROF_CHANNELS)
 550              		mov	r2, r3
 551 0010 FB79     		ldr	r3, .L64
 552 0012 172B     		add	r3, r2, r3
 553 0014 1ED8     		ldrb	r3, [r3, #0]	@ zero_extendqisi2
 373:./Generated_Source/PSoC5/CyDmac.c ****     {
 374:./Generated_Source/PSoC5/CyDmac.c ****         Value = DMAC_CH[chHandle].basic_cfg[0] & ~(0x0Eu); // Needs bit fields to be defined.
 554              		r3, r3, #14
 555 0016 FB79     		strb	r3, [r7, #11]
 556 0018 4FEA0313 		.loc 1 375 0
 557 001c 1A46     		ldrb	r3, [r7, #7]	@ zero_extendqisi2
 558 001e 124B     		lsl	r3, r3, #4
 559 0020 1344     		ldr	r0, .L64
 560 0022 1B78     		add	r0, r3, r0
 561 0024 23F00E03 		ldrb	r3, [r7, #6]	@ zero_extendqisi2
 562 0028 FB72     		lsl	r3, r3, #1
 375:./Generated_Source/PSoC5/CyDmac.c ****         DMAC_CH[chHandle].basic_cfg[0] = Value | (priority << 0x01u);
 563              	 r3
 564 002a FB79     		ldrb	r2, [r7, #11]	@ zero_extendqisi2
 565 002c 4FEA0313 		mov	r1, r3
 566 0030 0D48     		mov	r3, r2
 567 0032 1844     		orr	r3, r1, r3
 568 0034 BB79     		uxtb	r3, r3
 569 0036 4FEA4303 		uxtb	r3, r3
 570 003a DBB2     		strb	r3, [r0, #0]
 571 003c FA7A     		.loc 1 376 0
 572 003e 1946     		mov	r3, #0
 573 0040 1346     		str	r3, [r7, #12]
 574 0042 41EA0303 		b	.L62
 575 0046 DBB2     	.L60:
 576 0048 DBB2     		.loc 1 380 0
 577 004a 0370     		mov	r3, #1
 376:./Generated_Source/PSoC5/CyDmac.c ****         status = CYRET_SUCCESS;
 578              	12]
 579 004c 4FF00003 	.L62:
 580 0050 FB60     		.loc 1 383 0
 581 0052 02E0     		ldr	r3, [r7, #12]
 582              		.loc 1 384 0
 377:./Generated_Source/PSoC5/CyDmac.c ****     }
 378:./Generated_Source/PSoC5/CyDmac.c ****     else
 379:./Generated_Source/PSoC5/CyDmac.c ****     {
 380:./Generated_Source/PSoC5/CyDmac.c ****         status = CYRET_BAD_PARAM;
 583              	r0, r3
 584 0054 4FF00103 		add	r7, r7, #20
 585 0058 FB60     		mov	sp, r7
ARM GAS  C:\Users\blinky\AppData\Local\Temp/ccaubaaa.s 			page 18


 586              		pop	{r7}
 381:./Generated_Source/PSoC5/CyDmac.c ****     }
 382:./Generated_Source/PSoC5/CyDmac.c **** 
 383:./Generated_Source/PSoC5/CyDmac.c ****     return status;
 587              	lr
 588 005a FB68     	.L65:
 384:./Generated_Source/PSoC5/CyDmac.c **** }
 589              	align	2
 590 005c 1846     	.L64:
 591 005e 07F11407 		.word	1073770512
 592 0062 BD46     	.LFE12:
 593 0064 80BC     		.size	CyDmaChPriority, .-CyDmaChPriority
 594 0066 7047     		.section	.text.CyDmaChSetExtendedAddress,"ax",%progbits
 595              		.align	2
 596              		.global	CyDmaChSetExtendedAddress
 597              		.thumb
 598 0068 10700040 		.thumb_func
 599              		.type	CyDmaChSetExtendedAddress, %function
 600              	CyDmaChSetExtendedAddress:
 601              	.LFB13:
 602              		.loc 1 412 0
 603              		@ args = 0, pretend = 0, frame = 16
 604              		@ frame_needed = 1, uses_anonymous_args = 0
 605              		@ link register save eliminated.
 606              		push	{r7}
 607              	.LCFI29:
 608              		sub	sp, sp, #20
 385:./Generated_Source/PSoC5/CyDmac.c **** 
 386:./Generated_Source/PSoC5/CyDmac.c **** 
 387:./Generated_Source/PSoC5/CyDmac.c **** /*******************************************************************************
 388:./Generated_Source/PSoC5/CyDmac.c **** * Function Name: CyDmaChSetExtendedAddress
 389:./Generated_Source/PSoC5/CyDmac.c **** ********************************************************************************
 390:./Generated_Source/PSoC5/CyDmac.c **** * Summary:
 391:./Generated_Source/PSoC5/CyDmac.c **** *   Sets the high 16 bits of the source and destination addresses for
 392:./Generated_Source/PSoC5/CyDmac.c **** *   the DMA channel (all TD's in the chain).
 393:./Generated_Source/PSoC5/CyDmac.c **** *
 394:./Generated_Source/PSoC5/CyDmac.c **** * Parameters:
 395:./Generated_Source/PSoC5/CyDmac.c **** * chHandle:
 396:./Generated_Source/PSoC5/CyDmac.c **** *   Handle to the dma channel.
 397:./Generated_Source/PSoC5/CyDmac.c **** *
 398:./Generated_Source/PSoC5/CyDmac.c **** * source:
 399:./Generated_Source/PSoC5/CyDmac.c **** *   The source of the DMA transfer.
 400:./Generated_Source/PSoC5/CyDmac.c **** *
 401:./Generated_Source/PSoC5/CyDmac.c **** * destination:
 402:./Generated_Source/PSoC5/CyDmac.c **** *   The destination of the DMA transfer.
 403:./Generated_Source/PSoC5/CyDmac.c **** *
 404:./Generated_Source/PSoC5/CyDmac.c **** *
 405:./Generated_Source/PSoC5/CyDmac.c **** *
 406:./Generated_Source/PSoC5/CyDmac.c **** * Return:
 407:./Generated_Source/PSoC5/CyDmac.c **** *   0 in successful or CYRET_BAD_PARAM.
 408:./Generated_Source/PSoC5/CyDmac.c **** *
 409:./Generated_Source/PSoC5/CyDmac.c **** *
 410:./Generated_Source/PSoC5/CyDmac.c **** *******************************************************************************/
 411:./Generated_Source/PSoC5/CyDmac.c **** cystatus CyDmaChSetExtendedAddress(uint8 chHandle, uint16 source, uint16 destination)
 412:./Generated_Source/PSoC5/CyDmac.c **** {
 609              	, #0
 610              	.LCFI31:
ARM GAS  C:\Users\blinky\AppData\Local\Temp/ccaubaaa.s 			page 19


 611              		@ lr needed for prologue
 612              		mov	r3, r0
 613 0000 80B4     		strb	r3, [r7, #7]
 614              		mov	r3, r1	@ movhi
 615 0002 85B0     		strh	r3, [r7, #4]	@ movhi
 616              		mov	r3, r2	@ movhi
 617 0004 00AF     		strh	r3, [r7, #2]	@ movhi
 618              		.loc 1 417 0
 619              		ldrh	r2, [r7, #4]
 620 0006 0346     		movw	r3, #8191
 621 0008 FB71     		cmp	r2, r3
 622 000a 0B46     		bne	.L67
 623 000c BB80     		.loc 1 418 0
 624 000e 1346     		mov	r3, #8192
 625 0010 7B80     		strh	r3, [r7, #4]	@ movhi
 413:./Generated_Source/PSoC5/CyDmac.c ****     cystatus status;
 414:./Generated_Source/PSoC5/CyDmac.c **** 
 415:./Generated_Source/PSoC5/CyDmac.c **** #if CYDEV_CHIP_DIE_EXPECT == CYDEV_CHIP_DIE_PANTHER
 416:./Generated_Source/PSoC5/CyDmac.c ****     /* 0x1FFF8000-0x1FFFFFFF needs to use alias at 0x20008000-0x2000FFFF */
 417:./Generated_Source/PSoC5/CyDmac.c ****     if (source == 0x1FFF)
 626              	 0
 627 0012 BA88     		ldrh	r2, [r7, #2]
 628 0014 41F6FF73 		movw	r3, #8191
 629 0018 9A42     		cmp	r2, r3
 630 001a 02D1     		bne	.L69
 418:./Generated_Source/PSoC5/CyDmac.c ****         source = 0x2000;
 631              	 1 420 0
 632 001c 4FF40053 		mov	r3, #8192
 633 0020 BB80     		strh	r3, [r7, #2]	@ movhi
 634              	.L69:
 419:./Generated_Source/PSoC5/CyDmac.c ****     if (destination == 0x1FFF)
 635              	c 1 423 0
 636 0022 7A88     		ldrb	r3, [r7, #7]	@ zero_extendqisi2
 637 0024 41F6FF73 		cmp	r3, #23
 638 0028 9A42     		bhi	.L71
 639 002a 02D1     		.loc 1 426 0
 420:./Generated_Source/PSoC5/CyDmac.c ****         destination = 0x2000;
 640              		r3, [r7, #7]	@ zero_extendqisi2
 641 002c 4FF40053 		lsl	r3, r3, #3
 642 0030 7B80     		add	r3, r3, #1073741824
 643              		add	r3, r3, #30208
 421:./Generated_Source/PSoC5/CyDmac.c **** #endif
 422:./Generated_Source/PSoC5/CyDmac.c **** 
 423:./Generated_Source/PSoC5/CyDmac.c ****     if(chHandle < NUMBEROF_CHANNELS)
 644              		r3, r3, #4
 645 0032 FB79     		mov	r2, r3
 646 0034 172B     		ldrh	r3, [r7, #4]	@ movhi
 647 0036 1DD8     		strh	r3, [r2, #0]	@ movhi
 424:./Generated_Source/PSoC5/CyDmac.c ****     {
 425:./Generated_Source/PSoC5/CyDmac.c ****         /* Set Source address. */
 426:./Generated_Source/PSoC5/CyDmac.c ****         CY_SET_REG16((reg16 *) &DMAC_CFGMEM[chHandle].CFG1[0], source);
 648              	c 1 429 0
 649 0038 FB79     		ldrb	r3, [r7, #7]	@ zero_extendqisi2
 650 003a 4FEAC303 		lsl	r3, r3, #3
 651 003e 03F18043 		add	r3, r3, #1073741824
 652 0042 03F5EC43 		add	r3, r3, #30208
 653 0046 03F10403 		add	r3, r3, #4
ARM GAS  C:\Users\blinky\AppData\Local\Temp/ccaubaaa.s 			page 20


 654 004a 1A46     		add	r3, r3, #2
 655 004c BB88     		mov	r2, r3
 656 004e 1380     		ldrh	r3, [r7, #2]	@ movhi
 427:./Generated_Source/PSoC5/CyDmac.c **** 
 428:./Generated_Source/PSoC5/CyDmac.c ****         /* Set Destination address. */
 429:./Generated_Source/PSoC5/CyDmac.c ****         CY_SET_REG16((reg16 *) &DMAC_CFGMEM[chHandle].CFG1[2], destination);
 657              	 [r2, #0]	@ movhi
 658 0050 FB79     		.loc 1 430 0
 659 0052 4FEAC303 		mov	r3, #0
 660 0056 03F18043 		str	r3, [r7, #12]
 661 005a 03F5EC43 		b	.L73
 662 005e 03F10403 	.L71:
 663 0062 03F10203 		.loc 1 434 0
 664 0066 1A46     		mov	r3, #1
 665 0068 7B88     		str	r3, [r7, #12]
 666 006a 1380     	.L73:
 430:./Generated_Source/PSoC5/CyDmac.c ****         status = CYRET_SUCCESS;
 667              	7 0
 668 006c 4FF00003 		ldr	r3, [r7, #12]
 669 0070 FB60     		.loc 1 438 0
 670 0072 02E0     		mov	r0, r3
 671              		add	r7, r7, #20
 431:./Generated_Source/PSoC5/CyDmac.c ****     }
 432:./Generated_Source/PSoC5/CyDmac.c ****     else
 433:./Generated_Source/PSoC5/CyDmac.c ****     {
 434:./Generated_Source/PSoC5/CyDmac.c ****         status = CYRET_BAD_PARAM;
 672              	sp, r7
 673 0074 4FF00103 		pop	{r7}
 674 0078 FB60     		bx	lr
 675              	.LFE13:
 435:./Generated_Source/PSoC5/CyDmac.c ****     }
 436:./Generated_Source/PSoC5/CyDmac.c **** 
 437:./Generated_Source/PSoC5/CyDmac.c ****     return status;
 676              	ze	CyDmaChSetExtendedAddress, .-CyDmaChSetExtendedAddress
 677 007a FB68     		.section	.text.CyDmaChSetInitialTd,"ax",%progbits
 438:./Generated_Source/PSoC5/CyDmac.c **** }
 678              	align	2
 679 007c 1846     		.global	CyDmaChSetInitialTd
 680 007e 07F11407 		.thumb
 681 0082 BD46     		.thumb_func
 682 0084 80BC     		.type	CyDmaChSetInitialTd, %function
 683 0086 7047     	CyDmaChSetInitialTd:
 684              	.LFB14:
 685              		.loc 1 461 0
 686              		@ args = 0, pretend = 0, frame = 16
 687              		@ frame_needed = 1, uses_anonymous_args = 0
 688              		@ link register save eliminated.
 689              		push	{r7}
 690              	.LCFI32:
 691              		sub	sp, sp, #20
 692              	.LCFI33:
 693              		add	r7, sp, #0
 439:./Generated_Source/PSoC5/CyDmac.c **** 
 440:./Generated_Source/PSoC5/CyDmac.c **** 
 441:./Generated_Source/PSoC5/CyDmac.c **** /*******************************************************************************
 442:./Generated_Source/PSoC5/CyDmac.c **** * Function Name: CyDmaChSetTd
 443:./Generated_Source/PSoC5/CyDmac.c **** ********************************************************************************
ARM GAS  C:\Users\blinky\AppData\Local\Temp/ccaubaaa.s 			page 21


 444:./Generated_Source/PSoC5/CyDmac.c **** * Summary:
 445:./Generated_Source/PSoC5/CyDmac.c **** * Set the initial TD for the channel.
 446:./Generated_Source/PSoC5/CyDmac.c **** *
 447:./Generated_Source/PSoC5/CyDmac.c **** * Parameters:
 448:./Generated_Source/PSoC5/CyDmac.c **** * chHandle:
 449:./Generated_Source/PSoC5/CyDmac.c **** *   Handle to the dma channel.
 450:./Generated_Source/PSoC5/CyDmac.c **** *
 451:./Generated_Source/PSoC5/CyDmac.c **** * startTd:
 452:./Generated_Source/PSoC5/CyDmac.c **** *   Index of TD to set as the first TD associated with the Channel.
 453:./Generated_Source/PSoC5/CyDmac.c **** *
 454:./Generated_Source/PSoC5/CyDmac.c **** *
 455:./Generated_Source/PSoC5/CyDmac.c **** * Return:
 456:./Generated_Source/PSoC5/CyDmac.c **** *   0 in successful or CYRET_BAD_PARAM.
 457:./Generated_Source/PSoC5/CyDmac.c **** *
 458:./Generated_Source/PSoC5/CyDmac.c **** *
 459:./Generated_Source/PSoC5/CyDmac.c **** *******************************************************************************/
 460:./Generated_Source/PSoC5/CyDmac.c **** cystatus CyDmaChSetInitialTd(uint8 chHandle, uint8 startTd)
 461:./Generated_Source/PSoC5/CyDmac.c **** {
 694              	eeded for prologue
 695              		mov	r3, r0
 696              		mov	r2, r1
 697              		strb	r3, [r7, #7]
 698 0000 80B4     		mov	r3, r2
 699              		strb	r3, [r7, #6]
 700 0002 85B0     		.loc 1 465 0
 701              		ldrb	r3, [r7, #7]	@ zero_extendqisi2
 702 0004 00AF     		cmp	r3, #23
 703              		bhi	.L76
 704              		.loc 1 467 0
 705 0006 0346     		ldrb	r3, [r7, #7]	@ zero_extendqisi2
 706 0008 0A46     		lsl	r3, r3, #4
 707 000a FB71     		mov	r2, r3
 708 000c 1346     		ldr	r3, .L80
 709 000e BB71     		add	r3, r2, r3
 462:./Generated_Source/PSoC5/CyDmac.c ****     cystatus status;
 463:./Generated_Source/PSoC5/CyDmac.c **** 
 464:./Generated_Source/PSoC5/CyDmac.c **** 
 465:./Generated_Source/PSoC5/CyDmac.c ****     if(chHandle < NUMBEROF_CHANNELS)
 710              	6]
 711 0010 FB79     		strb	r2, [r3, #9]
 712 0012 172B     		.loc 1 468 0
 713 0014 0BD8     		mov	r3, #0
 466:./Generated_Source/PSoC5/CyDmac.c ****     {
 467:./Generated_Source/PSoC5/CyDmac.c ****         DMAC_CH[chHandle].basic_status[1] = startTd;
 714              		r3, [r7, #12]
 715 0016 FB79     		b	.L78
 716 0018 4FEA0313 	.L76:
 717 001c 1A46     		.loc 1 472 0
 718 001e 094B     		mov	r3, #1
 719 0020 1344     		str	r3, [r7, #12]
 720 0022 BA79     	.L78:
 721 0024 5A72     		.loc 1 475 0
 468:./Generated_Source/PSoC5/CyDmac.c ****         status = CYRET_SUCCESS;
 722              	 [r7, #12]
 723 0026 4FF00003 		.loc 1 476 0
 724 002a FB60     		mov	r0, r3
 725 002c 02E0     		add	r7, r7, #20
ARM GAS  C:\Users\blinky\AppData\Local\Temp/ccaubaaa.s 			page 22


 726              		mov	sp, r7
 469:./Generated_Source/PSoC5/CyDmac.c ****     }
 470:./Generated_Source/PSoC5/CyDmac.c ****     else
 471:./Generated_Source/PSoC5/CyDmac.c ****     {
 472:./Generated_Source/PSoC5/CyDmac.c ****         status = CYRET_BAD_PARAM;
 727              	{r7}
 728 002e 4FF00103 		bx	lr
 729 0032 FB60     	.L81:
 730              		.align	2
 473:./Generated_Source/PSoC5/CyDmac.c ****     }
 474:./Generated_Source/PSoC5/CyDmac.c **** 
 475:./Generated_Source/PSoC5/CyDmac.c ****     return status;
 731              	:
 732 0034 FB68     		.word	1073770512
 476:./Generated_Source/PSoC5/CyDmac.c **** }
 733              	FE14:
 734 0036 1846     		.size	CyDmaChSetInitialTd, .-CyDmaChSetInitialTd
 735 0038 07F11407 		.section	.text.CyDmaChSetRequest,"ax",%progbits
 736 003c BD46     		.align	2
 737 003e 80BC     		.global	CyDmaChSetRequest
 738 0040 7047     		.thumb
 739              		.thumb_func
 740 0042 C046     		.type	CyDmaChSetRequest, %function
 741              	CyDmaChSetRequest:
 742 0044 10700040 	.LFB15:
 743              		.loc 1 504 0
 744              		@ args = 0, pretend = 0, frame = 16
 745              		@ frame_needed = 1, uses_anonymous_args = 0
 746              		@ link register save eliminated.
 747              		push	{r7}
 748              	.LCFI35:
 749              		sub	sp, sp, #20
 750              	.LCFI36:
 751              		add	r7, sp, #0
 752              	.LCFI37:
 477:./Generated_Source/PSoC5/CyDmac.c **** 
 478:./Generated_Source/PSoC5/CyDmac.c **** 
 479:./Generated_Source/PSoC5/CyDmac.c **** /*******************************************************************************
 480:./Generated_Source/PSoC5/CyDmac.c **** * Function Name: CyDmaChSetRequest
 481:./Generated_Source/PSoC5/CyDmac.c **** ********************************************************************************
 482:./Generated_Source/PSoC5/CyDmac.c **** * Summary:
 483:./Generated_Source/PSoC5/CyDmac.c **** *   Allows the caller to terminate a chain of TD's, terminate one TD or
 484:./Generated_Source/PSoC5/CyDmac.c **** *   Create a direct request to start the DMA channel.
 485:./Generated_Source/PSoC5/CyDmac.c **** *
 486:./Generated_Source/PSoC5/CyDmac.c **** * Parameters:
 487:./Generated_Source/PSoC5/CyDmac.c **** * chHandle:
 488:./Generated_Source/PSoC5/CyDmac.c **** *   Handle to the dma channel.
 489:./Generated_Source/PSoC5/CyDmac.c **** *
 490:./Generated_Source/PSoC5/CyDmac.c **** * request:
 491:./Generated_Source/PSoC5/CyDmac.c **** *   3 bit field describing the request.
 492:./Generated_Source/PSoC5/CyDmac.c **** *
 493:./Generated_Source/PSoC5/CyDmac.c **** *   CPU_REQ       
 494:./Generated_Source/PSoC5/CyDmac.c **** *   CPU_TERM_TD   
 495:./Generated_Source/PSoC5/CyDmac.c **** *   CPU_TERM_CHAIN
 496:./Generated_Source/PSoC5/CyDmac.c **** *
 497:./Generated_Source/PSoC5/CyDmac.c **** *
 498:./Generated_Source/PSoC5/CyDmac.c **** * Return:
ARM GAS  C:\Users\blinky\AppData\Local\Temp/ccaubaaa.s 			page 23


 499:./Generated_Source/PSoC5/CyDmac.c **** *   0 in successful or CYRET_BAD_PARAM.
 500:./Generated_Source/PSoC5/CyDmac.c **** *
 501:./Generated_Source/PSoC5/CyDmac.c **** *
 502:./Generated_Source/PSoC5/CyDmac.c **** *******************************************************************************/
 503:./Generated_Source/PSoC5/CyDmac.c **** cystatus CyDmaChSetRequest(uint8 chHandle, uint8 request)
 504:./Generated_Source/PSoC5/CyDmac.c **** {
 753              	logue
 754              		mov	r3, r0
 755              		mov	r2, r1
 756              		strb	r3, [r7, #7]
 757 0000 80B4     		mov	r3, r2
 758              		strb	r3, [r7, #6]
 759 0002 85B0     		.loc 1 508 0
 760              		ldrb	r3, [r7, #7]	@ zero_extendqisi2
 761 0004 00AF     		cmp	r3, #23
 762              		bhi	.L83
 763              		.loc 1 510 0
 764 0006 0346     		ldrb	r3, [r7, #7]	@ zero_extendqisi2
 765 0008 0A46     		lsl	r3, r3, #4
 766 000a FB71     		ldr	r1, .L87
 767 000c 1346     		add	r1, r3, r1
 768 000e BB71     		ldrb	r3, [r7, #7]	@ zero_extendqisi2
 505:./Generated_Source/PSoC5/CyDmac.c ****     cystatus status;
 506:./Generated_Source/PSoC5/CyDmac.c **** 
 507:./Generated_Source/PSoC5/CyDmac.c **** 
 508:./Generated_Source/PSoC5/CyDmac.c ****     if(chHandle < NUMBEROF_CHANNELS)
 769              		mov	r2, r3
 770 0010 FB79     		ldr	r3, .L87
 771 0012 172B     		add	r3, r2, r3
 772 0014 14D8     		ldrb	r2, [r3, #4]	@ zero_extendqisi2
 509:./Generated_Source/PSoC5/CyDmac.c ****     {
 510:./Generated_Source/PSoC5/CyDmac.c ****         DMAC_CH[chHandle].action[0] |= request;
 773              	b	r3, [r7, #6]
 774 0016 FB79     		orr	r3, r2, r3
 775 0018 4FEA0313 		uxtb	r3, r3
 776 001c 0D49     		strb	r3, [r1, #4]
 777 001e 1944     		.loc 1 511 0
 778 0020 FB79     		mov	r3, #0
 779 0022 4FEA0313 		str	r3, [r7, #12]
 780 0026 1A46     		b	.L85
 781 0028 0A4B     	.L83:
 782 002a 1344     		.loc 1 515 0
 783 002c 1A79     		mov	r3, #1
 784 002e BB79     		str	r3, [r7, #12]
 785 0030 42EA0303 	.L85:
 786 0034 DBB2     		.loc 1 518 0
 787 0036 0B71     		ldr	r3, [r7, #12]
 511:./Generated_Source/PSoC5/CyDmac.c ****         status = CYRET_SUCCESS;
 788              	mov	r0, r3
 789 0038 4FF00003 		add	r7, r7, #20
 790 003c FB60     		mov	sp, r7
 791 003e 02E0     		pop	{r7}
 792              		bx	lr
 512:./Generated_Source/PSoC5/CyDmac.c ****     }
 513:./Generated_Source/PSoC5/CyDmac.c ****     else
 514:./Generated_Source/PSoC5/CyDmac.c ****     {
 515:./Generated_Source/PSoC5/CyDmac.c ****         status = CYRET_BAD_PARAM;
ARM GAS  C:\Users\blinky\AppData\Local\Temp/ccaubaaa.s 			page 24


 793              	
 794 0040 4FF00103 		.align	2
 795 0044 FB60     	.L87:
 796              		.word	1073770512
 516:./Generated_Source/PSoC5/CyDmac.c ****     }
 517:./Generated_Source/PSoC5/CyDmac.c **** 
 518:./Generated_Source/PSoC5/CyDmac.c ****     return status;
 797              	E15:
 798 0046 FB68     		.size	CyDmaChSetRequest, .-CyDmaChSetRequest
 519:./Generated_Source/PSoC5/CyDmac.c **** }
 799              	section	.text.CyDmaChGetRequest,"ax",%progbits
 800 0048 1846     		.align	2
 801 004a 07F11407 		.global	CyDmaChGetRequest
 802 004e BD46     		.thumb
 803 0050 80BC     		.thumb_func
 804 0052 7047     		.type	CyDmaChGetRequest, %function
 805              	CyDmaChGetRequest:
 806              	.LFB16:
 807              		.loc 1 544 0
 808 0054 10700040 		@ args = 0, pretend = 0, frame = 16
 809              		@ frame_needed = 1, uses_anonymous_args = 0
 810              		@ link register save eliminated.
 811              		push	{r7}
 812              	.LCFI38:
 813              		sub	sp, sp, #20
 814              	.LCFI39:
 815              		add	r7, sp, #0
 816              	.LCFI40:
 817              		@ lr needed for prologue
 818              		mov	r3, r0
 520:./Generated_Source/PSoC5/CyDmac.c **** 
 521:./Generated_Source/PSoC5/CyDmac.c **** 
 522:./Generated_Source/PSoC5/CyDmac.c **** /*******************************************************************************
 523:./Generated_Source/PSoC5/CyDmac.c **** * Function Name: CyDmaChGetRequest
 524:./Generated_Source/PSoC5/CyDmac.c **** ********************************************************************************
 525:./Generated_Source/PSoC5/CyDmac.c **** * Summary:
 526:./Generated_Source/PSoC5/CyDmac.c **** *   Allows the caller of DmaChSetRequest to check if the request was
 527:./Generated_Source/PSoC5/CyDmac.c **** *   satisfied.
 528:./Generated_Source/PSoC5/CyDmac.c **** *
 529:./Generated_Source/PSoC5/CyDmac.c **** * Parameters:
 530:./Generated_Source/PSoC5/CyDmac.c **** * chHandle:
 531:./Generated_Source/PSoC5/CyDmac.c **** *   Handle to the dma channel.
 532:./Generated_Source/PSoC5/CyDmac.c **** *
 533:./Generated_Source/PSoC5/CyDmac.c **** *
 534:./Generated_Source/PSoC5/CyDmac.c **** *
 535:./Generated_Source/PSoC5/CyDmac.c **** * Return:
 536:./Generated_Source/PSoC5/CyDmac.c **** *   The state of the 3 bit field describing the requests previous
 537:./Generated_Source/PSoC5/CyDmac.c **** *   request. If the bit is cleared the request has be satisfied.
 538:./Generated_Source/PSoC5/CyDmac.c **** *
 539:./Generated_Source/PSoC5/CyDmac.c **** *   DMA_INVALID_CHANNEL if the handle is invalid.
 540:./Generated_Source/PSoC5/CyDmac.c **** *
 541:./Generated_Source/PSoC5/CyDmac.c **** *
 542:./Generated_Source/PSoC5/CyDmac.c **** *******************************************************************************/
 543:./Generated_Source/PSoC5/CyDmac.c **** cystatus CyDmaChGetRequest(uint8 chHandle)
 544:./Generated_Source/PSoC5/CyDmac.c **** {
 819              	.loc 1 548 0
 820              		ldrb	r3, [r7, #7]	@ zero_extendqisi2
ARM GAS  C:\Users\blinky\AppData\Local\Temp/ccaubaaa.s 			page 25


 821              		cmp	r3, #23
 822              		bhi	.L90
 823 0000 80B4     		.loc 1 550 0
 824              		ldrb	r3, [r7, #7]	@ zero_extendqisi2
 825 0002 85B0     		lsl	r3, r3, #4
 826              		mov	r2, r3
 827 0004 00AF     		ldr	r3, .L94
 828              		add	r3, r2, r3
 829              		ldrb	r3, [r3, #4]	@ zero_extendqisi2
 830 0006 0346     		and	r3, r3, #7
 831 0008 FB71     		str	r3, [r7, #12]
 545:./Generated_Source/PSoC5/CyDmac.c ****     cystatus status;
 546:./Generated_Source/PSoC5/CyDmac.c **** 
 547:./Generated_Source/PSoC5/CyDmac.c **** 
 548:./Generated_Source/PSoC5/CyDmac.c ****     if(chHandle < NUMBEROF_CHANNELS)
 832              	
 833 000a FB79     		.loc 1 554 0
 834 000c 172B     		mov	r3, #255
 835 000e 0AD8     		str	r3, [r7, #12]
 549:./Generated_Source/PSoC5/CyDmac.c ****     {
 550:./Generated_Source/PSoC5/CyDmac.c ****         status = DMAC_CH[chHandle].action[0] & (CPU_REQ | CPU_TERM_TD | CPU_TERM_CHAIN);
 836              	2:
 837 0010 FB79     		.loc 1 557 0
 838 0012 4FEA0313 		ldr	r3, [r7, #12]
 839 0016 1A46     		.loc 1 558 0
 840 0018 084B     		mov	r0, r3
 841 001a 1344     		add	r7, r7, #20
 842 001c 1B79     		mov	sp, r7
 843 001e 03F00703 		pop	{r7}
 844 0022 FB60     		bx	lr
 845 0024 02E0     	.L95:
 846              		.align	2
 551:./Generated_Source/PSoC5/CyDmac.c ****     }
 552:./Generated_Source/PSoC5/CyDmac.c ****     else
 553:./Generated_Source/PSoC5/CyDmac.c ****     {
 554:./Generated_Source/PSoC5/CyDmac.c ****         status = DMA_INVALID_CHANNEL;
 847              	d	1073770512
 848 0026 4FF0FF03 	.LFE16:
 849 002a FB60     		.size	CyDmaChGetRequest, .-CyDmaChGetRequest
 850              		.section	.text.CyDmaChStatus,"ax",%progbits
 555:./Generated_Source/PSoC5/CyDmac.c ****     }
 556:./Generated_Source/PSoC5/CyDmac.c **** 
 557:./Generated_Source/PSoC5/CyDmac.c ****     return status;
 851              	ign	2
 852 002c FB68     		.global	CyDmaChStatus
 558:./Generated_Source/PSoC5/CyDmac.c **** }
 853              	thumb
 854 002e 1846     		.thumb_func
 855 0030 07F11407 		.type	CyDmaChStatus, %function
 856 0034 BD46     	CyDmaChStatus:
 857 0036 80BC     	.LFB17:
 858 0038 7047     		.loc 1 590 0
 859              		@ args = 0, pretend = 0, frame = 24
 860 003a C046     		@ frame_needed = 1, uses_anonymous_args = 0
 861              		@ link register save eliminated.
 862 003c 10700040 		push	{r7}
 863              	.LCFI41:
ARM GAS  C:\Users\blinky\AppData\Local\Temp/ccaubaaa.s 			page 26


 864              		sub	sp, sp, #28
 865              	.LCFI42:
 866              		add	r7, sp, #0
 867              	.LCFI43:
 868              		@ lr needed for prologue
 869              		mov	r3, r0
 870              		str	r1, [r7, #8]
 871              		str	r2, [r7, #4]
 872              		strb	r3, [r7, #15]
 559:./Generated_Source/PSoC5/CyDmac.c **** 
 560:./Generated_Source/PSoC5/CyDmac.c **** 
 561:./Generated_Source/PSoC5/CyDmac.c **** /*******************************************************************************
 562:./Generated_Source/PSoC5/CyDmac.c **** * Function Name: CyDmaChStatus
 563:./Generated_Source/PSoC5/CyDmac.c **** ********************************************************************************
 564:./Generated_Source/PSoC5/CyDmac.c **** * Summary:
 565:./Generated_Source/PSoC5/CyDmac.c **** *   Determines the status of the current Transfer descriptor.
 566:./Generated_Source/PSoC5/CyDmac.c **** *
 567:./Generated_Source/PSoC5/CyDmac.c **** * Parameters:
 568:./Generated_Source/PSoC5/CyDmac.c **** * chHandle:
 569:./Generated_Source/PSoC5/CyDmac.c **** *   Handle to the dma channel.
 570:./Generated_Source/PSoC5/CyDmac.c **** *
 571:./Generated_Source/PSoC5/CyDmac.c **** * currentTd:
 572:./Generated_Source/PSoC5/CyDmac.c **** *   Address to store the Index of the current Transfer Descriptor.
 573:./Generated_Source/PSoC5/CyDmac.c **** *   Can be NULL if the value is not needed.
 574:./Generated_Source/PSoC5/CyDmac.c **** *
 575:./Generated_Source/PSoC5/CyDmac.c **** * state:
 576:./Generated_Source/PSoC5/CyDmac.c **** *   Address to store the State of the Channel.
 577:./Generated_Source/PSoC5/CyDmac.c **** *   Can be NULL if the value is not needed.
 578:./Generated_Source/PSoC5/CyDmac.c **** *
 579:./Generated_Source/PSoC5/CyDmac.c **** *
 580:./Generated_Source/PSoC5/CyDmac.c **** * Return:
 581:./Generated_Source/PSoC5/CyDmac.c **** *   0 in successful or CYRET_BAD_PARAM.
 582:./Generated_Source/PSoC5/CyDmac.c **** *   
 583:./Generated_Source/PSoC5/CyDmac.c **** *
 584:./Generated_Source/PSoC5/CyDmac.c **** * Theory:
 585:./Generated_Source/PSoC5/CyDmac.c **** *   The caller can check on the activity of the Current TD and the
 586:./Generated_Source/PSoC5/CyDmac.c **** *   Chain.
 587:./Generated_Source/PSoC5/CyDmac.c **** *
 588:./Generated_Source/PSoC5/CyDmac.c **** *******************************************************************************/
 589:./Generated_Source/PSoC5/CyDmac.c **** cystatus CyDmaChStatus(uint8 chHandle, uint8 * currentTd, uint8 * state)
 590:./Generated_Source/PSoC5/CyDmac.c **** {
 873              	r3, [r7, #15]	@ zero_extendqisi2
 874              		cmp	r3, #23
 875              		bhi	.L97
 876              		.loc 1 596 0
 877 0000 80B4     		ldr	r3, [r7, #8]
 878              		cmp	r3, #0
 879 0002 87B0     		beq	.L99
 880              		.loc 1 598 0
 881 0004 00AF     		ldrb	r3, [r7, #15]	@ zero_extendqisi2
 882              		lsl	r3, r3, #4
 883              		mov	r2, r3
 884 0006 0346     		ldr	r3, .L105
 885 0008 B960     		add	r3, r2, r3
 886 000a 7A60     		ldrb	r3, [r3, #9]	@ zero_extendqisi2
 887 000c FB73     		and	r3, r3, #127
 591:./Generated_Source/PSoC5/CyDmac.c ****     cystatus status;
ARM GAS  C:\Users\blinky\AppData\Local\Temp/ccaubaaa.s 			page 27


 592:./Generated_Source/PSoC5/CyDmac.c **** 
 593:./Generated_Source/PSoC5/CyDmac.c **** 
 594:./Generated_Source/PSoC5/CyDmac.c ****     if(chHandle < NUMBEROF_CHANNELS)
 888              	8]
 889 000e FB7B     		strb	r3, [r2, #0]
 890 0010 172B     	.L99:
 891 0012 1DD8     		.loc 1 601 0
 595:./Generated_Source/PSoC5/CyDmac.c ****     {
 596:./Generated_Source/PSoC5/CyDmac.c ****         if(currentTd)
 892              		r3, [r7, #4]
 893 0014 BB68     		cmp	r3, #0
 894 0016 002B     		beq	.L101
 895 0018 0AD0     		.loc 1 603 0
 597:./Generated_Source/PSoC5/CyDmac.c ****         {
 598:./Generated_Source/PSoC5/CyDmac.c ****             *currentTd = DMAC_CH[chHandle].basic_status[1] & 0x7Fu;
 896              	b	r3, [r7, #15]	@ zero_extendqisi2
 897 001a FB7B     		lsl	r3, r3, #4
 898 001c 4FEA0313 		mov	r2, r3
 899 0020 1A46     		ldr	r3, .L105
 900 0022 104B     		add	r3, r2, r3
 901 0024 1344     		ldrb	r3, [r3, #8]	@ zero_extendqisi2
 902 0026 5B7A     		ldr	r2, [r7, #4]
 903 0028 03F07F03 		strb	r3, [r2, #0]
 904 002c BA68     	.L101:
 905 002e 1370     		.loc 1 606 0
 906              		mov	r3, #0
 599:./Generated_Source/PSoC5/CyDmac.c ****         }
 600:./Generated_Source/PSoC5/CyDmac.c **** 
 601:./Generated_Source/PSoC5/CyDmac.c ****         if(state)
 907              	7, #20]
 908 0030 7B68     		b	.L103
 909 0032 002B     	.L97:
 910 0034 08D0     		.loc 1 610 0
 602:./Generated_Source/PSoC5/CyDmac.c ****         {
 603:./Generated_Source/PSoC5/CyDmac.c ****             *state= DMAC_CH[chHandle].basic_status[0];
 911              		r3, #1
 912 0036 FB7B     		str	r3, [r7, #20]
 913 0038 4FEA0313 	.L103:
 914 003c 1A46     		.loc 1 613 0
 915 003e 094B     		ldr	r3, [r7, #20]
 916 0040 1344     		.loc 1 614 0
 917 0042 1B7A     		mov	r0, r3
 918 0044 7A68     		add	r7, r7, #28
 919 0046 1370     		mov	sp, r7
 920              		pop	{r7}
 604:./Generated_Source/PSoC5/CyDmac.c ****         }
 605:./Generated_Source/PSoC5/CyDmac.c **** 
 606:./Generated_Source/PSoC5/CyDmac.c ****         status = CYRET_SUCCESS;
 921              	06:
 922 0048 4FF00003 		.align	2
 923 004c 7B61     	.L105:
 924 004e 02E0     		.word	1073770512
 925              	.LFE17:
 607:./Generated_Source/PSoC5/CyDmac.c ****     }
 608:./Generated_Source/PSoC5/CyDmac.c ****     else
 609:./Generated_Source/PSoC5/CyDmac.c ****     {
 610:./Generated_Source/PSoC5/CyDmac.c ****         status = CYRET_BAD_PARAM;
ARM GAS  C:\Users\blinky\AppData\Local\Temp/ccaubaaa.s 			page 28


 926              	e	CyDmaChStatus, .-CyDmaChStatus
 927 0050 4FF00103 		.section	.text.CyDmaChSetConfiguration,"ax",%progbits
 928 0054 7B61     		.align	2
 929              		.global	CyDmaChSetConfiguration
 611:./Generated_Source/PSoC5/CyDmac.c ****     }
 612:./Generated_Source/PSoC5/CyDmac.c **** 
 613:./Generated_Source/PSoC5/CyDmac.c ****     return status;
 930              	umb
 931 0056 7B69     		.thumb_func
 614:./Generated_Source/PSoC5/CyDmac.c **** }
 932              	type	CyDmaChSetConfiguration, %function
 933 0058 1846     	CyDmaChSetConfiguration:
 934 005a 07F11C07 	.LFB18:
 935 005e BD46     		.loc 1 650 0
 936 0060 80BC     		@ args = 8, pretend = 0, frame = 16
 937 0062 7047     		@ frame_needed = 1, uses_anonymous_args = 0
 938              		@ link register save eliminated.
 939              		push	{r4, r7}
 940              	.LCFI44:
 941 0064 10700040 		sub	sp, sp, #16
 942              	.LCFI45:
 943              		add	r7, sp, #0
 944              	.LCFI46:
 945              		@ lr needed for prologue
 946              		mov	r4, r3
 947              		mov	r3, r0
 948              		strb	r3, [r7, #7]
 949              		mov	r3, r1
 950              		strb	r3, [r7, #6]
 951              		mov	r3, r2
 615:./Generated_Source/PSoC5/CyDmac.c **** 
 616:./Generated_Source/PSoC5/CyDmac.c **** 
 617:./Generated_Source/PSoC5/CyDmac.c **** /*******************************************************************************
 618:./Generated_Source/PSoC5/CyDmac.c **** * Function Name: CyDmaChSetConfiguration
 619:./Generated_Source/PSoC5/CyDmac.c **** ********************************************************************************
 620:./Generated_Source/PSoC5/CyDmac.c **** * Summary:
 621:./Generated_Source/PSoC5/CyDmac.c **** * Sets Configuration information for the channel.
 622:./Generated_Source/PSoC5/CyDmac.c **** *
 623:./Generated_Source/PSoC5/CyDmac.c **** * Parameters:
 624:./Generated_Source/PSoC5/CyDmac.c **** * chHandle:
 625:./Generated_Source/PSoC5/CyDmac.c **** *   Handle to the dma channel.
 626:./Generated_Source/PSoC5/CyDmac.c **** *
 627:./Generated_Source/PSoC5/CyDmac.c **** * burstCount:
 628:./Generated_Source/PSoC5/CyDmac.c **** *   Number of bytes in a burst.
 629:./Generated_Source/PSoC5/CyDmac.c **** *
 630:./Generated_Source/PSoC5/CyDmac.c **** * requestPerBurst:
 631:./Generated_Source/PSoC5/CyDmac.c **** *   A DMA request is required per burst.
 632:./Generated_Source/PSoC5/CyDmac.c **** *
 633:./Generated_Source/PSoC5/CyDmac.c **** * tdDone0:
 634:./Generated_Source/PSoC5/CyDmac.c **** *   Selects one of the TERMOUT0 interrupt lines to signal completion.
 635:./Generated_Source/PSoC5/CyDmac.c **** *
 636:./Generated_Source/PSoC5/CyDmac.c **** * tdDone1:
 637:./Generated_Source/PSoC5/CyDmac.c **** *   Selects one of the TERMOUT1 interrupt lines to signal complete.
 638:./Generated_Source/PSoC5/CyDmac.c **** *
 639:./Generated_Source/PSoC5/CyDmac.c **** *
 640:./Generated_Source/PSoC5/CyDmac.c **** * tdStop:
 641:./Generated_Source/PSoC5/CyDmac.c **** *   Selects one of the TERMIN interrupt lines to signal to the DMAC
ARM GAS  C:\Users\blinky\AppData\Local\Temp/ccaubaaa.s 			page 29


 642:./Generated_Source/PSoC5/CyDmac.c **** *   that the TD should terminate.
 643:./Generated_Source/PSoC5/CyDmac.c **** *
 644:./Generated_Source/PSoC5/CyDmac.c **** * Return:
 645:./Generated_Source/PSoC5/CyDmac.c **** *   0 in successful or CYRET_BAD_PARAM.
 646:./Generated_Source/PSoC5/CyDmac.c **** *
 647:./Generated_Source/PSoC5/CyDmac.c **** *
 648:./Generated_Source/PSoC5/CyDmac.c **** *******************************************************************************/
 649:./Generated_Source/PSoC5/CyDmac.c **** cystatus CyDmaChSetConfiguration(uint8 chHandle, uint8 burstCount, uint8 requestPerBurst, uint8 tdD
 650:./Generated_Source/PSoC5/CyDmac.c **** {
 952              	mov	r3, r4
 953              		strb	r3, [r7, #4]
 954              		.loc 1 654 0
 955              		ldrb	r3, [r7, #7]	@ zero_extendqisi2
 956 0000 90B4     		cmp	r3, #23
 957              		bhi	.L108
 958 0002 84B0     		.loc 1 656 0
 959              		ldrb	r3, [r7, #7]	@ zero_extendqisi2
 960 0004 00AF     		lsl	r3, r3, #3
 961              		add	r0, r3, #1073741824
 962              		add	r0, r0, #30208
 963 0006 1C46     		ldrb	r3, [r7, #5]	@ zero_extendqisi2
 964 0008 0346     		lsl	r3, r3, #7
 965 000a FB71     		uxtb	r3, r3
 966 000c 0B46     		ldrb	r2, [r7, #6]	@ zero_extendqisi2
 967 000e BB71     		mov	r1, r3
 968 0010 1346     		mov	r3, r2
 969 0012 7B71     		orr	r3, r1, r3
 970 0014 2346     		uxtb	r3, r3
 971 0016 3B71     		uxtb	r3, r3
 651:./Generated_Source/PSoC5/CyDmac.c ****     cystatus status;
 652:./Generated_Source/PSoC5/CyDmac.c **** 
 653:./Generated_Source/PSoC5/CyDmac.c **** 
 654:./Generated_Source/PSoC5/CyDmac.c ****     if(chHandle < NUMBEROF_CHANNELS)
 972              	.loc 1 657 0
 973 0018 FB79     		ldrb	r3, [r7, #7]	@ zero_extendqisi2
 974 001a 172B     		lsl	r3, r3, #3
 975 001c 3ED8     		add	r0, r3, #1073741824
 655:./Generated_Source/PSoC5/CyDmac.c ****     {
 656:./Generated_Source/PSoC5/CyDmac.c ****         DMAC_CFGMEM[chHandle].CFG0[0] = burstCount | (requestPerBurst << 7);
 976              		r0, r0, #30208
 977 001e FB79     		ldrb	r3, [r7, #24]	@ zero_extendqisi2
 978 0020 4FEAC303 		lsl	r3, r3, #4
 979 0024 03F18040 		uxtb	r3, r3
 980 0028 00F5EC40 		ldrb	r2, [r7, #4]	@ zero_extendqisi2
 981 002c 7B79     		mov	r1, r3
 982 002e 4FEAC313 		mov	r3, r2
 983 0032 DBB2     		orr	r3, r1, r3
 984 0034 BA79     		uxtb	r3, r3
 985 0036 1946     		uxtb	r3, r3
 986 0038 1346     		strb	r3, [r0, #1]
 987 003a 41EA0303 		.loc 1 658 0
 988 003e DBB2     		ldrb	r3, [r7, #7]	@ zero_extendqisi2
 989 0040 DBB2     		lsl	r3, r3, #3
 990 0042 0370     		add	r2, r3, #1073741824
 657:./Generated_Source/PSoC5/CyDmac.c ****         DMAC_CFGMEM[chHandle].CFG0[1] = (tdDone1 << 4) | tdDone0;
 991              	0208
 992 0044 FB79     		ldrb	r3, [r7, #28]	@ zero_extendqisi2
ARM GAS  C:\Users\blinky\AppData\Local\Temp/ccaubaaa.s 			page 30


 993 0046 4FEAC303 		and	r3, r3, #15
 994 004a 03F18040 		strb	r3, [r2, #2]
 995 004e 00F5EC40 		.loc 1 659 0
 996 0052 3B7E     		ldrb	r3, [r7, #7]	@ zero_extendqisi2
 997 0054 4FEA0313 		lsl	r3, r3, #3
 998 0058 DBB2     		add	r3, r3, #1073741824
 999 005a 3A79     		add	r3, r3, #30208
 1000 005c 1946     		mov	r2, #0
 1001 005e 1346     		strb	r2, [r3, #3]
 1002 0060 41EA0303 		.loc 1 661 0
 1003 0064 DBB2     		mov	r3, #0
 1004 0066 DBB2     		str	r3, [r7, #12]
 1005 0068 4370     		b	.L110
 658:./Generated_Source/PSoC5/CyDmac.c ****         DMAC_CFGMEM[chHandle].CFG0[2] = 0x0Fu & tdStop;
 1006              	665 0
 1007 006a FB79     		mov	r3, #1
 1008 006c 4FEAC303 		str	r3, [r7, #12]
 1009 0070 03F18042 	.L110:
 1010 0074 02F5EC42 		.loc 1 668 0
 1011 0078 3B7F     		ldr	r3, [r7, #12]
 1012 007a 03F00F03 		.loc 1 669 0
 1013 007e 9370     		mov	r0, r3
 659:./Generated_Source/PSoC5/CyDmac.c ****         DMAC_CFGMEM[chHandle].CFG0[3] = 0; /* burstcount_remain. */
 1014              	 r7, #16
 1015 0080 FB79     		mov	sp, r7
 1016 0082 4FEAC303 		pop	{r4, r7}
 1017 0086 03F18043 		bx	lr
 1018 008a 03F5EC43 	.LFE18:
 1019 008e 4FF00002 		.size	CyDmaChSetConfiguration, .-CyDmaChSetConfiguration
 1020 0092 DA70     		.section	.text.CyDmaTdAllocate,"ax",%progbits
 660:./Generated_Source/PSoC5/CyDmac.c **** 
 661:./Generated_Source/PSoC5/CyDmac.c ****         status = CYRET_SUCCESS;
 1021              		2
 1022 0094 4FF00003 		.global	CyDmaTdAllocate
 1023 0098 FB60     		.thumb
 1024 009a 02E0     		.thumb_func
 1025              		.type	CyDmaTdAllocate, %function
 662:./Generated_Source/PSoC5/CyDmac.c ****     }
 663:./Generated_Source/PSoC5/CyDmac.c ****     else
 664:./Generated_Source/PSoC5/CyDmac.c ****     {
 665:./Generated_Source/PSoC5/CyDmac.c ****         status = CYRET_BAD_PARAM;
 1026              	TdAllocate:
 1027 009c 4FF00103 	.LFB19:
 1028 00a0 FB60     		.loc 1 691 0
 1029              		@ args = 0, pretend = 0, frame = 8
 666:./Generated_Source/PSoC5/CyDmac.c ****     }
 667:./Generated_Source/PSoC5/CyDmac.c **** 
 668:./Generated_Source/PSoC5/CyDmac.c ****     return status;
 1030              	rame_needed = 1, uses_anonymous_args = 0
 1031 00a2 FB68     		push	{r7, lr}
 669:./Generated_Source/PSoC5/CyDmac.c **** }
 1032              	CFI47:
 1033 00a4 1846     		sub	sp, sp, #8
 1034 00a6 07F11007 	.LCFI48:
 1035 00aa BD46     		add	r7, sp, #0
 1036 00ac 90BC     	.LCFI49:
 1037 00ae 7047     		.loc 1 696 0
ARM GAS  C:\Users\blinky\AppData\Local\Temp/ccaubaaa.s 			page 31


 1038              		bl	CyEnterCriticalSection
 1039              		.loc 1 698 0
 1040              		ldr	r3, .L117
 1041              		ldrb	r3, [r3, #0]	@ zero_extendqisi2
 1042              		cmp	r3, #0
 1043              		beq	.L113
 1044              		.loc 1 701 0
 1045              		ldr	r3, .L117+4
 1046              		ldrb	r3, [r3, #0]
 1047              		strb	r3, [r7, #7]
 670:./Generated_Source/PSoC5/CyDmac.c **** 
 671:./Generated_Source/PSoC5/CyDmac.c **** 
 672:./Generated_Source/PSoC5/CyDmac.c **** /*******************************************************************************
 673:./Generated_Source/PSoC5/CyDmac.c **** * Function Name: CyDmaTdAllocate
 674:./Generated_Source/PSoC5/CyDmac.c **** ********************************************************************************
 675:./Generated_Source/PSoC5/CyDmac.c **** * Summary:
 676:./Generated_Source/PSoC5/CyDmac.c **** *   Removes a Transfer Descriptor from the free list for use by the
 677:./Generated_Source/PSoC5/CyDmac.c **** *   caller.
 678:./Generated_Source/PSoC5/CyDmac.c **** *
 679:./Generated_Source/PSoC5/CyDmac.c **** * Parameters:
 680:./Generated_Source/PSoC5/CyDmac.c **** *   void.
 681:./Generated_Source/PSoC5/CyDmac.c **** *
 682:./Generated_Source/PSoC5/CyDmac.c **** *
 683:./Generated_Source/PSoC5/CyDmac.c **** * Return:
 684:./Generated_Source/PSoC5/CyDmac.c **** *   Zero based index of the Transfer Descriptor to be used by the
 685:./Generated_Source/PSoC5/CyDmac.c **** *   caller. Zero is a valid TD index. DMA_INVALID_TD implies
 686:./Generated_Source/PSoC5/CyDmac.c **** *   there are no free TD's available.
 687:./Generated_Source/PSoC5/CyDmac.c **** *
 688:./Generated_Source/PSoC5/CyDmac.c **** *
 689:./Generated_Source/PSoC5/CyDmac.c **** *******************************************************************************/
 690:./Generated_Source/PSoC5/CyDmac.c **** uint8 CyDmaTdAllocate(void)
 691:./Generated_Source/PSoC5/CyDmac.c **** {
 1048              	dr	r3, .L117
 1049              		ldrb	r3, [r3, #0]	@ zero_extendqisi2
 1050              		add	r3, r3, #-1
 1051 0000 80B5     		uxtb	r3, r3
 1052              		ldr	r2, .L117
 1053 0002 82B0     		strb	r3, [r2, #0]
 1054              		.loc 1 707 0
 1055 0004 00AF     		ldrb	r3, [r7, #7]	@ zero_extendqisi2
 1056              		lsl	r3, r3, #3
 692:./Generated_Source/PSoC5/CyDmac.c ****     uint8 Element;
 693:./Generated_Source/PSoC5/CyDmac.c **** 
 694:./Generated_Source/PSoC5/CyDmac.c **** 
 695:./Generated_Source/PSoC5/CyDmac.c ****     /* Enter critical section! */
 696:./Generated_Source/PSoC5/CyDmac.c ****     CyEnterCriticalSection();
 1057              	r3, #1073741824
 1058 0006 FFF7FEFF 		add	r3, r3, #30720
 697:./Generated_Source/PSoC5/CyDmac.c **** 
 698:./Generated_Source/PSoC5/CyDmac.c ****     if(CyDmaTdCurrentNumber)
 1059              	drb	r3, [r3, #0]	@ zero_extendqisi2
 1060 000a 124B     		ldr	r2, .L117+4
 1061 000c 1B78     		strb	r3, [r2, #0]
 1062 000e 002B     		b	.L115
 1063 0010 14D0     	.L113:
 699:./Generated_Source/PSoC5/CyDmac.c ****     {
 700:./Generated_Source/PSoC5/CyDmac.c ****         /* Get pointer to the Next available. */
ARM GAS  C:\Users\blinky\AppData\Local\Temp/ccaubaaa.s 			page 32


 701:./Generated_Source/PSoC5/CyDmac.c ****         Element = CyDmaTdFreeIndex;
 1064              	 1 711 0
 1065 0012 114B     		mov	r3, #-1
 1066 0014 1B78     		strb	r3, [r7, #7]
 1067 0016 FB71     	.L115:
 702:./Generated_Source/PSoC5/CyDmac.c **** 
 703:./Generated_Source/PSoC5/CyDmac.c ****         /* Decrement the count. */
 704:./Generated_Source/PSoC5/CyDmac.c ****         CyDmaTdCurrentNumber--;
 1068              	c 1 715 0
 1069 0018 0E4B     		bl	CyExitCriticalSection
 1070 001a 1B78     		.loc 1 717 0
 1071 001c 03F1FF33 		ldrb	r3, [r7, #7]	@ zero_extendqisi2
 1072 0020 DBB2     		.loc 1 718 0
 1073 0022 0C4A     		mov	r0, r3
 1074 0024 1370     		add	r7, r7, #8
 705:./Generated_Source/PSoC5/CyDmac.c **** 
 706:./Generated_Source/PSoC5/CyDmac.c ****         /* Update the next available pointer. */
 707:./Generated_Source/PSoC5/CyDmac.c ****         CyDmaTdFreeIndex = DMAC_TDMEM[Element].TD0[0];
 1075              	, r7
 1076 0026 FB79     		pop	{r7, pc}
 1077 0028 4FEAC303 	.L118:
 1078 002c 03F18043 		.align	2
 1079 0030 03F5F043 	.L117:
 1080 0034 1B78     		.word	CyDmaTdCurrentNumber
 1081 0036 084A     		.word	CyDmaTdFreeIndex
 1082 0038 1370     	.LFE19:
 1083 003a 02E0     		.size	CyDmaTdAllocate, .-CyDmaTdAllocate
 1084              		.section	.text.CyDmaTdFree,"ax",%progbits
 708:./Generated_Source/PSoC5/CyDmac.c ****     }
 709:./Generated_Source/PSoC5/CyDmac.c ****     else
 710:./Generated_Source/PSoC5/CyDmac.c ****     {
 711:./Generated_Source/PSoC5/CyDmac.c ****         Element = DMA_INVALID_TD;
 1085              		.global	CyDmaTdFree
 1086 003c 4FF0FF33 		.thumb
 1087 0040 FB71     		.thumb_func
 1088              		.type	CyDmaTdFree, %function
 712:./Generated_Source/PSoC5/CyDmac.c ****     }
 713:./Generated_Source/PSoC5/CyDmac.c **** 
 714:./Generated_Source/PSoC5/CyDmac.c ****     /* Exit critical section! */
 715:./Generated_Source/PSoC5/CyDmac.c ****     CyExitCriticalSection();
 1089              	aTdFree:
 1090 0042 FFF7FEFF 	.LFB20:
 716:./Generated_Source/PSoC5/CyDmac.c **** 
 717:./Generated_Source/PSoC5/CyDmac.c ****     return Element;
 1091              	loc 1 738 0
 1092 0046 FB79     		@ args = 0, pretend = 0, frame = 8
 718:./Generated_Source/PSoC5/CyDmac.c **** }
 1093              	 frame_needed = 1, uses_anonymous_args = 0
 1094 0048 1846     		push	{r7, lr}
 1095 004a 07F10807 	.LCFI50:
 1096 004e BD46     		sub	sp, sp, #8
 1097 0050 80BD     	.LCFI51:
 1098              		add	r7, sp, #0
 1099 0052 C046     	.LCFI52:
 1100              		mov	r3, r0
 1101 0054 04000000 		strb	r3, [r7, #7]
 1102 0058 05000000 		.loc 1 739 0
ARM GAS  C:\Users\blinky\AppData\Local\Temp/ccaubaaa.s 			page 33


 1103              		ldrb	r3, [r7, #7]	@ zero_extendqisi2
 1104              		sxtb	r3, r3
 1105              		cmp	r3, #0
 1106              		blt	.L122
 1107              		.loc 1 742 0
 1108              		bl	CyEnterCriticalSection
 1109              		.loc 1 745 0
 1110              		ldrb	r3, [r7, #7]	@ zero_extendqisi2
 1111              		lsl	r3, r3, #3
 1112              		add	r2, r3, #1073741824
 719:./Generated_Source/PSoC5/CyDmac.c **** 
 720:./Generated_Source/PSoC5/CyDmac.c **** 
 721:./Generated_Source/PSoC5/CyDmac.c **** /*******************************************************************************
 722:./Generated_Source/PSoC5/CyDmac.c **** * Function Name: CyDmaTdFree
 723:./Generated_Source/PSoC5/CyDmac.c **** ********************************************************************************
 724:./Generated_Source/PSoC5/CyDmac.c **** * Summary:
 725:./Generated_Source/PSoC5/CyDmac.c **** *   Returns a Transfer Descriptor back to the free list.
 726:./Generated_Source/PSoC5/CyDmac.c **** *
 727:./Generated_Source/PSoC5/CyDmac.c **** * Parameters:
 728:./Generated_Source/PSoC5/CyDmac.c **** * tdHandle:
 729:./Generated_Source/PSoC5/CyDmac.c **** *   Zero based index of the Transfer Descriptor to be freed.
 730:./Generated_Source/PSoC5/CyDmac.c **** *
 731:./Generated_Source/PSoC5/CyDmac.c **** *
 732:./Generated_Source/PSoC5/CyDmac.c **** * Return:
 733:./Generated_Source/PSoC5/CyDmac.c **** *   void.
 734:./Generated_Source/PSoC5/CyDmac.c **** *
 735:./Generated_Source/PSoC5/CyDmac.c **** *
 736:./Generated_Source/PSoC5/CyDmac.c **** *******************************************************************************/
 737:./Generated_Source/PSoC5/CyDmac.c **** void CyDmaTdFree(uint8 tdHandle)
 738:./Generated_Source/PSoC5/CyDmac.c **** {
 1113              		ldr	r3, .L123
 1114              		ldrb	r3, [r3, #0]	@ zero_extendqisi2
 1115              		strb	r3, [r2, #0]
 1116 0000 80B5     		.loc 1 748 0
 1117              		ldr	r2, .L123
 1118 0002 82B0     		ldrb	r3, [r7, #7]
 1119              		strb	r3, [r2, #0]
 1120 0004 00AF     		.loc 1 751 0
 1121              		ldr	r3, .L123+4
 1122 0006 0346     		ldrb	r3, [r3, #0]	@ zero_extendqisi2
 1123 0008 FB71     		add	r3, r3, #1
 739:./Generated_Source/PSoC5/CyDmac.c ****     if(tdHandle < NUMBEROF_TDS)
 1124              	3
 1125 000a FB79     		ldr	r2, .L123+4
 1126 000c 5BB2     		strb	r3, [r2, #0]
 1127 000e 002B     		.loc 1 754 0
 1128 0010 17DB     		bl	CyExitCriticalSection
 740:./Generated_Source/PSoC5/CyDmac.c ****     {
 741:./Generated_Source/PSoC5/CyDmac.c ****         /* Enter critical section! */
 742:./Generated_Source/PSoC5/CyDmac.c ****         CyEnterCriticalSection();
 1129              	:
 1130 0012 FFF7FEFF 		.loc 1 756 0
 743:./Generated_Source/PSoC5/CyDmac.c **** 
 744:./Generated_Source/PSoC5/CyDmac.c ****         /* Get pointer to the Next available. */
 745:./Generated_Source/PSoC5/CyDmac.c ****         DMAC_TDMEM[tdHandle].TD0[0] = CyDmaTdFreeIndex;
 1131              	dd	r7, r7, #8
 1132 0016 FB79     		mov	sp, r7
ARM GAS  C:\Users\blinky\AppData\Local\Temp/ccaubaaa.s 			page 34


 1133 0018 4FEAC303 		pop	{r7, pc}
 1134 001c 03F18042 	.L124:
 1135 0020 02F5F042 		.align	2
 1136 0024 094B     	.L123:
 1137 0026 1B78     		.word	CyDmaTdFreeIndex
 1138 0028 1370     		.word	CyDmaTdCurrentNumber
 746:./Generated_Source/PSoC5/CyDmac.c **** 
 747:./Generated_Source/PSoC5/CyDmac.c ****         /* Set new Next Available. */
 748:./Generated_Source/PSoC5/CyDmac.c ****         CyDmaTdFreeIndex = tdHandle;
 1139              		.size	CyDmaTdFree, .-CyDmaTdFree
 1140 002a 084A     		.section	.text.CyDmaTdFreeCount,"ax",%progbits
 1141 002c FB79     		.align	2
 1142 002e 1370     		.global	CyDmaTdFreeCount
 749:./Generated_Source/PSoC5/CyDmac.c **** 
 750:./Generated_Source/PSoC5/CyDmac.c ****         /* Keep track of how many left. */
 751:./Generated_Source/PSoC5/CyDmac.c ****         CyDmaTdCurrentNumber++;
 1143              	umb
 1144 0030 074B     		.thumb_func
 1145 0032 1B78     		.type	CyDmaTdFreeCount, %function
 1146 0034 03F10103 	CyDmaTdFreeCount:
 1147 0038 DBB2     	.LFB21:
 1148 003a 054A     		.loc 1 775 0
 1149 003c 1370     		@ args = 0, pretend = 0, frame = 8
 752:./Generated_Source/PSoC5/CyDmac.c **** 
 753:./Generated_Source/PSoC5/CyDmac.c ****         /* Exit critical section! */
 754:./Generated_Source/PSoC5/CyDmac.c ****         CyExitCriticalSection();
 1150              	e_needed = 1, uses_anonymous_args = 0
 1151 003e FFF7FEFF 		@ link register save eliminated.
 1152              		push	{r7}
 755:./Generated_Source/PSoC5/CyDmac.c ****     }
 756:./Generated_Source/PSoC5/CyDmac.c **** }
 1153              	FI53:
 1154 0042 07F10807 		sub	sp, sp, #12
 1155 0046 BD46     	.LCFI54:
 1156 0048 80BD     		add	r7, sp, #0
 1157              	.LCFI55:
 1158 004a C046     		@ lr needed for prologue
 1159              		.loc 1 779 0
 1160 004c 05000000 		ldr	r3, .L127
 1161 0050 04000000 		ldrb	r3, [r3, #0]
 1162              		strb	r3, [r7, #7]
 1163              		.loc 1 782 0
 1164              		ldrb	r3, [r7, #7]	@ zero_extendqisi2
 1165              		.loc 1 783 0
 1166              		mov	r0, r3
 1167              		add	r7, r7, #12
 1168              		mov	sp, r7
 1169              		pop	{r7}
 1170              		bx	lr
 1171              	.L128:
 757:./Generated_Source/PSoC5/CyDmac.c **** 
 758:./Generated_Source/PSoC5/CyDmac.c **** 
 759:./Generated_Source/PSoC5/CyDmac.c **** /*******************************************************************************
 760:./Generated_Source/PSoC5/CyDmac.c **** * Function Name: CyDmaTdFreeCount
 761:./Generated_Source/PSoC5/CyDmac.c **** ********************************************************************************
 762:./Generated_Source/PSoC5/CyDmac.c **** * Summary:
 763:./Generated_Source/PSoC5/CyDmac.c **** *   Returns the number of free Transfer Descriptors available to be
ARM GAS  C:\Users\blinky\AppData\Local\Temp/ccaubaaa.s 			page 35


 764:./Generated_Source/PSoC5/CyDmac.c **** *   allocated.
 765:./Generated_Source/PSoC5/CyDmac.c **** *
 766:./Generated_Source/PSoC5/CyDmac.c **** * Parameters:
 767:./Generated_Source/PSoC5/CyDmac.c **** *   void.
 768:./Generated_Source/PSoC5/CyDmac.c **** *
 769:./Generated_Source/PSoC5/CyDmac.c **** * Return:
 770:./Generated_Source/PSoC5/CyDmac.c **** *   The number of free Transfer Descriptors.
 771:./Generated_Source/PSoC5/CyDmac.c **** *
 772:./Generated_Source/PSoC5/CyDmac.c **** *
 773:./Generated_Source/PSoC5/CyDmac.c **** *******************************************************************************/
 774:./Generated_Source/PSoC5/CyDmac.c **** uint8 CyDmaTdFreeCount(void)
 775:./Generated_Source/PSoC5/CyDmac.c **** {
 1172              	word	CyDmaTdCurrentNumber
 1173              	.LFE21:
 1174              		.size	CyDmaTdFreeCount, .-CyDmaTdFreeCount
 1175              		.section	.text.CyDmaTdSetConfiguration,"ax",%progbits
 1176 0000 80B4     		.align	2
 1177              		.global	CyDmaTdSetConfiguration
 1178 0002 83B0     		.thumb
 1179              		.thumb_func
 1180 0004 00AF     		.type	CyDmaTdSetConfiguration, %function
 1181              	CyDmaTdSetConfiguration:
 1182              	.LFB22:
 776:./Generated_Source/PSoC5/CyDmac.c ****     uint8 number;
 777:./Generated_Source/PSoC5/CyDmac.c **** 
 778:./Generated_Source/PSoC5/CyDmac.c **** 
 779:./Generated_Source/PSoC5/CyDmac.c ****     number = CyDmaTdCurrentNumber;
 1183              	 0
 1184 0006 054B     		@ args = 0, pretend = 0, frame = 16
 1185 0008 1B78     		@ frame_needed = 1, uses_anonymous_args = 0
 1186 000a FB71     		@ link register save eliminated.
 780:./Generated_Source/PSoC5/CyDmac.c **** 
 781:./Generated_Source/PSoC5/CyDmac.c **** 
 782:./Generated_Source/PSoC5/CyDmac.c ****     return number;
 1187              	h	{r4, r7}
 1188 000c FB79     	.LCFI56:
 783:./Generated_Source/PSoC5/CyDmac.c **** }
 1189              	ub	sp, sp, #16
 1190 000e 1846     	.LCFI57:
 1191 0010 07F10C07 		add	r7, sp, #0
 1192 0014 BD46     	.LCFI58:
 1193 0016 80BC     		@ lr needed for prologue
 1194 0018 7047     		mov	r4, r3
 1195              		mov	r3, r0
 1196 001a C046     		strb	r3, [r7, #7]
 1197              		mov	r3, r1	@ movhi
 1198 001c 04000000 		strh	r3, [r7, #4]	@ movhi
 1199              		mov	r3, r2
 1200              		strb	r3, [r7, #3]
 1201              		mov	r3, r4
 1202              		strb	r3, [r7, #2]
 1203              		.loc 1 828 0
 1204              		ldrb	r3, [r7, #7]	@ zero_extendqisi2
 1205              		sxtb	r3, r3
 1206              		cmp	r3, #0
 1207              		blt	.L130
 1208              		ldrh	r3, [r7, #4]
ARM GAS  C:\Users\blinky\AppData\Local\Temp/ccaubaaa.s 			page 36


 784:./Generated_Source/PSoC5/CyDmac.c **** 
 785:./Generated_Source/PSoC5/CyDmac.c **** 
 786:./Generated_Source/PSoC5/CyDmac.c **** /*******************************************************************************
 787:./Generated_Source/PSoC5/CyDmac.c **** * Function Name: CyDmaTdSetConfiguration
 788:./Generated_Source/PSoC5/CyDmac.c **** ********************************************************************************
 789:./Generated_Source/PSoC5/CyDmac.c **** * Summary:
 790:./Generated_Source/PSoC5/CyDmac.c **** * Configures the TD.
 791:./Generated_Source/PSoC5/CyDmac.c **** *
 792:./Generated_Source/PSoC5/CyDmac.c **** * Parameters:
 793:./Generated_Source/PSoC5/CyDmac.c **** * tdHandle:
 794:./Generated_Source/PSoC5/CyDmac.c **** *   Handle to the TD.
 795:./Generated_Source/PSoC5/CyDmac.c **** *
 796:./Generated_Source/PSoC5/CyDmac.c **** * transferCount:
 797:./Generated_Source/PSoC5/CyDmac.c **** *   Size of the data transfer (in bytes) for this Transfer Descriptor.
 798:./Generated_Source/PSoC5/CyDmac.c **** *
 799:./Generated_Source/PSoC5/CyDmac.c **** * nextTd:
 800:./Generated_Source/PSoC5/CyDmac.c **** *   Zero based index of the next Transfer Descriptor in the TD chain.
 801:./Generated_Source/PSoC5/CyDmac.c **** *   Zero is a valid pointer to the next TD, 0xFF is end of chain.
 802:./Generated_Source/PSoC5/CyDmac.c **** *
 803:./Generated_Source/PSoC5/CyDmac.c **** * configuration:
 804:./Generated_Source/PSoC5/CyDmac.c **** *   Bit field with the following meaning.   
 805:./Generated_Source/PSoC5/CyDmac.c **** *   
 806:./Generated_Source/PSoC5/CyDmac.c **** *   bit 7 swap_en 0
 807:./Generated_Source/PSoC5/CyDmac.c **** *   bit 6 swap_size
 808:./Generated_Source/PSoC5/CyDmac.c **** *   bit 5 auto_exec_next
 809:./Generated_Source/PSoC5/CyDmac.c **** *   bit 4 termin_en
 810:./Generated_Source/PSoC5/CyDmac.c **** *   bit 3 termout1_en
 811:./Generated_Source/PSoC5/CyDmac.c **** *   bit 2 termout0_en
 812:./Generated_Source/PSoC5/CyDmac.c **** *   bit 1 inc_dst_adr
 813:./Generated_Source/PSoC5/CyDmac.c **** *   bit 0 inc_src_adr
 814:./Generated_Source/PSoC5/CyDmac.c **** *   
 815:./Generated_Source/PSoC5/CyDmac.c **** *   As defined in ??HeaderFile??
 816:./Generated_Source/PSoC5/CyDmac.c **** *   
 817:./Generated_Source/PSoC5/CyDmac.c **** *
 818:./Generated_Source/PSoC5/CyDmac.c **** * Return:
 819:./Generated_Source/PSoC5/CyDmac.c **** *   0 in successful or CYRET_BAD_PARAM.
 820:./Generated_Source/PSoC5/CyDmac.c **** *
 821:./Generated_Source/PSoC5/CyDmac.c **** *
 822:./Generated_Source/PSoC5/CyDmac.c **** *******************************************************************************/
 823:./Generated_Source/PSoC5/CyDmac.c **** cystatus CyDmaTdSetConfiguration(uint8 tdHandle, uint16 transferCount, uint8 nextTd, uint8 configur
 824:./Generated_Source/PSoC5/CyDmac.c **** {
 1209              		cmp	r3, #0
 1210              		bne	.L130
 1211              		.loc 1 831 0
 1212              		ldrb	r3, [r7, #7]	@ zero_extendqisi2
 1213 0000 90B4     		lsl	r3, r3, #3
 1214              		add	r3, r3, #1073741824
 1215 0002 84B0     		add	r3, r3, #30720
 1216              		mov	r2, r3
 1217 0004 00AF     		ldrh	r3, [r7, #4]	@ movhi
 1218              		strh	r3, [r2, #0]	@ movhi
 1219              		.loc 1 834 0
 1220 0006 1C46     		ldrb	r3, [r7, #7]	@ zero_extendqisi2
 1221 0008 0346     		lsl	r3, r3, #3
 1222 000a FB71     		add	r3, r3, #1073741824
 1223 000c 0B46     		add	r3, r3, #30720
 1224 000e BB80     		ldrb	r2, [r7, #3]
ARM GAS  C:\Users\blinky\AppData\Local\Temp/ccaubaaa.s 			page 37


 1225 0010 1346     		strb	r2, [r3, #2]
 1226 0012 FB70     		.loc 1 837 0
 1227 0014 2346     		ldrb	r3, [r7, #7]	@ zero_extendqisi2
 1228 0016 BB70     		lsl	r3, r3, #3
 825:./Generated_Source/PSoC5/CyDmac.c ****     cystatus status;
 826:./Generated_Source/PSoC5/CyDmac.c **** 
 827:./Generated_Source/PSoC5/CyDmac.c **** 
 828:./Generated_Source/PSoC5/CyDmac.c ****     if(tdHandle < NUMBEROF_TDS && !(0xF000u & transferCount))
 1229              	1824
 1230 0018 FB79     		add	r3, r3, #30720
 1231 001a 5BB2     		ldrb	r2, [r7, #2]
 1232 001c 002B     		strb	r2, [r3, #3]
 1233 001e 24DB     		.loc 1 839 0
 1234 0020 BB88     		mov	r3, #0
 1235 0022 03F47043 		str	r3, [r7, #12]
 1236 0026 002B     		.loc 1 828 0
 1237 0028 1FD1     		b	.L133
 829:./Generated_Source/PSoC5/CyDmac.c ****     {
 830:./Generated_Source/PSoC5/CyDmac.c ****         /* Set 12 bits transfer count. */
 831:./Generated_Source/PSoC5/CyDmac.c ****         CY_SET_REG16((reg16 *) &DMAC_TDMEM[tdHandle].TD0[0], transferCount);
 1238              	loc 1 843 0
 1239 002a FB79     		mov	r3, #1
 1240 002c 4FEAC303 		str	r3, [r7, #12]
 1241 0030 03F18043 	.L133:
 1242 0034 03F5F043 		.loc 1 846 0
 1243 0038 1A46     		ldr	r3, [r7, #12]
 1244 003a BB88     		.loc 1 847 0
 1245 003c 1380     		mov	r0, r3
 832:./Generated_Source/PSoC5/CyDmac.c **** 
 833:./Generated_Source/PSoC5/CyDmac.c ****         /* Set Next TD pointer. */
 834:./Generated_Source/PSoC5/CyDmac.c ****         DMAC_TDMEM[tdHandle].TD0[2] = nextTd;
 1246              	 r7, #16
 1247 003e FB79     		mov	sp, r7
 1248 0040 4FEAC303 		pop	{r4, r7}
 1249 0044 03F18043 		bx	lr
 1250 0048 03F5F043 	.LFE22:
 1251 004c FA78     		.size	CyDmaTdSetConfiguration, .-CyDmaTdSetConfiguration
 1252 004e 9A70     		.section	.text.CyDmaTdGetConfiguration,"ax",%progbits
 835:./Generated_Source/PSoC5/CyDmac.c **** 
 836:./Generated_Source/PSoC5/CyDmac.c ****         /* Configure the TD */
 837:./Generated_Source/PSoC5/CyDmac.c ****         DMAC_TDMEM[tdHandle].TD0[3] = configuration;
 1253              		2
 1254 0050 FB79     		.global	CyDmaTdGetConfiguration
 1255 0052 4FEAC303 		.thumb
 1256 0056 03F18043 		.thumb_func
 1257 005a 03F5F043 		.type	CyDmaTdGetConfiguration, %function
 1258 005e BA78     	CyDmaTdGetConfiguration:
 1259 0060 DA70     	.LFB23:
 838:./Generated_Source/PSoC5/CyDmac.c **** 
 839:./Generated_Source/PSoC5/CyDmac.c ****         status = CYRET_SUCCESS;
 1260              	 893 0
 1261 0062 4FF00003 		@ args = 0, pretend = 0, frame = 32
 1262 0066 FB60     		@ frame_needed = 1, uses_anonymous_args = 0
 1263              		@ link register save eliminated.
 1264 0068 02E0     		push	{r7}
 1265              	.LCFI59:
 840:./Generated_Source/PSoC5/CyDmac.c ****     }
ARM GAS  C:\Users\blinky\AppData\Local\Temp/ccaubaaa.s 			page 38


 841:./Generated_Source/PSoC5/CyDmac.c ****     else
 842:./Generated_Source/PSoC5/CyDmac.c ****     {
 843:./Generated_Source/PSoC5/CyDmac.c ****         status = CYRET_BAD_PARAM;
 1266              	p, sp, #36
 1267 006a 4FF00103 	.LCFI60:
 1268 006e FB60     		add	r7, sp, #0
 1269              	.LCFI61:
 844:./Generated_Source/PSoC5/CyDmac.c ****     }
 845:./Generated_Source/PSoC5/CyDmac.c **** 
 846:./Generated_Source/PSoC5/CyDmac.c ****     return status;
 1270              	r needed for prologue
 1271 0070 FB68     		str	r1, [r7, #16]
 847:./Generated_Source/PSoC5/CyDmac.c **** }
 1272              	tr	r2, [r7, #12]
 1273 0072 1846     		str	r3, [r7, #8]
 1274 0074 07F11007 		mov	r3, r0
 1275 0078 BD46     		strb	r3, [r7, #23]
 1276 007a 90BC     		.loc 1 897 0
 1277 007c 7047     		ldrb	r3, [r7, #23]	@ zero_extendqisi2
 1278              		sxtb	r3, r3
 1279              		cmp	r3, #0
 1280 007e C046     		blt	.L136
 1281              		.loc 1 900 0
 1282              		ldr	r3, [r7, #16]
 1283              		cmp	r3, #0
 1284              		beq	.L138
 1285              		.loc 1 903 0
 1286              		ldrb	r3, [r7, #23]	@ zero_extendqisi2
 1287              		lsl	r3, r3, #3
 848:./Generated_Source/PSoC5/CyDmac.c **** 
 849:./Generated_Source/PSoC5/CyDmac.c **** 
 850:./Generated_Source/PSoC5/CyDmac.c **** /*******************************************************************************
 851:./Generated_Source/PSoC5/CyDmac.c **** * Function Name: CyDmaTdGetConfiguration
 852:./Generated_Source/PSoC5/CyDmac.c **** ********************************************************************************
 853:./Generated_Source/PSoC5/CyDmac.c **** * Summary:
 854:./Generated_Source/PSoC5/CyDmac.c **** * Gets the configuration for the Configures.
 855:./Generated_Source/PSoC5/CyDmac.c **** *
 856:./Generated_Source/PSoC5/CyDmac.c **** *   if NULL is passed for a pointer parameter, that value will be
 857:./Generated_Source/PSoC5/CyDmac.c **** *   skipped. The user can requestion only the values they are
 858:./Generated_Source/PSoC5/CyDmac.c **** *   interested in.
 859:./Generated_Source/PSoC5/CyDmac.c **** *
 860:./Generated_Source/PSoC5/CyDmac.c **** * Parameters:
 861:./Generated_Source/PSoC5/CyDmac.c **** * tdHandle:
 862:./Generated_Source/PSoC5/CyDmac.c **** *   Handle to the TD.
 863:./Generated_Source/PSoC5/CyDmac.c **** *
 864:./Generated_Source/PSoC5/CyDmac.c **** * transferCount:
 865:./Generated_Source/PSoC5/CyDmac.c **** *   Address to store the Size of the data transfer (in bytes) for
 866:./Generated_Source/PSoC5/CyDmac.c **** *   this Transfer Descriptor.
 867:./Generated_Source/PSoC5/CyDmac.c **** *
 868:./Generated_Source/PSoC5/CyDmac.c **** * nextTd:
 869:./Generated_Source/PSoC5/CyDmac.c **** *   Address to store the Zero based index of the next Transfer
 870:./Generated_Source/PSoC5/CyDmac.c **** *   Descriptor in the TD chain.
 871:./Generated_Source/PSoC5/CyDmac.c **** *
 872:./Generated_Source/PSoC5/CyDmac.c **** * configurattion:
 873:./Generated_Source/PSoC5/CyDmac.c **** *   Address to store the Bit field of configuration bits.
 874:./Generated_Source/PSoC5/CyDmac.c **** *   
 875:./Generated_Source/PSoC5/CyDmac.c **** *   bit 7 swap_en 0
ARM GAS  C:\Users\blinky\AppData\Local\Temp/ccaubaaa.s 			page 39


 876:./Generated_Source/PSoC5/CyDmac.c **** *   bit 6 swap_size
 877:./Generated_Source/PSoC5/CyDmac.c **** *   bit 5 auto_exec_next
 878:./Generated_Source/PSoC5/CyDmac.c **** *   bit 4 termin_en
 879:./Generated_Source/PSoC5/CyDmac.c **** *   bit 3 termout1_en
 880:./Generated_Source/PSoC5/CyDmac.c **** *   bit 2 termout0_en
 881:./Generated_Source/PSoC5/CyDmac.c **** *   bit 1 inc_dst_adr
 882:./Generated_Source/PSoC5/CyDmac.c **** *   bit 0 inc_src_adr
 883:./Generated_Source/PSoC5/CyDmac.c **** *   
 884:./Generated_Source/PSoC5/CyDmac.c **** *   As defined in ??HeaderFile??
 885:./Generated_Source/PSoC5/CyDmac.c **** *   
 886:./Generated_Source/PSoC5/CyDmac.c **** *
 887:./Generated_Source/PSoC5/CyDmac.c **** * Return:
 888:./Generated_Source/PSoC5/CyDmac.c **** *   0 in successful or CYRET_BAD_PARAM.
 889:./Generated_Source/PSoC5/CyDmac.c **** *
 890:./Generated_Source/PSoC5/CyDmac.c **** *
 891:./Generated_Source/PSoC5/CyDmac.c **** *******************************************************************************/
 892:./Generated_Source/PSoC5/CyDmac.c **** cystatus CyDmaTdGetConfiguration(uint8 tdHandle, uint16 * transferCount, uint8 * nextTd, uint8 * co
 893:./Generated_Source/PSoC5/CyDmac.c **** {
 1288              	73741824
 1289              		add	r3, r3, #30720
 1290              		ldrh	r3, [r3, #0]	@ movhi
 1291              		uxth	r3, r3
 1292 0000 80B4     		str	r3, [r7, #4]
 1293              		ldr	r1, [r7, #4]
 1294 0002 89B0     		lsl	r3, r1, #20
 1295              		lsr	r3, r3, #20
 1296 0004 00AF     		str	r3, [r7, #4]
 1297              		ldr	r2, [r7, #16]
 1298              		ldr	r1, [r7, #4]
 1299 0006 3961     		mov	r3, r1	@ movhi
 1300 0008 FA60     		strh	r3, [r2, #0]	@ movhi
 1301 000a BB60     	.L138:
 1302 000c 0346     		.loc 1 907 0
 1303 000e FB75     		ldr	r3, [r7, #12]
 894:./Generated_Source/PSoC5/CyDmac.c ****     cystatus status;
 895:./Generated_Source/PSoC5/CyDmac.c **** 
 896:./Generated_Source/PSoC5/CyDmac.c **** 
 897:./Generated_Source/PSoC5/CyDmac.c ****     if(tdHandle < NUMBEROF_TDS)
 1304              		.L140
 1305 0010 FB7D     		.loc 1 910 0
 1306 0012 5BB2     		ldrb	r3, [r7, #23]	@ zero_extendqisi2
 1307 0014 002B     		lsl	r3, r3, #3
 1308 0016 34DB     		add	r3, r3, #1073741824
 898:./Generated_Source/PSoC5/CyDmac.c ****     {
 899:./Generated_Source/PSoC5/CyDmac.c ****         /* If we have a pointer. */
 900:./Generated_Source/PSoC5/CyDmac.c ****         if(transferCount)
 1309              	r3, r3, #30720
 1310 0018 3B69     		ldrb	r3, [r3, #2]	@ zero_extendqisi2
 1311 001a 002B     		ldr	r2, [r7, #12]
 1312 001c 13D0     		strb	r3, [r2, #0]
 901:./Generated_Source/PSoC5/CyDmac.c ****         {
 902:./Generated_Source/PSoC5/CyDmac.c ****             /* Get the 12 bitss of the transfer count. */
 903:./Generated_Source/PSoC5/CyDmac.c ****             *transferCount = 0x0FFFu & CY_GET_REG16((reg16 *) &DMAC_TDMEM[tdHandle].TD0[0]);
 1313              	0:
 1314 001e FB7D     		.loc 1 914 0
 1315 0020 4FEAC303 		ldr	r3, [r7, #8]
 1316 0024 03F18043 		cmp	r3, #0
ARM GAS  C:\Users\blinky\AppData\Local\Temp/ccaubaaa.s 			page 40


 1317 0028 03F5F043 		beq	.L142
 1318 002c 1B88     		.loc 1 917 0
 1319 002e 9BB2     		ldrb	r3, [r7, #23]	@ zero_extendqisi2
 1320 0030 7B60     		lsl	r3, r3, #3
 1321 0032 7968     		add	r3, r3, #1073741824
 1322 0034 4FEA0153 		add	r3, r3, #30720
 1323 0038 4FEA1353 		ldrb	r3, [r3, #3]	@ zero_extendqisi2
 1324 003c 7B60     		ldr	r2, [r7, #8]
 1325 003e 3A69     		strb	r3, [r2, #0]
 1326 0040 7968     	.L142:
 1327 0042 0B46     		.loc 1 920 0
 1328 0044 1380     		mov	r3, #0
 1329              		str	r3, [r7, #28]
 904:./Generated_Source/PSoC5/CyDmac.c ****         }
 905:./Generated_Source/PSoC5/CyDmac.c **** 
 906:./Generated_Source/PSoC5/CyDmac.c ****         /* If we have a pointer. */
 907:./Generated_Source/PSoC5/CyDmac.c ****         if(nextTd)
 1330              	.loc 1 924 0
 1331 0046 FB68     		mov	r3, #1
 1332 0048 002B     		str	r3, [r7, #28]
 1333 004a 09D0     	.L144:
 908:./Generated_Source/PSoC5/CyDmac.c ****         {
 909:./Generated_Source/PSoC5/CyDmac.c ****             /* Get the Next TD pointer. */
 910:./Generated_Source/PSoC5/CyDmac.c ****             *nextTd = DMAC_TDMEM[tdHandle].TD0[2];
 1334              	c 1 927 0
 1335 004c FB7D     		ldr	r3, [r7, #28]
 1336 004e 4FEAC303 		.loc 1 928 0
 1337 0052 03F18043 		mov	r0, r3
 1338 0056 03F5F043 		add	r7, r7, #36
 1339 005a 9B78     		mov	sp, r7
 1340 005c FA68     		pop	{r7}
 1341 005e 1370     		bx	lr
 1342              	.LFE23:
 911:./Generated_Source/PSoC5/CyDmac.c ****         }
 912:./Generated_Source/PSoC5/CyDmac.c **** 
 913:./Generated_Source/PSoC5/CyDmac.c ****         /* If we have a pointer. */
 914:./Generated_Source/PSoC5/CyDmac.c ****         if(configuration)
 1343              	DmaTdGetConfiguration, .-CyDmaTdGetConfiguration
 1344 0060 BB68     		.section	.text.CyDmaTdSetAddress,"ax",%progbits
 1345 0062 002B     		.align	2
 1346 0064 09D0     		.global	CyDmaTdSetAddress
 915:./Generated_Source/PSoC5/CyDmac.c ****         {
 916:./Generated_Source/PSoC5/CyDmac.c ****             /* Get the configuration the TD */
 917:./Generated_Source/PSoC5/CyDmac.c ****             *configuration = DMAC_TDMEM[tdHandle].TD0[3];
 1347              	umb
 1348 0066 FB7D     		.thumb_func
 1349 0068 4FEAC303 		.type	CyDmaTdSetAddress, %function
 1350 006c 03F18043 	CyDmaTdSetAddress:
 1351 0070 03F5F043 	.LFB24:
 1352 0074 DB78     		.loc 1 955 0
 1353 0076 BA68     		@ args = 0, pretend = 0, frame = 16
 1354 0078 1370     		@ frame_needed = 1, uses_anonymous_args = 0
 1355              		@ link register save eliminated.
 918:./Generated_Source/PSoC5/CyDmac.c ****         }
 919:./Generated_Source/PSoC5/CyDmac.c **** 
 920:./Generated_Source/PSoC5/CyDmac.c ****         status = CYRET_SUCCESS;
 1356              	}
ARM GAS  C:\Users\blinky\AppData\Local\Temp/ccaubaaa.s 			page 41


 1357 007a 4FF00003 	.LCFI62:
 1358 007e FB61     		sub	sp, sp, #20
 1359 0080 02E0     	.LCFI63:
 1360              		add	r7, sp, #0
 921:./Generated_Source/PSoC5/CyDmac.c ****     }
 922:./Generated_Source/PSoC5/CyDmac.c ****     else
 923:./Generated_Source/PSoC5/CyDmac.c ****     {
 924:./Generated_Source/PSoC5/CyDmac.c ****         status = CYRET_BAD_PARAM;
 1361              	64:
 1362 0082 4FF00103 		@ lr needed for prologue
 1363 0086 FB61     		mov	r3, r0
 1364              		strb	r3, [r7, #7]
 925:./Generated_Source/PSoC5/CyDmac.c ****     }
 926:./Generated_Source/PSoC5/CyDmac.c **** 
 927:./Generated_Source/PSoC5/CyDmac.c ****     return status;
 1365              		r3, r1	@ movhi
 1366 0088 FB69     		strh	r3, [r7, #4]	@ movhi
 928:./Generated_Source/PSoC5/CyDmac.c **** }
 1367              	ov	r3, r2	@ movhi
 1368 008a 1846     		strh	r3, [r7, #2]	@ movhi
 1369 008c 07F12407 		.loc 1 959 0
 1370 0090 BD46     		ldrb	r3, [r7, #7]	@ zero_extendqisi2
 1371 0092 80BC     		sxtb	r3, r3
 1372 0094 7047     		cmp	r3, #0
 1373              		blt	.L147
 1374              		.loc 1 962 0
 1375 0096 C046     		ldrb	r3, [r7, #7]	@ zero_extendqisi2
 1376              		lsl	r3, r3, #3
 1377              		add	r3, r3, #1073741824
 1378              		add	r3, r3, #30720
 1379              		add	r3, r3, #4
 1380              		mov	r2, r3
 1381              		ldrh	r3, [r7, #4]	@ movhi
 1382              		strh	r3, [r2, #0]	@ movhi
 929:./Generated_Source/PSoC5/CyDmac.c **** 
 930:./Generated_Source/PSoC5/CyDmac.c **** 
 931:./Generated_Source/PSoC5/CyDmac.c **** /*******************************************************************************
 932:./Generated_Source/PSoC5/CyDmac.c **** * Function Name: CyDmaTdSetAddress
 933:./Generated_Source/PSoC5/CyDmac.c **** ********************************************************************************
 934:./Generated_Source/PSoC5/CyDmac.c **** * Summary:
 935:./Generated_Source/PSoC5/CyDmac.c **** *   Sets the lower 16 bits of the source and destination addresses
 936:./Generated_Source/PSoC5/CyDmac.c **** *   for this TD only.
 937:./Generated_Source/PSoC5/CyDmac.c **** *
 938:./Generated_Source/PSoC5/CyDmac.c **** * Parameters:
 939:./Generated_Source/PSoC5/CyDmac.c **** * tdHandle:
 940:./Generated_Source/PSoC5/CyDmac.c **** *   Handle to the TD.
 941:./Generated_Source/PSoC5/CyDmac.c **** *
 942:./Generated_Source/PSoC5/CyDmac.c **** * source:
 943:./Generated_Source/PSoC5/CyDmac.c **** *   lower 16 address bits of the Source of the data transfer.
 944:./Generated_Source/PSoC5/CyDmac.c **** *
 945:./Generated_Source/PSoC5/CyDmac.c **** * destination:
 946:./Generated_Source/PSoC5/CyDmac.c **** *   lower 16 address bits of the Destination of the data transfer.
 947:./Generated_Source/PSoC5/CyDmac.c **** *
 948:./Generated_Source/PSoC5/CyDmac.c **** *
 949:./Generated_Source/PSoC5/CyDmac.c **** * Return:
 950:./Generated_Source/PSoC5/CyDmac.c **** *   0 in successful or CYRET_BAD_PARAM.
 951:./Generated_Source/PSoC5/CyDmac.c **** *
ARM GAS  C:\Users\blinky\AppData\Local\Temp/ccaubaaa.s 			page 42


 952:./Generated_Source/PSoC5/CyDmac.c **** *
 953:./Generated_Source/PSoC5/CyDmac.c **** *******************************************************************************/
 954:./Generated_Source/PSoC5/CyDmac.c **** cystatus CyDmaTdSetAddress(uint8 tdHandle, uint16 source, uint16 destination)
 955:./Generated_Source/PSoC5/CyDmac.c **** {
 1383              	drb	r3, [r7, #7]	@ zero_extendqisi2
 1384              		lsl	r3, r3, #3
 1385              		add	r3, r3, #1073741824
 1386              		add	r3, r3, #30720
 1387 0000 80B4     		add	r3, r3, #4
 1388              		add	r3, r3, #2
 1389 0002 85B0     		mov	r2, r3
 1390              		ldrh	r3, [r7, #2]	@ movhi
 1391 0004 00AF     		strh	r3, [r2, #0]	@ movhi
 1392              		.loc 1 967 0
 1393              		mov	r3, #0
 1394 0006 0346     		str	r3, [r7, #12]
 1395 0008 FB71     		b	.L149
 1396 000a 0B46     	.L147:
 1397 000c BB80     		.loc 1 971 0
 1398 000e 1346     		mov	r3, #1
 1399 0010 7B80     		str	r3, [r7, #12]
 956:./Generated_Source/PSoC5/CyDmac.c ****     cystatus status;
 957:./Generated_Source/PSoC5/CyDmac.c **** 
 958:./Generated_Source/PSoC5/CyDmac.c **** 
 959:./Generated_Source/PSoC5/CyDmac.c ****     if(tdHandle < NUMBEROF_TDS)
 1400              	4 0
 1401 0012 FB79     		ldr	r3, [r7, #12]
 1402 0014 5BB2     		.loc 1 975 0
 1403 0016 002B     		mov	r0, r3
 1404 0018 1DDB     		add	r7, r7, #20
 960:./Generated_Source/PSoC5/CyDmac.c ****     {
 961:./Generated_Source/PSoC5/CyDmac.c ****         /* Set Source address. */
 962:./Generated_Source/PSoC5/CyDmac.c ****         CY_SET_REG16((reg16 *) &DMAC_TDMEM[tdHandle].TD1[0], source);
 1405              	sp, r7
 1406 001a FB79     		pop	{r7}
 1407 001c 4FEAC303 		bx	lr
 1408 0020 03F18043 	.LFE24:
 1409 0024 03F5F043 		.size	CyDmaTdSetAddress, .-CyDmaTdSetAddress
 1410 0028 03F10403 		.section	.text.CyDmaTdGetAddress,"ax",%progbits
 1411 002c 1A46     		.align	2
 1412 002e BB88     		.global	CyDmaTdGetAddress
 1413 0030 1380     		.thumb
 963:./Generated_Source/PSoC5/CyDmac.c **** 
 964:./Generated_Source/PSoC5/CyDmac.c ****         /* Set Destination address. */
 965:./Generated_Source/PSoC5/CyDmac.c ****         CY_SET_REG16((reg16 *) &DMAC_TDMEM[tdHandle].TD1[2], destination);
 1414              	unc
 1415 0032 FB79     		.type	CyDmaTdGetAddress, %function
 1416 0034 4FEAC303 	CyDmaTdGetAddress:
 1417 0038 03F18043 	.LFB25:
 1418 003c 03F5F043 		.loc 1 1008 0
 1419 0040 03F10403 		@ args = 0, pretend = 0, frame = 24
 1420 0044 03F10203 		@ frame_needed = 1, uses_anonymous_args = 0
 1421 0048 1A46     		@ link register save eliminated.
 1422 004a 7B88     		push	{r7}
 1423 004c 1380     	.LCFI65:
 966:./Generated_Source/PSoC5/CyDmac.c **** 
 967:./Generated_Source/PSoC5/CyDmac.c ****         status = CYRET_SUCCESS;
ARM GAS  C:\Users\blinky\AppData\Local\Temp/ccaubaaa.s 			page 43


 1424              	p, #28
 1425 004e 4FF00003 	.LCFI66:
 1426 0052 FB60     		add	r7, sp, #0
 1427 0054 02E0     	.LCFI67:
 1428              		@ lr needed for prologue
 968:./Generated_Source/PSoC5/CyDmac.c ****     }
 969:./Generated_Source/PSoC5/CyDmac.c ****     else
 970:./Generated_Source/PSoC5/CyDmac.c ****     {
 971:./Generated_Source/PSoC5/CyDmac.c ****         status = CYRET_BAD_PARAM;
 1429              	r3, r0
 1430 0056 4FF00103 		str	r1, [r7, #8]
 1431 005a FB60     		str	r2, [r7, #4]
 1432              		strb	r3, [r7, #15]
 972:./Generated_Source/PSoC5/CyDmac.c ****     }
 973:./Generated_Source/PSoC5/CyDmac.c **** 
 974:./Generated_Source/PSoC5/CyDmac.c ****     return status;
 1433              	c 1 1012 0
 1434 005c FB68     		ldrb	r3, [r7, #15]	@ zero_extendqisi2
 975:./Generated_Source/PSoC5/CyDmac.c **** }
 1435              	xtb	r3, r3
 1436 005e 1846     		cmp	r3, #0
 1437 0060 07F11407 		blt	.L152
 1438 0064 BD46     		.loc 1 1015 0
 1439 0066 80BC     		ldr	r3, [r7, #8]
 1440 0068 7047     		cmp	r3, #0
 1441              		beq	.L154
 1442              		.loc 1 1018 0
 1443 006a C046     		ldrb	r3, [r7, #15]	@ zero_extendqisi2
 1444              		lsl	r3, r3, #3
 1445              		add	r3, r3, #1073741824
 1446              		add	r3, r3, #30720
 1447              		add	r3, r3, #4
 1448              		ldrh	r3, [r3, #0]	@ movhi
 1449              		uxth	r3, r3
 1450              		ldr	r2, [r7, #8]
 976:./Generated_Source/PSoC5/CyDmac.c **** 
 977:./Generated_Source/PSoC5/CyDmac.c **** 
 978:./Generated_Source/PSoC5/CyDmac.c **** /*******************************************************************************
 979:./Generated_Source/PSoC5/CyDmac.c **** * Function Name: CyDmaTdGetAddress
 980:./Generated_Source/PSoC5/CyDmac.c **** ********************************************************************************
 981:./Generated_Source/PSoC5/CyDmac.c **** * Summary:
 982:./Generated_Source/PSoC5/CyDmac.c **** *   Gets the lower 16 bits of the source and/or destination addresses
 983:./Generated_Source/PSoC5/CyDmac.c **** *   for this TD only.
 984:./Generated_Source/PSoC5/CyDmac.c **** *
 985:./Generated_Source/PSoC5/CyDmac.c **** *   if NULL is passed for a pointer parameter, that value will be
 986:./Generated_Source/PSoC5/CyDmac.c **** *   skipped. The user can requestion only the values they are
 987:./Generated_Source/PSoC5/CyDmac.c **** *   interested in.
 988:./Generated_Source/PSoC5/CyDmac.c **** *
 989:./Generated_Source/PSoC5/CyDmac.c **** * Parameters:
 990:./Generated_Source/PSoC5/CyDmac.c **** * tdHandle:
 991:./Generated_Source/PSoC5/CyDmac.c **** *   Handle to the TD.
 992:./Generated_Source/PSoC5/CyDmac.c **** *
 993:./Generated_Source/PSoC5/CyDmac.c **** * source:
 994:./Generated_Source/PSoC5/CyDmac.c **** *   Address to store the lower 16 address bits of the Source of the
 995:./Generated_Source/PSoC5/CyDmac.c **** *   data transfer.
 996:./Generated_Source/PSoC5/CyDmac.c **** *
 997:./Generated_Source/PSoC5/CyDmac.c **** * destination:
ARM GAS  C:\Users\blinky\AppData\Local\Temp/ccaubaaa.s 			page 44


 998:./Generated_Source/PSoC5/CyDmac.c **** *   Address to store the lower 16 address bits of the Destination of
 999:./Generated_Source/PSoC5/CyDmac.c **** *   the data transfer.
1000:./Generated_Source/PSoC5/CyDmac.c **** *
1001:./Generated_Source/PSoC5/CyDmac.c **** *
1002:./Generated_Source/PSoC5/CyDmac.c **** * Return:
1003:./Generated_Source/PSoC5/CyDmac.c **** *   0 in successful or CYRET_BAD_PARAM.
1004:./Generated_Source/PSoC5/CyDmac.c **** *
1005:./Generated_Source/PSoC5/CyDmac.c **** *
1006:./Generated_Source/PSoC5/CyDmac.c **** *******************************************************************************/
1007:./Generated_Source/PSoC5/CyDmac.c **** cystatus CyDmaTdGetAddress(uint8 tdHandle, uint16 * source, uint16 * destination)
1008:./Generated_Source/PSoC5/CyDmac.c **** {
 1451              	0]	@ movhi
 1452              	.L154:
 1453              		.loc 1 1022 0
 1454              		ldr	r3, [r7, #4]
 1455 0000 80B4     		cmp	r3, #0
 1456              		beq	.L156
 1457 0002 87B0     		.loc 1 1025 0
 1458              		ldrb	r3, [r7, #15]	@ zero_extendqisi2
 1459 0004 00AF     		lsl	r3, r3, #3
 1460              		add	r3, r3, #1073741824
 1461              		add	r3, r3, #30720
 1462 0006 0346     		add	r3, r3, #4
 1463 0008 B960     		add	r3, r3, #2
 1464 000a 7A60     		ldrh	r3, [r3, #0]	@ movhi
 1465 000c FB73     		uxth	r3, r3
1009:./Generated_Source/PSoC5/CyDmac.c ****     cystatus status;
1010:./Generated_Source/PSoC5/CyDmac.c **** 
1011:./Generated_Source/PSoC5/CyDmac.c **** 
1012:./Generated_Source/PSoC5/CyDmac.c ****     if(tdHandle < NUMBEROF_TDS)
 1466              	4]
 1467 000e FB7B     		strh	r3, [r2, #0]	@ movhi
 1468 0010 5BB2     	.L156:
 1469 0012 002B     		.loc 1 1028 0
 1470 0014 25DB     		mov	r3, #0
1013:./Generated_Source/PSoC5/CyDmac.c ****     {
1014:./Generated_Source/PSoC5/CyDmac.c ****         /* If we have a pointer. */
1015:./Generated_Source/PSoC5/CyDmac.c ****         if(source)
 1471              	r3, [r7, #20]
 1472 0016 BB68     		b	.L158
 1473 0018 002B     	.L152:
 1474 001a 0CD0     		.loc 1 1032 0
1016:./Generated_Source/PSoC5/CyDmac.c ****         {
1017:./Generated_Source/PSoC5/CyDmac.c ****             /* Get Source address. */
1018:./Generated_Source/PSoC5/CyDmac.c ****             *source = CY_GET_REG16((reg16 *) &DMAC_TDMEM[tdHandle].TD1[0]);
 1475              		r3, #1
 1476 001c FB7B     		str	r3, [r7, #20]
 1477 001e 4FEAC303 	.L158:
 1478 0022 03F18043 		.loc 1 1035 0
 1479 0026 03F5F043 		ldr	r3, [r7, #20]
 1480 002a 03F10403 		.loc 1 1036 0
 1481 002e 1B88     		mov	r0, r3
 1482 0030 9BB2     		add	r7, r7, #28
 1483 0032 BA68     		mov	sp, r7
 1484 0034 1380     		pop	{r7}
 1485              		bx	lr
1019:./Generated_Source/PSoC5/CyDmac.c ****         }
ARM GAS  C:\Users\blinky\AppData\Local\Temp/ccaubaaa.s 			page 45


1020:./Generated_Source/PSoC5/CyDmac.c **** 
1021:./Generated_Source/PSoC5/CyDmac.c ****         /* If we have a pointer. */
1022:./Generated_Source/PSoC5/CyDmac.c ****         if(destination)
 1486              	ize	CyDmaTdGetAddress, .-CyDmaTdGetAddress
 1487 0036 7B68     		.bss
 1488 0038 002B     	CyDmaTdCurrentNumber:
 1489 003a 0ED0     		.space	1
1023:./Generated_Source/PSoC5/CyDmac.c ****         {
1024:./Generated_Source/PSoC5/CyDmac.c ****             /* Get Destination address. */
1025:./Generated_Source/PSoC5/CyDmac.c ****             *destination = CY_GET_REG16((reg16 *) &DMAC_TDMEM[tdHandle].TD1[2]);
 1490              	aTdFreeIndex:
 1491 003c FB7B     		.space	1
 1492 003e 4FEAC303 		.section	.debug_frame,"",%progbits
 1493 0042 03F18043 	.Lframe0:
 1494 0046 03F5F043 		.4byte	.LECIE0-.LSCIE0
 1495 004a 03F10403 	.LSCIE0:
 1496 004e 03F10203 		.4byte	0xffffffff
 1497 0052 1B88     		.byte	0x1
 1498 0054 9BB2     		.ascii	"\000"
 1499 0056 7A68     		.uleb128 0x1
 1500 0058 1380     		.sleb128 -4
 1501              		.byte	0xe
1026:./Generated_Source/PSoC5/CyDmac.c ****         }
1027:./Generated_Source/PSoC5/CyDmac.c **** 
1028:./Generated_Source/PSoC5/CyDmac.c ****         status = CYRET_SUCCESS;
 1502              	.uleb128 0xd
 1503 005a 4FF00003 		.uleb128 0x0
 1504 005e 7B61     		.align	2
 1505 0060 02E0     	.LECIE0:
 1506              	.LSFDE0:
1029:./Generated_Source/PSoC5/CyDmac.c ****     }
1030:./Generated_Source/PSoC5/CyDmac.c ****     else
1031:./Generated_Source/PSoC5/CyDmac.c ****     {
1032:./Generated_Source/PSoC5/CyDmac.c ****         status = CYRET_BAD_PARAM;
 1507              	te	.LEFDE0-.LASFDE0
 1508 0062 4FF00103 	.LASFDE0:
 1509 0066 7B61     		.4byte	.Lframe0
 1510              		.4byte	.LFB2
1033:./Generated_Source/PSoC5/CyDmac.c ****     }
1034:./Generated_Source/PSoC5/CyDmac.c **** 
1035:./Generated_Source/PSoC5/CyDmac.c ****     return status;
 1511              	yte	.LFE2-.LFB2
 1512 0068 7B69     		.byte	0x4
1036:./Generated_Source/PSoC5/CyDmac.c **** }
 1513              	4byte	.LCFI0-.LFB2
 1514 006a 1846     		.byte	0xe
 1515 006c 07F11C07 		.uleb128 0x4
 1516 0070 BD46     		.byte	0x87
 1517 0072 80BC     		.uleb128 0x1
 1518 0074 7047     		.byte	0x4
 1519              		.4byte	.LCFI1-.LCFI0
 1520              		.byte	0xd
 1521 0076 C046     		.uleb128 0x7
 1522              		.align	2
 1523 0004 00       	.LEFDE0:
 1524              	.LSFDE2:
 1525 0005 00       		.4byte	.LEFDE2-.LASFDE2
ARM GAS  C:\Users\blinky\AppData\Local\Temp/ccaubaaa.s 			page 46


 1526 0006 0000     	.LASFDE2:
 1527              		.4byte	.Lframe0
 1528 0000 0C000000 		.4byte	.LFB3
 1529              		.4byte	.LFE3-.LFB3
 1530 0004 FFFFFFFF 		.byte	0x4
 1531 0008 01       		.4byte	.LCFI2-.LFB3
 1532 0009 00       		.byte	0xe
 1533 000a 01       		.uleb128 0x4
 1534 000b 7C       		.byte	0x87
 1535 000c 0E       		.uleb128 0x1
 1536 000d 0C       		.byte	0x4
 1537 000e 0D       		.4byte	.LCFI3-.LCFI2
 1538 000f 00       		.byte	0xd
 1539              		.uleb128 0x7
 1540              		.align	2
 1541              	.LEFDE2:
 1542 0010 14000000 	.LSFDE4:
 1543              		.4byte	.LEFDE4-.LASFDE4
 1544 0014 00000000 	.LASFDE4:
 1545 0018 00000000 		.4byte	.Lframe0
 1546 001c 0A000000 		.4byte	.LFB4
 1547 0020 42       		.4byte	.LFE4-.LFB4
 1548              		.byte	0x4
 1549 0021 0E       		.4byte	.LCFI4-.LFB4
 1550 0022 04       		.byte	0xe
 1551 0023 87       		.uleb128 0x4
 1552 0024 01       		.byte	0x4
 1553 0025 42       		.4byte	.LCFI5-.LCFI4
 1554              		.byte	0xe
 1555 0026 0D       		.uleb128 0x10
 1556 0027 07       		.byte	0x87
 1557              		.uleb128 0x1
 1558              		.byte	0x4
 1559              		.4byte	.LCFI6-.LCFI5
 1560 0028 14000000 		.byte	0xd
 1561              		.uleb128 0x7
 1562 002c 00000000 		.align	2
 1563 0030 00000000 	.LEFDE4:
 1564 0034 0A000000 	.LSFDE6:
 1565 0038 42       		.4byte	.LEFDE6-.LASFDE6
 1566              	.LASFDE6:
 1567 0039 0E       		.4byte	.Lframe0
 1568 003a 04       		.4byte	.LFB5
 1569 003b 87       		.4byte	.LFE5-.LFB5
 1570 003c 01       		.byte	0x4
 1571 003d 42       		.4byte	.LCFI7-.LFB5
 1572              		.byte	0xe
 1573 003e 0D       		.uleb128 0x4
 1574 003f 07       		.byte	0x87
 1575              		.uleb128 0x1
 1576              		.byte	0x4
 1577              		.4byte	.LCFI8-.LCFI7
 1578 0040 18000000 		.byte	0xd
 1579              		.uleb128 0x7
 1580 0044 00000000 		.align	2
 1581 0048 00000000 	.LEFDE6:
 1582 004c 6C000000 	.LSFDE8:
ARM GAS  C:\Users\blinky\AppData\Local\Temp/ccaubaaa.s 			page 47


 1583 0050 42       		.4byte	.LEFDE8-.LASFDE8
 1584              	.LASFDE8:
 1585 0051 0E       		.4byte	.Lframe0
 1586 0052 04       		.4byte	.LFB6
 1587 0053 42       		.4byte	.LFE6-.LFB6
 1588              		.byte	0x4
 1589 0054 0E       		.4byte	.LCFI9-.LFB6
 1590 0055 10       		.byte	0xe
 1591 0056 87       		.uleb128 0x4
 1592 0057 01       		.byte	0x4
 1593 0058 42       		.4byte	.LCFI10-.LCFI9
 1594              		.byte	0xe
 1595 0059 0D       		.uleb128 0x10
 1596 005a 07       		.byte	0x87
 1597 005b 00       		.uleb128 0x1
 1598              		.byte	0x4
 1599              		.4byte	.LCFI11-.LCFI10
 1600 005c 14000000 		.byte	0xd
 1601              		.uleb128 0x7
 1602 0060 00000000 		.align	2
 1603 0064 00000000 	.LEFDE8:
 1604 0068 1C000000 	.LSFDE10:
 1605 006c 42       		.4byte	.LEFDE10-.LASFDE10
 1606              	.LASFDE10:
 1607 006d 0E       		.4byte	.Lframe0
 1608 006e 04       		.4byte	.LFB7
 1609 006f 87       		.4byte	.LFE7-.LFB7
 1610 0070 01       		.byte	0x4
 1611 0071 42       		.4byte	.LCFI12-.LFB7
 1612              		.byte	0xe
 1613 0072 0D       		.uleb128 0x4
 1614 0073 07       		.byte	0x87
 1615              		.uleb128 0x1
 1616              		.byte	0x4
 1617              		.4byte	.LCFI13-.LCFI12
 1618 0074 18000000 		.byte	0xd
 1619              		.uleb128 0x7
 1620 0078 00000000 		.align	2
 1621 007c 00000000 	.LEFDE10:
 1622 0080 24000000 	.LSFDE12:
 1623 0084 42       		.4byte	.LEFDE12-.LASFDE12
 1624              	.LASFDE12:
 1625 0085 0E       		.4byte	.Lframe0
 1626 0086 04       		.4byte	.LFB8
 1627 0087 42       		.4byte	.LFE8-.LFB8
 1628              		.byte	0x4
 1629 0088 0E       		.4byte	.LCFI14-.LFB8
 1630 0089 10       		.byte	0xe
 1631 008a 87       		.uleb128 0x8
 1632 008b 01       		.byte	0x4
 1633 008c 42       		.4byte	.LCFI15-.LCFI14
 1634              		.byte	0xe
 1635 008d 0D       		.uleb128 0x10
 1636 008e 07       		.byte	0x8e
 1637 008f 00       		.uleb128 0x1
 1638              		.byte	0x87
 1639              		.uleb128 0x2
ARM GAS  C:\Users\blinky\AppData\Local\Temp/ccaubaaa.s 			page 48


 1640 0090 14000000 		.byte	0x4
 1641              		.4byte	.LCFI16-.LCFI15
 1642 0094 00000000 		.byte	0xd
 1643 0098 00000000 		.uleb128 0x7
 1644 009c 14000000 		.align	2
 1645 00a0 42       	.LEFDE12:
 1646              	.LSFDE14:
 1647 00a1 0E       		.4byte	.LEFDE14-.LASFDE14
 1648 00a2 04       	.LASFDE14:
 1649 00a3 87       		.4byte	.Lframe0
 1650 00a4 01       		.4byte	.LFB9
 1651 00a5 42       		.4byte	.LFE9-.LFB9
 1652              		.byte	0x4
 1653 00a6 0D       		.4byte	.LCFI17-.LFB9
 1654 00a7 07       		.byte	0xe
 1655              		.uleb128 0x8
 1656              		.byte	0x4
 1657              		.4byte	.LCFI18-.LCFI17
 1658 00a8 1C000000 		.byte	0xe
 1659              		.uleb128 0x18
 1660 00ac 00000000 		.byte	0x8e
 1661 00b0 00000000 		.uleb128 0x1
 1662 00b4 6C000000 		.byte	0x87
 1663 00b8 42       		.uleb128 0x2
 1664              		.byte	0x4
 1665 00b9 0E       		.4byte	.LCFI19-.LCFI18
 1666 00ba 08       		.byte	0xd
 1667 00bb 42       		.uleb128 0x7
 1668              		.align	2
 1669 00bc 0E       	.LEFDE14:
 1670 00bd 10       	.LSFDE16:
 1671 00be 8E       		.4byte	.LEFDE16-.LASFDE16
 1672 00bf 01       	.LASFDE16:
 1673 00c0 87       		.4byte	.Lframe0
 1674 00c1 02       		.4byte	.LFB10
 1675 00c2 42       		.4byte	.LFE10-.LFB10
 1676              		.byte	0x4
 1677 00c3 0D       		.4byte	.LCFI20-.LFB10
 1678 00c4 07       		.byte	0xe
 1679 00c5 000000   		.uleb128 0x4
 1680              		.byte	0x4
 1681              		.4byte	.LCFI21-.LCFI20
 1682 00c8 1C000000 		.byte	0xe
 1683              		.uleb128 0x20
 1684 00cc 00000000 		.byte	0x87
 1685 00d0 00000000 		.uleb128 0x1
 1686 00d4 54000000 		.byte	0x4
 1687 00d8 42       		.4byte	.LCFI22-.LCFI21
 1688              		.byte	0xd
 1689 00d9 0E       		.uleb128 0x7
 1690 00da 08       		.align	2
 1691 00db 42       	.LEFDE16:
 1692              	.LSFDE18:
 1693 00dc 0E       		.4byte	.LEFDE18-.LASFDE18
 1694 00dd 18       	.LASFDE18:
 1695 00de 8E       		.4byte	.Lframe0
 1696 00df 01       		.4byte	.LFB11
ARM GAS  C:\Users\blinky\AppData\Local\Temp/ccaubaaa.s 			page 49


 1697 00e0 87       		.4byte	.LFE11-.LFB11
 1698 00e1 02       		.byte	0x4
 1699 00e2 42       		.4byte	.LCFI23-.LFB11
 1700              		.byte	0xe
 1701 00e3 0D       		.uleb128 0x4
 1702 00e4 07       		.byte	0x4
 1703 00e5 000000   		.4byte	.LCFI24-.LCFI23
 1704              		.byte	0xe
 1705              		.uleb128 0x18
 1706 00e8 18000000 		.byte	0x87
 1707              		.uleb128 0x1
 1708 00ec 00000000 		.byte	0x4
 1709 00f0 00000000 		.4byte	.LCFI25-.LCFI24
 1710 00f4 80000000 		.byte	0xd
 1711 00f8 42       		.uleb128 0x7
 1712              		.align	2
 1713 00f9 0E       	.LEFDE18:
 1714 00fa 04       	.LSFDE20:
 1715 00fb 42       		.4byte	.LEFDE20-.LASFDE20
 1716              	.LASFDE20:
 1717 00fc 0E       		.4byte	.Lframe0
 1718 00fd 20       		.4byte	.LFB12
 1719 00fe 87       		.4byte	.LFE12-.LFB12
 1720 00ff 01       		.byte	0x4
 1721 0100 42       		.4byte	.LCFI26-.LFB12
 1722              		.byte	0xe
 1723 0101 0D       		.uleb128 0x4
 1724 0102 07       		.byte	0x4
 1725 0103 00       		.4byte	.LCFI27-.LCFI26
 1726              		.byte	0xe
 1727              		.uleb128 0x18
 1728 0104 18000000 		.byte	0x87
 1729              		.uleb128 0x1
 1730 0108 00000000 		.byte	0x4
 1731 010c 00000000 		.4byte	.LCFI28-.LCFI27
 1732 0110 50000000 		.byte	0xd
 1733 0114 42       		.uleb128 0x7
 1734              		.align	2
 1735 0115 0E       	.LEFDE20:
 1736 0116 04       	.LSFDE22:
 1737 0117 42       		.4byte	.LEFDE22-.LASFDE22
 1738              	.LASFDE22:
 1739 0118 0E       		.4byte	.Lframe0
 1740 0119 18       		.4byte	.LFB13
 1741 011a 87       		.4byte	.LFE13-.LFB13
 1742 011b 01       		.byte	0x4
 1743 011c 42       		.4byte	.LCFI29-.LFB13
 1744              		.byte	0xe
 1745 011d 0D       		.uleb128 0x4
 1746 011e 07       		.byte	0x4
 1747 011f 00       		.4byte	.LCFI30-.LCFI29
 1748              		.byte	0xe
 1749              		.uleb128 0x18
 1750 0120 18000000 		.byte	0x87
 1751              		.uleb128 0x1
 1752 0124 00000000 		.byte	0x4
 1753 0128 00000000 		.4byte	.LCFI31-.LCFI30
ARM GAS  C:\Users\blinky\AppData\Local\Temp/ccaubaaa.s 			page 50


 1754 012c 6C000000 		.byte	0xd
 1755 0130 42       		.uleb128 0x7
 1756              		.align	2
 1757 0131 0E       	.LEFDE22:
 1758 0132 04       	.LSFDE24:
 1759 0133 42       		.4byte	.LEFDE24-.LASFDE24
 1760              	.LASFDE24:
 1761 0134 0E       		.4byte	.Lframe0
 1762 0135 18       		.4byte	.LFB14
 1763 0136 87       		.4byte	.LFE14-.LFB14
 1764 0137 01       		.byte	0x4
 1765 0138 42       		.4byte	.LCFI32-.LFB14
 1766              		.byte	0xe
 1767 0139 0D       		.uleb128 0x4
 1768 013a 07       		.byte	0x4
 1769 013b 00       		.4byte	.LCFI33-.LCFI32
 1770              		.byte	0xe
 1771              		.uleb128 0x18
 1772 013c 18000000 		.byte	0x87
 1773              		.uleb128 0x1
 1774 0140 00000000 		.byte	0x4
 1775 0144 00000000 		.4byte	.LCFI34-.LCFI33
 1776 0148 88000000 		.byte	0xd
 1777 014c 42       		.uleb128 0x7
 1778              		.align	2
 1779 014d 0E       	.LEFDE24:
 1780 014e 04       	.LSFDE26:
 1781 014f 42       		.4byte	.LEFDE26-.LASFDE26
 1782              	.LASFDE26:
 1783 0150 0E       		.4byte	.Lframe0
 1784 0151 18       		.4byte	.LFB15
 1785 0152 87       		.4byte	.LFE15-.LFB15
 1786 0153 01       		.byte	0x4
 1787 0154 42       		.4byte	.LCFI35-.LFB15
 1788              		.byte	0xe
 1789 0155 0D       		.uleb128 0x4
 1790 0156 07       		.byte	0x4
 1791 0157 00       		.4byte	.LCFI36-.LCFI35
 1792              		.byte	0xe
 1793              		.uleb128 0x18
 1794 0158 18000000 		.byte	0x87
 1795              		.uleb128 0x1
 1796 015c 00000000 		.byte	0x4
 1797 0160 00000000 		.4byte	.LCFI37-.LCFI36
 1798 0164 48000000 		.byte	0xd
 1799 0168 42       		.uleb128 0x7
 1800              		.align	2
 1801 0169 0E       	.LEFDE26:
 1802 016a 04       	.LSFDE28:
 1803 016b 42       		.4byte	.LEFDE28-.LASFDE28
 1804              	.LASFDE28:
 1805 016c 0E       		.4byte	.Lframe0
 1806 016d 18       		.4byte	.LFB16
 1807 016e 87       		.4byte	.LFE16-.LFB16
 1808 016f 01       		.byte	0x4
 1809 0170 42       		.4byte	.LCFI38-.LFB16
 1810              		.byte	0xe
ARM GAS  C:\Users\blinky\AppData\Local\Temp/ccaubaaa.s 			page 51


 1811 0171 0D       		.uleb128 0x4
 1812 0172 07       		.byte	0x4
 1813 0173 00       		.4byte	.LCFI39-.LCFI38
 1814              		.byte	0xe
 1815              		.uleb128 0x18
 1816 0174 18000000 		.byte	0x87
 1817              		.uleb128 0x1
 1818 0178 00000000 		.byte	0x4
 1819 017c 00000000 		.4byte	.LCFI40-.LCFI39
 1820 0180 58000000 		.byte	0xd
 1821 0184 42       		.uleb128 0x7
 1822              		.align	2
 1823 0185 0E       	.LEFDE28:
 1824 0186 04       	.LSFDE30:
 1825 0187 42       		.4byte	.LEFDE30-.LASFDE30
 1826              	.LASFDE30:
 1827 0188 0E       		.4byte	.Lframe0
 1828 0189 18       		.4byte	.LFB17
 1829 018a 87       		.4byte	.LFE17-.LFB17
 1830 018b 01       		.byte	0x4
 1831 018c 42       		.4byte	.LCFI41-.LFB17
 1832              		.byte	0xe
 1833 018d 0D       		.uleb128 0x4
 1834 018e 07       		.byte	0x4
 1835 018f 00       		.4byte	.LCFI42-.LCFI41
 1836              		.byte	0xe
 1837              		.uleb128 0x20
 1838 0190 18000000 		.byte	0x87
 1839              		.uleb128 0x1
 1840 0194 00000000 		.byte	0x4
 1841 0198 00000000 		.4byte	.LCFI43-.LCFI42
 1842 019c 40000000 		.byte	0xd
 1843 01a0 42       		.uleb128 0x7
 1844              		.align	2
 1845 01a1 0E       	.LEFDE30:
 1846 01a2 04       	.LSFDE32:
 1847 01a3 42       		.4byte	.LEFDE32-.LASFDE32
 1848              	.LASFDE32:
 1849 01a4 0E       		.4byte	.Lframe0
 1850 01a5 18       		.4byte	.LFB18
 1851 01a6 87       		.4byte	.LFE18-.LFB18
 1852 01a7 01       		.byte	0x4
 1853 01a8 42       		.4byte	.LCFI44-.LFB18
 1854              		.byte	0xe
 1855 01a9 0D       		.uleb128 0x8
 1856 01aa 07       		.byte	0x4
 1857 01ab 00       		.4byte	.LCFI45-.LCFI44
 1858              		.byte	0xe
 1859              		.uleb128 0x18
 1860 01ac 18000000 		.byte	0x87
 1861              		.uleb128 0x1
 1862 01b0 00000000 		.byte	0x84
 1863 01b4 00000000 		.uleb128 0x2
 1864 01b8 68000000 		.byte	0x4
 1865 01bc 42       		.4byte	.LCFI46-.LCFI45
 1866              		.byte	0xd
 1867 01bd 0E       		.uleb128 0x7
ARM GAS  C:\Users\blinky\AppData\Local\Temp/ccaubaaa.s 			page 52


 1868 01be 04       		.align	2
 1869 01bf 42       	.LEFDE32:
 1870              	.LSFDE34:
 1871 01c0 0E       		.4byte	.LEFDE34-.LASFDE34
 1872 01c1 20       	.LASFDE34:
 1873 01c2 87       		.4byte	.Lframe0
 1874 01c3 01       		.4byte	.LFB19
 1875 01c4 42       		.4byte	.LFE19-.LFB19
 1876              		.byte	0x4
 1877 01c5 0D       		.4byte	.LCFI47-.LFB19
 1878 01c6 07       		.byte	0xe
 1879 01c7 00       		.uleb128 0x8
 1880              		.byte	0x4
 1881              		.4byte	.LCFI48-.LCFI47
 1882 01c8 1C000000 		.byte	0xe
 1883              		.uleb128 0x10
 1884 01cc 00000000 		.byte	0x8e
 1885 01d0 00000000 		.uleb128 0x1
 1886 01d4 B0000000 		.byte	0x87
 1887 01d8 42       		.uleb128 0x2
 1888              		.byte	0x4
 1889 01d9 0E       		.4byte	.LCFI49-.LCFI48
 1890 01da 08       		.byte	0xd
 1891 01db 42       		.uleb128 0x7
 1892              		.align	2
 1893 01dc 0E       	.LEFDE34:
 1894 01dd 18       	.LSFDE36:
 1895 01de 87       		.4byte	.LEFDE36-.LASFDE36
 1896 01df 01       	.LASFDE36:
 1897 01e0 84       		.4byte	.Lframe0
 1898 01e1 02       		.4byte	.LFB20
 1899 01e2 42       		.4byte	.LFE20-.LFB20
 1900              		.byte	0x4
 1901 01e3 0D       		.4byte	.LCFI50-.LFB20
 1902 01e4 07       		.byte	0xe
 1903 01e5 000000   		.uleb128 0x8
 1904              		.byte	0x4
 1905              		.4byte	.LCFI51-.LCFI50
 1906 01e8 1C000000 		.byte	0xe
 1907              		.uleb128 0x10
 1908 01ec 00000000 		.byte	0x8e
 1909 01f0 00000000 		.uleb128 0x1
 1910 01f4 5C000000 		.byte	0x87
 1911 01f8 42       		.uleb128 0x2
 1912              		.byte	0x4
 1913 01f9 0E       		.4byte	.LCFI52-.LCFI51
 1914 01fa 08       		.byte	0xd
 1915 01fb 42       		.uleb128 0x7
 1916              		.align	2
 1917 01fc 0E       	.LEFDE36:
 1918 01fd 10       	.LSFDE38:
 1919 01fe 8E       		.4byte	.LEFDE38-.LASFDE38
 1920 01ff 01       	.LASFDE38:
 1921 0200 87       		.4byte	.Lframe0
 1922 0201 02       		.4byte	.LFB21
 1923 0202 42       		.4byte	.LFE21-.LFB21
 1924              		.byte	0x4
ARM GAS  C:\Users\blinky\AppData\Local\Temp/ccaubaaa.s 			page 53


 1925 0203 0D       		.4byte	.LCFI53-.LFB21
 1926 0204 07       		.byte	0xe
 1927 0205 000000   		.uleb128 0x4
 1928              		.byte	0x4
 1929              		.4byte	.LCFI54-.LCFI53
 1930 0208 1C000000 		.byte	0xe
 1931              		.uleb128 0x10
 1932 020c 00000000 		.byte	0x87
 1933 0210 00000000 		.uleb128 0x1
 1934 0214 54000000 		.byte	0x4
 1935 0218 42       		.4byte	.LCFI55-.LCFI54
 1936              		.byte	0xd
 1937 0219 0E       		.uleb128 0x7
 1938 021a 08       		.align	2
 1939 021b 42       	.LEFDE38:
 1940              	.LSFDE40:
 1941 021c 0E       		.4byte	.LEFDE40-.LASFDE40
 1942 021d 10       	.LASFDE40:
 1943 021e 8E       		.4byte	.Lframe0
 1944 021f 01       		.4byte	.LFB22
 1945 0220 87       		.4byte	.LFE22-.LFB22
 1946 0221 02       		.byte	0x4
 1947 0222 42       		.4byte	.LCFI56-.LFB22
 1948              		.byte	0xe
 1949 0223 0D       		.uleb128 0x8
 1950 0224 07       		.byte	0x4
 1951 0225 000000   		.4byte	.LCFI57-.LCFI56
 1952              		.byte	0xe
 1953              		.uleb128 0x18
 1954 0228 18000000 		.byte	0x87
 1955              		.uleb128 0x1
 1956 022c 00000000 		.byte	0x84
 1957 0230 00000000 		.uleb128 0x2
 1958 0234 20000000 		.byte	0x4
 1959 0238 42       		.4byte	.LCFI58-.LCFI57
 1960              		.byte	0xd
 1961 0239 0E       		.uleb128 0x7
 1962 023a 04       		.align	2
 1963 023b 42       	.LEFDE40:
 1964              	.LSFDE42:
 1965 023c 0E       		.4byte	.LEFDE42-.LASFDE42
 1966 023d 10       	.LASFDE42:
 1967 023e 87       		.4byte	.Lframe0
 1968 023f 01       		.4byte	.LFB23
 1969 0240 42       		.4byte	.LFE23-.LFB23
 1970              		.byte	0x4
 1971 0241 0D       		.4byte	.LCFI59-.LFB23
 1972 0242 07       		.byte	0xe
 1973 0243 00       		.uleb128 0x4
 1974              		.byte	0x4
 1975              		.4byte	.LCFI60-.LCFI59
 1976 0244 1C000000 		.byte	0xe
 1977              		.uleb128 0x28
 1978 0248 00000000 		.byte	0x87
 1979 024c 00000000 		.uleb128 0x1
 1980 0250 7E000000 		.byte	0x4
 1981 0254 42       		.4byte	.LCFI61-.LCFI60
ARM GAS  C:\Users\blinky\AppData\Local\Temp/ccaubaaa.s 			page 54


 1982              		.byte	0xd
 1983 0255 0E       		.uleb128 0x7
 1984 0256 08       		.align	2
 1985 0257 42       	.LEFDE42:
 1986              	.LSFDE44:
 1987 0258 0E       		.4byte	.LEFDE44-.LASFDE44
 1988 0259 18       	.LASFDE44:
 1989 025a 87       		.4byte	.Lframe0
 1990 025b 01       		.4byte	.LFB24
 1991 025c 84       		.4byte	.LFE24-.LFB24
 1992 025d 02       		.byte	0x4
 1993 025e 42       		.4byte	.LCFI62-.LFB24
 1994              		.byte	0xe
 1995 025f 0D       		.uleb128 0x4
 1996 0260 07       		.byte	0x4
 1997 0261 000000   		.4byte	.LCFI63-.LCFI62
 1998              		.byte	0xe
 1999              		.uleb128 0x18
 2000 0264 18000000 		.byte	0x87
 2001              		.uleb128 0x1
 2002 0268 00000000 		.byte	0x4
 2003 026c 00000000 		.4byte	.LCFI64-.LCFI63
 2004 0270 96000000 		.byte	0xd
 2005 0274 42       		.uleb128 0x7
 2006              		.align	2
 2007 0275 0E       	.LEFDE44:
 2008 0276 04       	.LSFDE46:
 2009 0277 42       		.4byte	.LEFDE46-.LASFDE46
 2010              	.LASFDE46:
 2011 0278 0E       		.4byte	.Lframe0
 2012 0279 28       		.4byte	.LFB25
 2013 027a 87       		.4byte	.LFE25-.LFB25
 2014 027b 01       		.byte	0x4
 2015 027c 42       		.4byte	.LCFI65-.LFB25
 2016              		.byte	0xe
 2017 027d 0D       		.uleb128 0x4
 2018 027e 07       		.byte	0x4
 2019 027f 00       		.4byte	.LCFI66-.LCFI65
 2020              		.byte	0xe
 2021              		.uleb128 0x20
 2022 0280 18000000 		.byte	0x87
 2023              		.uleb128 0x1
 2024 0284 00000000 		.byte	0x4
 2025 0288 00000000 		.4byte	.LCFI67-.LCFI66
 2026 028c 6A000000 		.byte	0xd
 2027 0290 42       		.uleb128 0x7
 2028              		.align	2
 2029 0291 0E       	.LEFDE46:
 2030 0292 04       		.text
 2031 0293 42       	.Letext0:
 2032              		.section	.debug_loc,"",%progbits
 2033 0294 0E       	.Ldebug_loc0:
 2034 0295 18       	.LLST0:
 2035 0296 87       		.4byte	.LFB2
 2036 0297 01       		.4byte	.LCFI0
 2037 0298 42       		.2byte	0x1
 2038              		.byte	0x5d
ARM GAS  C:\Users\blinky\AppData\Local\Temp/ccaubaaa.s 			page 55


 2039 0299 0D       		.4byte	.LCFI0
 2040 029a 07       		.4byte	.LCFI1
 2041 029b 00       		.2byte	0x2
 2042              		.byte	0x7d
 2043              		.sleb128 4
 2044 029c 18000000 		.4byte	.LCFI1
 2045              		.4byte	.LFE2
 2046 02a0 00000000 		.2byte	0x2
 2047 02a4 00000000 		.byte	0x77
 2048 02a8 76000000 		.sleb128 4
 2049 02ac 42       		.4byte	0x0
 2050              		.4byte	0x0
 2051 02ad 0E       	.LLST1:
 2052 02ae 04       		.4byte	.LFB3
 2053 02af 42       		.4byte	.LCFI2
 2054              		.2byte	0x1
 2055 02b0 0E       		.byte	0x5d
 2056 02b1 20       		.4byte	.LCFI2
 2057 02b2 87       		.4byte	.LCFI3
 2058 02b3 01       		.2byte	0x2
 2059 02b4 42       		.byte	0x7d
 2060              		.sleb128 4
 2061 02b5 0D       		.4byte	.LCFI3
 2062 02b6 07       		.4byte	.LFE3
 2063 02b7 00       		.2byte	0x2
 2064              		.byte	0x77
 2065              		.sleb128 4
 2066              		.4byte	0x0
 2067              		.4byte	0x0
 2068              	.LLST2:
 2069              		.4byte	.LFB4
 2070 0000 00000000 		.4byte	.LCFI4
 2071 0004 02000000 		.2byte	0x1
 2072 0008 0100     		.byte	0x5d
 2073 000a 5D       		.4byte	.LCFI4
 2074 000b 02000000 		.4byte	.LCFI5
 2075 000f 04000000 		.2byte	0x2
 2076 0013 0200     		.byte	0x7d
 2077 0015 7D       		.sleb128 4
 2078 0016 04       		.4byte	.LCFI5
 2079 0017 04000000 		.4byte	.LCFI6
 2080 001b 0A000000 		.2byte	0x2
 2081 001f 0200     		.byte	0x7d
 2082 0021 77       		.sleb128 16
 2083 0022 04       		.4byte	.LCFI6
 2084 0023 00000000 		.4byte	.LFE4
 2085 0027 00000000 		.2byte	0x2
 2086              		.byte	0x77
 2087 002b 00000000 		.sleb128 16
 2088 002f 02000000 		.4byte	0x0
 2089 0033 0100     		.4byte	0x0
 2090 0035 5D       	.LLST3:
 2091 0036 02000000 		.4byte	.LFB5
 2092 003a 04000000 		.4byte	.LCFI7
 2093 003e 0200     		.2byte	0x1
 2094 0040 7D       		.byte	0x5d
 2095 0041 04       		.4byte	.LCFI7
ARM GAS  C:\Users\blinky\AppData\Local\Temp/ccaubaaa.s 			page 56


 2096 0042 04000000 		.4byte	.LCFI8
 2097 0046 0A000000 		.2byte	0x2
 2098 004a 0200     		.byte	0x7d
 2099 004c 77       		.sleb128 4
 2100 004d 04       		.4byte	.LCFI8
 2101 004e 00000000 		.4byte	.LFE5
 2102 0052 00000000 		.2byte	0x2
 2103              		.byte	0x77
 2104 0056 00000000 		.sleb128 4
 2105 005a 02000000 		.4byte	0x0
 2106 005e 0100     		.4byte	0x0
 2107 0060 5D       	.LLST4:
 2108 0061 02000000 		.4byte	.LFB6
 2109 0065 04000000 		.4byte	.LCFI9
 2110 0069 0200     		.2byte	0x1
 2111 006b 7D       		.byte	0x5d
 2112 006c 04       		.4byte	.LCFI9
 2113 006d 04000000 		.4byte	.LCFI10
 2114 0071 06000000 		.2byte	0x2
 2115 0075 0200     		.byte	0x7d
 2116 0077 7D       		.sleb128 4
 2117 0078 10       		.4byte	.LCFI10
 2118 0079 06000000 		.4byte	.LCFI11
 2119 007d 6C000000 		.2byte	0x2
 2120 0081 0200     		.byte	0x7d
 2121 0083 77       		.sleb128 16
 2122 0084 10       		.4byte	.LCFI11
 2123 0085 00000000 		.4byte	.LFE6
 2124 0089 00000000 		.2byte	0x2
 2125              		.byte	0x77
 2126 008d 00000000 		.sleb128 16
 2127 0091 02000000 		.4byte	0x0
 2128 0095 0100     		.4byte	0x0
 2129 0097 5D       	.LLST5:
 2130 0098 02000000 		.4byte	.LFB7
 2131 009c 04000000 		.4byte	.LCFI12
 2132 00a0 0200     		.2byte	0x1
 2133 00a2 7D       		.byte	0x5d
 2134 00a3 04       		.4byte	.LCFI12
 2135 00a4 04000000 		.4byte	.LCFI13
 2136 00a8 1C000000 		.2byte	0x2
 2137 00ac 0200     		.byte	0x7d
 2138 00ae 77       		.sleb128 4
 2139 00af 04       		.4byte	.LCFI13
 2140 00b0 00000000 		.4byte	.LFE7
 2141 00b4 00000000 		.2byte	0x2
 2142              		.byte	0x77
 2143 00b8 00000000 		.sleb128 4
 2144 00bc 02000000 		.4byte	0x0
 2145 00c0 0100     		.4byte	0x0
 2146 00c2 5D       	.LLST6:
 2147 00c3 02000000 		.4byte	.LFB8
 2148 00c7 04000000 		.4byte	.LCFI14
 2149 00cb 0200     		.2byte	0x1
 2150 00cd 7D       		.byte	0x5d
 2151 00ce 04       		.4byte	.LCFI14
 2152 00cf 04000000 		.4byte	.LCFI15
ARM GAS  C:\Users\blinky\AppData\Local\Temp/ccaubaaa.s 			page 57


 2153 00d3 06000000 		.2byte	0x2
 2154 00d7 0200     		.byte	0x7d
 2155 00d9 7D       		.sleb128 8
 2156 00da 10       		.4byte	.LCFI15
 2157 00db 06000000 		.4byte	.LCFI16
 2158 00df 24000000 		.2byte	0x2
 2159 00e3 0200     		.byte	0x7d
 2160 00e5 77       		.sleb128 16
 2161 00e6 10       		.4byte	.LCFI16
 2162 00e7 00000000 		.4byte	.LFE8
 2163 00eb 00000000 		.2byte	0x2
 2164              		.byte	0x77
 2165 00ef 00000000 		.sleb128 16
 2166 00f3 02000000 		.4byte	0x0
 2167 00f7 0100     		.4byte	0x0
 2168 00f9 5D       	.LLST7:
 2169 00fa 02000000 		.4byte	.LFB9
 2170 00fe 04000000 		.4byte	.LCFI17
 2171 0102 0200     		.2byte	0x1
 2172 0104 7D       		.byte	0x5d
 2173 0105 04       		.4byte	.LCFI17
 2174 0106 04000000 		.4byte	.LCFI18
 2175 010a 14000000 		.2byte	0x2
 2176 010e 0200     		.byte	0x7d
 2177 0110 77       		.sleb128 8
 2178 0111 04       		.4byte	.LCFI18
 2179 0112 00000000 		.4byte	.LCFI19
 2180 0116 00000000 		.2byte	0x2
 2181              		.byte	0x7d
 2182 011a 00000000 		.sleb128 24
 2183 011e 02000000 		.4byte	.LCFI19
 2184 0122 0100     		.4byte	.LFE9
 2185 0124 5D       		.2byte	0x2
 2186 0125 02000000 		.byte	0x77
 2187 0129 04000000 		.sleb128 24
 2188 012d 0200     		.4byte	0x0
 2189 012f 7D       		.4byte	0x0
 2190 0130 08       	.LLST8:
 2191 0131 04000000 		.4byte	.LFB10
 2192 0135 06000000 		.4byte	.LCFI20
 2193 0139 0200     		.2byte	0x1
 2194 013b 7D       		.byte	0x5d
 2195 013c 10       		.4byte	.LCFI20
 2196 013d 06000000 		.4byte	.LCFI21
 2197 0141 6C000000 		.2byte	0x2
 2198 0145 0200     		.byte	0x7d
 2199 0147 77       		.sleb128 4
 2200 0148 10       		.4byte	.LCFI21
 2201 0149 00000000 		.4byte	.LCFI22
 2202 014d 00000000 		.2byte	0x2
 2203              		.byte	0x7d
 2204 0151 00000000 		.sleb128 32
 2205 0155 02000000 		.4byte	.LCFI22
 2206 0159 0100     		.4byte	.LFE10
 2207 015b 5D       		.2byte	0x2
 2208 015c 02000000 		.byte	0x77
 2209 0160 04000000 		.sleb128 32
ARM GAS  C:\Users\blinky\AppData\Local\Temp/ccaubaaa.s 			page 58


 2210 0164 0200     		.4byte	0x0
 2211 0166 7D       		.4byte	0x0
 2212 0167 08       	.LLST9:
 2213 0168 04000000 		.4byte	.LFB11
 2214 016c 06000000 		.4byte	.LCFI23
 2215 0170 0200     		.2byte	0x1
 2216 0172 7D       		.byte	0x5d
 2217 0173 18       		.4byte	.LCFI23
 2218 0174 06000000 		.4byte	.LCFI24
 2219 0178 54000000 		.2byte	0x2
 2220 017c 0200     		.byte	0x7d
 2221 017e 77       		.sleb128 4
 2222 017f 18       		.4byte	.LCFI24
 2223 0180 00000000 		.4byte	.LCFI25
 2224 0184 00000000 		.2byte	0x2
 2225              		.byte	0x7d
 2226 0188 00000000 		.sleb128 24
 2227 018c 02000000 		.4byte	.LCFI25
 2228 0190 0100     		.4byte	.LFE11
 2229 0192 5D       		.2byte	0x2
 2230 0193 02000000 		.byte	0x77
 2231 0197 04000000 		.sleb128 24
 2232 019b 0200     		.4byte	0x0
 2233 019d 7D       		.4byte	0x0
 2234 019e 04       	.LLST10:
 2235 019f 04000000 		.4byte	.LFB12
 2236 01a3 06000000 		.4byte	.LCFI26
 2237 01a7 0200     		.2byte	0x1
 2238 01a9 7D       		.byte	0x5d
 2239 01aa 20       		.4byte	.LCFI26
 2240 01ab 06000000 		.4byte	.LCFI27
 2241 01af 80000000 		.2byte	0x2
 2242 01b3 0200     		.byte	0x7d
 2243 01b5 77       		.sleb128 4
 2244 01b6 20       		.4byte	.LCFI27
 2245 01b7 00000000 		.4byte	.LCFI28
 2246 01bb 00000000 		.2byte	0x2
 2247              		.byte	0x7d
 2248 01bf 00000000 		.sleb128 24
 2249 01c3 02000000 		.4byte	.LCFI28
 2250 01c7 0100     		.4byte	.LFE12
 2251 01c9 5D       		.2byte	0x2
 2252 01ca 02000000 		.byte	0x77
 2253 01ce 04000000 		.sleb128 24
 2254 01d2 0200     		.4byte	0x0
 2255 01d4 7D       		.4byte	0x0
 2256 01d5 04       	.LLST11:
 2257 01d6 04000000 		.4byte	.LFB13
 2258 01da 06000000 		.4byte	.LCFI29
 2259 01de 0200     		.2byte	0x1
 2260 01e0 7D       		.byte	0x5d
 2261 01e1 18       		.4byte	.LCFI29
 2262 01e2 06000000 		.4byte	.LCFI30
 2263 01e6 50000000 		.2byte	0x2
 2264 01ea 0200     		.byte	0x7d
 2265 01ec 77       		.sleb128 4
 2266 01ed 18       		.4byte	.LCFI30
ARM GAS  C:\Users\blinky\AppData\Local\Temp/ccaubaaa.s 			page 59


 2267 01ee 00000000 		.4byte	.LCFI31
 2268 01f2 00000000 		.2byte	0x2
 2269              		.byte	0x7d
 2270 01f6 00000000 		.sleb128 24
 2271 01fa 02000000 		.4byte	.LCFI31
 2272 01fe 0100     		.4byte	.LFE13
 2273 0200 5D       		.2byte	0x2
 2274 0201 02000000 		.byte	0x77
 2275 0205 04000000 		.sleb128 24
 2276 0209 0200     		.4byte	0x0
 2277 020b 7D       		.4byte	0x0
 2278 020c 04       	.LLST12:
 2279 020d 04000000 		.4byte	.LFB14
 2280 0211 06000000 		.4byte	.LCFI32
 2281 0215 0200     		.2byte	0x1
 2282 0217 7D       		.byte	0x5d
 2283 0218 18       		.4byte	.LCFI32
 2284 0219 06000000 		.4byte	.LCFI33
 2285 021d 6C000000 		.2byte	0x2
 2286 0221 0200     		.byte	0x7d
 2287 0223 77       		.sleb128 4
 2288 0224 18       		.4byte	.LCFI33
 2289 0225 00000000 		.4byte	.LCFI34
 2290 0229 00000000 		.2byte	0x2
 2291              		.byte	0x7d
 2292 022d 00000000 		.sleb128 24
 2293 0231 02000000 		.4byte	.LCFI34
 2294 0235 0100     		.4byte	.LFE14
 2295 0237 5D       		.2byte	0x2
 2296 0238 02000000 		.byte	0x77
 2297 023c 04000000 		.sleb128 24
 2298 0240 0200     		.4byte	0x0
 2299 0242 7D       		.4byte	0x0
 2300 0243 04       	.LLST13:
 2301 0244 04000000 		.4byte	.LFB15
 2302 0248 06000000 		.4byte	.LCFI35
 2303 024c 0200     		.2byte	0x1
 2304 024e 7D       		.byte	0x5d
 2305 024f 18       		.4byte	.LCFI35
 2306 0250 06000000 		.4byte	.LCFI36
 2307 0254 88000000 		.2byte	0x2
 2308 0258 0200     		.byte	0x7d
 2309 025a 77       		.sleb128 4
 2310 025b 18       		.4byte	.LCFI36
 2311 025c 00000000 		.4byte	.LCFI37
 2312 0260 00000000 		.2byte	0x2
 2313              		.byte	0x7d
 2314 0264 00000000 		.sleb128 24
 2315 0268 02000000 		.4byte	.LCFI37
 2316 026c 0100     		.4byte	.LFE15
 2317 026e 5D       		.2byte	0x2
 2318 026f 02000000 		.byte	0x77
 2319 0273 04000000 		.sleb128 24
 2320 0277 0200     		.4byte	0x0
 2321 0279 7D       		.4byte	0x0
 2322 027a 04       	.LLST14:
 2323 027b 04000000 		.4byte	.LFB16
ARM GAS  C:\Users\blinky\AppData\Local\Temp/ccaubaaa.s 			page 60


 2324 027f 06000000 		.4byte	.LCFI38
 2325 0283 0200     		.2byte	0x1
 2326 0285 7D       		.byte	0x5d
 2327 0286 18       		.4byte	.LCFI38
 2328 0287 06000000 		.4byte	.LCFI39
 2329 028b 48000000 		.2byte	0x2
 2330 028f 0200     		.byte	0x7d
 2331 0291 77       		.sleb128 4
 2332 0292 18       		.4byte	.LCFI39
 2333 0293 00000000 		.4byte	.LCFI40
 2334 0297 00000000 		.2byte	0x2
 2335              		.byte	0x7d
 2336 029b 00000000 		.sleb128 24
 2337 029f 02000000 		.4byte	.LCFI40
 2338 02a3 0100     		.4byte	.LFE16
 2339 02a5 5D       		.2byte	0x2
 2340 02a6 02000000 		.byte	0x77
 2341 02aa 04000000 		.sleb128 24
 2342 02ae 0200     		.4byte	0x0
 2343 02b0 7D       		.4byte	0x0
 2344 02b1 04       	.LLST15:
 2345 02b2 04000000 		.4byte	.LFB17
 2346 02b6 06000000 		.4byte	.LCFI41
 2347 02ba 0200     		.2byte	0x1
 2348 02bc 7D       		.byte	0x5d
 2349 02bd 18       		.4byte	.LCFI41
 2350 02be 06000000 		.4byte	.LCFI42
 2351 02c2 58000000 		.2byte	0x2
 2352 02c6 0200     		.byte	0x7d
 2353 02c8 77       		.sleb128 4
 2354 02c9 18       		.4byte	.LCFI42
 2355 02ca 00000000 		.4byte	.LCFI43
 2356 02ce 00000000 		.2byte	0x2
 2357              		.byte	0x7d
 2358 02d2 00000000 		.sleb128 32
 2359 02d6 02000000 		.4byte	.LCFI43
 2360 02da 0100     		.4byte	.LFE17
 2361 02dc 5D       		.2byte	0x2
 2362 02dd 02000000 		.byte	0x77
 2363 02e1 04000000 		.sleb128 32
 2364 02e5 0200     		.4byte	0x0
 2365 02e7 7D       		.4byte	0x0
 2366 02e8 04       	.LLST16:
 2367 02e9 04000000 		.4byte	.LFB18
 2368 02ed 06000000 		.4byte	.LCFI44
 2369 02f1 0200     		.2byte	0x1
 2370 02f3 7D       		.byte	0x5d
 2371 02f4 18       		.4byte	.LCFI44
 2372 02f5 06000000 		.4byte	.LCFI45
 2373 02f9 40000000 		.2byte	0x2
 2374 02fd 0200     		.byte	0x7d
 2375 02ff 77       		.sleb128 8
 2376 0300 18       		.4byte	.LCFI45
 2377 0301 00000000 		.4byte	.LCFI46
 2378 0305 00000000 		.2byte	0x2
 2379              		.byte	0x7d
 2380 0309 00000000 		.sleb128 24
ARM GAS  C:\Users\blinky\AppData\Local\Temp/ccaubaaa.s 			page 61


 2381 030d 02000000 		.4byte	.LCFI46
 2382 0311 0100     		.4byte	.LFE18
 2383 0313 5D       		.2byte	0x2
 2384 0314 02000000 		.byte	0x77
 2385 0318 04000000 		.sleb128 24
 2386 031c 0200     		.4byte	0x0
 2387 031e 7D       		.4byte	0x0
 2388 031f 04       	.LLST17:
 2389 0320 04000000 		.4byte	.LFB19
 2390 0324 06000000 		.4byte	.LCFI47
 2391 0328 0200     		.2byte	0x1
 2392 032a 7D       		.byte	0x5d
 2393 032b 20       		.4byte	.LCFI47
 2394 032c 06000000 		.4byte	.LCFI48
 2395 0330 68000000 		.2byte	0x2
 2396 0334 0200     		.byte	0x7d
 2397 0336 77       		.sleb128 8
 2398 0337 20       		.4byte	.LCFI48
 2399 0338 00000000 		.4byte	.LCFI49
 2400 033c 00000000 		.2byte	0x2
 2401              		.byte	0x7d
 2402 0340 00000000 		.sleb128 16
 2403 0344 02000000 		.4byte	.LCFI49
 2404 0348 0100     		.4byte	.LFE19
 2405 034a 5D       		.2byte	0x2
 2406 034b 02000000 		.byte	0x77
 2407 034f 04000000 		.sleb128 16
 2408 0353 0200     		.4byte	0x0
 2409 0355 7D       		.4byte	0x0
 2410 0356 08       	.LLST18:
 2411 0357 04000000 		.4byte	.LFB20
 2412 035b 06000000 		.4byte	.LCFI50
 2413 035f 0200     		.2byte	0x1
 2414 0361 7D       		.byte	0x5d
 2415 0362 18       		.4byte	.LCFI50
 2416 0363 06000000 		.4byte	.LCFI51
 2417 0367 B0000000 		.2byte	0x2
 2418 036b 0200     		.byte	0x7d
 2419 036d 77       		.sleb128 8
 2420 036e 18       		.4byte	.LCFI51
 2421 036f 00000000 		.4byte	.LCFI52
 2422 0373 00000000 		.2byte	0x2
 2423              		.byte	0x7d
 2424 0377 00000000 		.sleb128 16
 2425 037b 02000000 		.4byte	.LCFI52
 2426 037f 0100     		.4byte	.LFE20
 2427 0381 5D       		.2byte	0x2
 2428 0382 02000000 		.byte	0x77
 2429 0386 04000000 		.sleb128 16
 2430 038a 0200     		.4byte	0x0
 2431 038c 7D       		.4byte	0x0
 2432 038d 08       	.LLST19:
 2433 038e 04000000 		.4byte	.LFB21
 2434 0392 06000000 		.4byte	.LCFI53
 2435 0396 0200     		.2byte	0x1
 2436 0398 7D       		.byte	0x5d
 2437 0399 10       		.4byte	.LCFI53
ARM GAS  C:\Users\blinky\AppData\Local\Temp/ccaubaaa.s 			page 62


 2438 039a 06000000 		.4byte	.LCFI54
 2439 039e 5C000000 		.2byte	0x2
 2440 03a2 0200     		.byte	0x7d
 2441 03a4 77       		.sleb128 4
 2442 03a5 10       		.4byte	.LCFI54
 2443 03a6 00000000 		.4byte	.LCFI55
 2444 03aa 00000000 		.2byte	0x2
 2445              		.byte	0x7d
 2446 03ae 00000000 		.sleb128 16
 2447 03b2 02000000 		.4byte	.LCFI55
 2448 03b6 0100     		.4byte	.LFE21
 2449 03b8 5D       		.2byte	0x2
 2450 03b9 02000000 		.byte	0x77
 2451 03bd 04000000 		.sleb128 16
 2452 03c1 0200     		.4byte	0x0
 2453 03c3 7D       		.4byte	0x0
 2454 03c4 08       	.LLST20:
 2455 03c5 04000000 		.4byte	.LFB22
 2456 03c9 06000000 		.4byte	.LCFI56
 2457 03cd 0200     		.2byte	0x1
 2458 03cf 7D       		.byte	0x5d
 2459 03d0 10       		.4byte	.LCFI56
 2460 03d1 06000000 		.4byte	.LCFI57
 2461 03d5 54000000 		.2byte	0x2
 2462 03d9 0200     		.byte	0x7d
 2463 03db 77       		.sleb128 8
 2464 03dc 10       		.4byte	.LCFI57
 2465 03dd 00000000 		.4byte	.LCFI58
 2466 03e1 00000000 		.2byte	0x2
 2467              		.byte	0x7d
 2468 03e5 00000000 		.sleb128 24
 2469 03e9 02000000 		.4byte	.LCFI58
 2470 03ed 0100     		.4byte	.LFE22
 2471 03ef 5D       		.2byte	0x2
 2472 03f0 02000000 		.byte	0x77
 2473 03f4 04000000 		.sleb128 24
 2474 03f8 0200     		.4byte	0x0
 2475 03fa 7D       		.4byte	0x0
 2476 03fb 04       	.LLST21:
 2477 03fc 04000000 		.4byte	.LFB23
 2478 0400 06000000 		.4byte	.LCFI59
 2479 0404 0200     		.2byte	0x1
 2480 0406 7D       		.byte	0x5d
 2481 0407 10       		.4byte	.LCFI59
 2482 0408 06000000 		.4byte	.LCFI60
 2483 040c 20000000 		.2byte	0x2
 2484 0410 0200     		.byte	0x7d
 2485 0412 77       		.sleb128 4
 2486 0413 10       		.4byte	.LCFI60
 2487 0414 00000000 		.4byte	.LCFI61
 2488 0418 00000000 		.2byte	0x2
 2489              		.byte	0x7d
 2490 041c 00000000 		.sleb128 40
 2491 0420 02000000 		.4byte	.LCFI61
 2492 0424 0100     		.4byte	.LFE23
 2493 0426 5D       		.2byte	0x2
 2494 0427 02000000 		.byte	0x77
ARM GAS  C:\Users\blinky\AppData\Local\Temp/ccaubaaa.s 			page 63


 2495 042b 04000000 		.sleb128 40
 2496 042f 0200     		.4byte	0x0
 2497 0431 7D       		.4byte	0x0
 2498 0432 08       	.LLST22:
 2499 0433 04000000 		.4byte	.LFB24
 2500 0437 06000000 		.4byte	.LCFI62
 2501 043b 0200     		.2byte	0x1
 2502 043d 7D       		.byte	0x5d
 2503 043e 18       		.4byte	.LCFI62
 2504 043f 06000000 		.4byte	.LCFI63
 2505 0443 7E000000 		.2byte	0x2
 2506 0447 0200     		.byte	0x7d
 2507 0449 77       		.sleb128 4
 2508 044a 18       		.4byte	.LCFI63
 2509 044b 00000000 		.4byte	.LCFI64
 2510 044f 00000000 		.2byte	0x2
 2511              		.byte	0x7d
 2512 0453 00000000 		.sleb128 24
 2513 0457 02000000 		.4byte	.LCFI64
 2514 045b 0100     		.4byte	.LFE24
 2515 045d 5D       		.2byte	0x2
 2516 045e 02000000 		.byte	0x77
 2517 0462 04000000 		.sleb128 24
 2518 0466 0200     		.4byte	0x0
 2519 0468 7D       		.4byte	0x0
 2520 0469 04       	.LLST23:
 2521 046a 04000000 		.4byte	.LFB25
 2522 046e 06000000 		.4byte	.LCFI65
 2523 0472 0200     		.2byte	0x1
 2524 0474 7D       		.byte	0x5d
 2525 0475 28       		.4byte	.LCFI65
 2526 0476 06000000 		.4byte	.LCFI66
 2527 047a 96000000 		.2byte	0x2
 2528 047e 0200     		.byte	0x7d
 2529 0480 77       		.sleb128 4
 2530 0481 28       		.4byte	.LCFI66
 2531 0482 00000000 		.4byte	.LCFI67
 2532 0486 00000000 		.2byte	0x2
 2533              		.byte	0x7d
 2534 048a 00000000 		.sleb128 32
 2535 048e 02000000 		.4byte	.LCFI67
 2536 0492 0100     		.4byte	.LFE25
 2537 0494 5D       		.2byte	0x2
 2538 0495 02000000 		.byte	0x77
 2539 0499 04000000 		.sleb128 32
 2540 049d 0200     		.4byte	0x0
 2541 049f 7D       		.4byte	0x0
 2542 04a0 04       		.file 2 "./Generated_Source/PSoC5/cytypes.h"
 2543 04a1 04000000 		.file 3 "./Generated_Source/PSoC5/CYDMAC.H"
 2544 04a5 06000000 		.section	.debug_info
 2545 04a9 0200     		.4byte	0xa25
 2546 04ab 7D       		.2byte	0x2
 2547 04ac 18       		.4byte	.Ldebug_abbrev0
 2548 04ad 06000000 		.byte	0x4
 2549 04b1 6A000000 		.uleb128 0x1
 2550 04b5 0200     		.ascii	"GNU C 4.2.1\000"
 2551 04b7 77       		.byte	0x1
ARM GAS  C:\Users\blinky\AppData\Local\Temp/ccaubaaa.s 			page 64


 2552 04b8 18       		.ascii	"./Generated_Source/PSoC5/CyDmac.c\000"
 2553 04b9 00000000 		.ascii	"C:\\Users\\blinky\\Documents\\PSoC Creator\\CarStai"
 2554 04bd 00000000 		.ascii	"ro\\CarStairo.cydsn\000"
 2555              		.4byte	0x0
 2556 04c1 00000000 		.4byte	.Ldebug_line0
 2557 04c5 02000000 		.uleb128 0x2
 2558 04c9 0100     		.byte	0x1
 2559 04cb 5D       		.byte	0x8
 2560 04cc 02000000 		.ascii	"unsigned char\000"
 2561 04d0 04000000 		.uleb128 0x3
 2562 04d4 0200     		.ascii	"uint8\000"
 2563 04d6 7D       		.byte	0x2
 2564 04d7 04       		.byte	0x25
 2565 04d8 04000000 		.4byte	0x84
 2566 04dc 06000000 		.uleb128 0x3
 2567 04e0 0200     		.ascii	"uint16\000"
 2568 04e2 7D       		.byte	0x2
 2569 04e3 20       		.byte	0x26
 2570 04e4 06000000 		.4byte	0xb0
 2571 04e8 76000000 		.uleb128 0x2
 2572 04ec 0200     		.byte	0x2
 2573 04ee 77       		.byte	0x7
 2574 04ef 20       		.ascii	"short unsigned int\000"
 2575 04f0 00000000 		.uleb128 0x3
 2576 04f4 00000000 		.ascii	"uint32\000"
 2577              		.byte	0x2
 2578              		.byte	0x27
 2579              		.4byte	0xd4
 2580 0000 250A0000 		.uleb128 0x2
 2581 0004 0200     		.byte	0x4
 2582 0006 00000000 		.byte	0x7
 2583 000a 04       		.ascii	"long unsigned int\000"
 2584 000b 01       		.uleb128 0x2
 2585 000c 474E5520 		.byte	0x1
 2585      4320342E 
 2585      322E3100 
 2586 0018 01       		.byte	0x6
 2587 0019 2E2F4765 		.ascii	"signed char\000"
 2587      6E657261 
 2587      7465645F 
 2587      536F7572 
 2587      63652F50 
 2588 003b 433A5C55 		.uleb128 0x2
 2588      73657273 
 2588      5C626C69 
 2588      6E6B795C 
 2588      446F6375 
 2589 0069 726F5C43 		.byte	0x2
 2589      61725374 
 2589      6169726F 
 2589      2E637964 
 2589      736E00
 2590 007c 00000000 		.byte	0x5
 2591 0080 00000000 		.ascii	"short int\000"
 2592 0084 02       		.uleb128 0x2
 2593 0085 01       		.byte	0x4
 2594 0086 08       		.byte	0x5
ARM GAS  C:\Users\blinky\AppData\Local\Temp/ccaubaaa.s 			page 65


 2595 0087 756E7369 		.ascii	"long int\000"
 2595      676E6564 
 2595      20636861 
 2595      7200
 2596 0095 03       		.uleb128 0x3
 2597 0096 75696E74 		.ascii	"cystatus\000"
 2597      3800
 2598 009c 02       		.byte	0x2
 2599 009d 25       		.byte	0xd8
 2600 009e 84000000 		.4byte	0xd4
 2601 00a2 03       		.uleb128 0x4
 2602 00a3 75696E74 		.ascii	"_dmac_ch\000"
 2602      313600
 2603 00aa 02       		.byte	0x10
 2604 00ab 26       		.byte	0x3
 2605 00ac B0000000 		.byte	0x27
 2606 00b0 02       		.4byte	0x182
 2607 00b1 02       		.uleb128 0x5
 2608 00b2 07       		.ascii	"basic_cfg\000"
 2609 00b3 73686F72 		.byte	0x3
 2609      7420756E 
 2609      7369676E 
 2609      65642069 
 2609      6E7400
 2610 00c6 03       		.byte	0x28
 2611 00c7 75696E74 		.4byte	0x182
 2611      333200
 2612 00ce 02       		.byte	0x2
 2613 00cf 27       		.byte	0x23
 2614 00d0 D4000000 		.uleb128 0x0
 2615 00d4 02       		.uleb128 0x5
 2616 00d5 04       		.ascii	"action\000"
 2617 00d6 07       		.byte	0x3
 2618 00d7 6C6F6E67 		.byte	0x29
 2618      20756E73 
 2618      69676E65 
 2618      6420696E 
 2618      7400
 2619 00e9 02       		.4byte	0x182
 2620 00ea 01       		.byte	0x2
 2621 00eb 06       		.byte	0x23
 2622 00ec 7369676E 		.uleb128 0x4
 2622      65642063 
 2622      68617200 
 2623 00f8 02       		.uleb128 0x5
 2624 00f9 02       		.ascii	"basic_status\000"
 2625 00fa 05       		.byte	0x3
 2626 00fb 73686F72 		.byte	0x2a
 2626      7420696E 
 2626      7400
 2627 0105 02       		.4byte	0x182
 2628 0106 04       		.byte	0x2
 2629 0107 05       		.byte	0x23
 2630 0108 6C6F6E67 		.uleb128 0x8
 2630      20696E74 
 2630      00
 2631 0111 03       		.uleb128 0x5
ARM GAS  C:\Users\blinky\AppData\Local\Temp/ccaubaaa.s 			page 66


 2632 0112 63797374 		.ascii	"reserved\000"
 2632      61747573 
 2632      00
 2633 011b 02       		.byte	0x3
 2634 011c D8       		.byte	0x2b
 2635 011d D4000000 		.4byte	0x182
 2636 0121 04       		.byte	0x2
 2637 0122 5F646D61 		.byte	0x23
 2637      635F6368 
 2637      00
 2638 012b 10       		.uleb128 0xc
 2639 012c 03       		.byte	0x0
 2640 012d 27       		.uleb128 0x6
 2641 012e 82010000 		.4byte	0x95
 2642 0132 05       		.4byte	0x192
 2643 0133 62617369 		.uleb128 0x7
 2643      635F6366 
 2643      6700
 2644 013d 03       		.4byte	0x192
 2645 013e 28       		.byte	0x3
 2646 013f 82010000 		.byte	0x0
 2647 0143 02       		.uleb128 0x8
 2648 0144 23       		.byte	0x4
 2649 0145 00       		.byte	0x7
 2650 0146 05       		.uleb128 0x4
 2651 0147 61637469 		.ascii	"_dmac_cfgmem\000"
 2651      6F6E00
 2652 014e 03       		.byte	0x8
 2653 014f 29       		.byte	0x3
 2654 0150 82010000 		.byte	0x30
 2655 0154 02       		.4byte	0x1c9
 2656 0155 23       		.uleb128 0x5
 2657 0156 04       		.ascii	"CFG0\000"
 2658 0157 05       		.byte	0x3
 2659 0158 62617369 		.byte	0x31
 2659      635F7374 
 2659      61747573 
 2659      00
 2660 0165 03       		.4byte	0x182
 2661 0166 2A       		.byte	0x2
 2662 0167 82010000 		.byte	0x23
 2663 016b 02       		.uleb128 0x0
 2664 016c 23       		.uleb128 0x5
 2665 016d 08       		.ascii	"CFG1\000"
 2666 016e 05       		.byte	0x3
 2667 016f 72657365 		.byte	0x32
 2667      72766564 
 2667      00
 2668 0178 03       		.4byte	0x182
 2669 0179 2B       		.byte	0x2
 2670 017a 82010000 		.byte	0x23
 2671 017e 02       		.uleb128 0x4
 2672 017f 23       		.byte	0x0
 2673 0180 0C       		.uleb128 0x4
 2674 0181 00       		.ascii	"_dmac_tdmem\000"
 2675 0182 06       		.byte	0x8
 2676 0183 95000000 		.byte	0x3
ARM GAS  C:\Users\blinky\AppData\Local\Temp/ccaubaaa.s 			page 67


 2677 0187 92010000 		.byte	0x37
 2678 018b 07       		.4byte	0x1fa
 2679 018c 92010000 		.uleb128 0x5
 2680 0190 03       		.ascii	"TD0\000"
 2681 0191 00       		.byte	0x3
 2682 0192 08       		.byte	0x38
 2683 0193 04       		.4byte	0x182
 2684 0194 07       		.byte	0x2
 2685 0195 04       		.byte	0x23
 2686 0196 5F646D61 		.uleb128 0x0
 2686      635F6366 
 2686      676D656D 
 2686      00
 2687 01a3 08       		.uleb128 0x5
 2688 01a4 03       		.ascii	"TD1\000"
 2689 01a5 30       		.byte	0x3
 2690 01a6 C9010000 		.byte	0x39
 2691 01aa 05       		.4byte	0x182
 2692 01ab 43464730 		.byte	0x2
 2692      00
 2693 01b0 03       		.byte	0x23
 2694 01b1 31       		.uleb128 0x4
 2695 01b2 82010000 		.byte	0x0
 2696 01b6 02       		.uleb128 0x9
 2697 01b7 23       		.byte	0x1
 2698 01b8 00       		.ascii	"CyEnterCriticalSection\000"
 2699 01b9 05       		.byte	0x1
 2700 01ba 43464731 		.byte	0x37
 2700      00
 2701 01bf 03       		.byte	0x1
 2702 01c0 32       		.4byte	.LFB2
 2703 01c1 82010000 		.4byte	.LFE2
 2704 01c5 02       		.4byte	.LLST0
 2705 01c6 23       		.uleb128 0x9
 2706 01c7 04       		.byte	0x1
 2707 01c8 00       		.ascii	"CyExitCriticalSection\000"
 2708 01c9 04       		.byte	0x1
 2709 01ca 5F646D61 		.byte	0x3b
 2709      635F7464 
 2709      6D656D00 
 2710 01d6 08       		.byte	0x1
 2711 01d7 03       		.4byte	.LFB3
 2712 01d8 37       		.4byte	.LFE3
 2713 01d9 FA010000 		.4byte	.LLST1
 2714 01dd 05       		.uleb128 0xa
 2715 01de 54443000 		.byte	0x1
 2716 01e2 03       		.ascii	"CyDmacConfigure\000"
 2717 01e3 38       		.byte	0x1
 2718 01e4 82010000 		.byte	0x50
 2719 01e8 02       		.byte	0x1
 2720 01e9 23       		.4byte	.LFB4
 2721 01ea 00       		.4byte	.LFE4
 2722 01eb 05       		.4byte	.LLST2
 2723 01ec 54443100 		.4byte	0x27f
 2724 01f0 03       		.uleb128 0xb
 2725 01f1 39       		.ascii	"index\000"
 2726 01f2 82010000 		.byte	0x1
ARM GAS  C:\Users\blinky\AppData\Local\Temp/ccaubaaa.s 			page 68


 2727 01f6 02       		.byte	0x51
 2728 01f7 23       		.4byte	0x95
 2729 01f8 04       		.byte	0x2
 2730 01f9 00       		.byte	0x91
 2731 01fa 09       		.sleb128 -9
 2732 01fb 01       		.byte	0x0
 2733 01fc 4379456E 		.uleb128 0xc
 2733      74657243 
 2733      72697469 
 2733      63616C53 
 2733      65637469 
 2734 0213 01       		.byte	0x1
 2735 0214 37       		.ascii	"CyDmacError\000"
 2736 0215 01       		.byte	0x1
 2737 0216 00000000 		.byte	0x76
 2738 021a 0A000000 		.byte	0x1
 2739 021e 00000000 		.4byte	0x95
 2740 0222 09       		.4byte	.LFB5
 2741 0223 01       		.4byte	.LFE5
 2742 0224 43794578 		.4byte	.LLST3
 2742      69744372 
 2742      69746963 
 2742      616C5365 
 2742      6374696F 
 2743 023a 01       		.uleb128 0xa
 2744 023b 3B       		.byte	0x1
 2745 023c 01       		.ascii	"CyDmacClearError\000"
 2746 023d 00000000 		.byte	0x1
 2747 0241 0A000000 		.byte	0x90
 2748 0245 2B000000 		.byte	0x1
 2749 0249 0A       		.4byte	.LFB6
 2750 024a 01       		.4byte	.LFE6
 2751 024b 4379446D 		.4byte	.LLST4
 2751      6163436F 
 2751      6E666967 
 2751      75726500 
 2752 025b 01       		.4byte	0x2d7
 2753 025c 50       		.uleb128 0xd
 2754 025d 01       		.ascii	"error\000"
 2755 025e 00000000 		.byte	0x1
 2756 0262 6C000000 		.byte	0x8f
 2757 0266 56000000 		.4byte	0x95
 2758 026a 7F020000 		.byte	0x2
 2759 026e 0B       		.byte	0x91
 2760 026f 696E6465 		.sleb128 -9
 2760      7800
 2761 0275 01       		.byte	0x0
 2762 0276 51       		.uleb128 0xc
 2763 0277 95000000 		.byte	0x1
 2764 027b 02       		.ascii	"CyDmacErrorAddress\000"
 2765 027c 91       		.byte	0x1
 2766 027d 77       		.byte	0xab
 2767 027e 00       		.byte	0x1
 2768 027f 0C       		.4byte	0xc6
 2769 0280 01       		.4byte	.LFB7
 2770 0281 4379446D 		.4byte	.LFE7
 2770      61634572 
ARM GAS  C:\Users\blinky\AppData\Local\Temp/ccaubaaa.s 			page 69


 2770      726F7200 
 2771 028d 01       		.4byte	.LLST5
 2772 028e 76       		.uleb128 0xe
 2773 028f 01       		.byte	0x1
 2774 0290 95000000 		.ascii	"CyDmaChAlloc\000"
 2775 0294 00000000 		.byte	0x1
 2776 0298 1C000000 		.byte	0xc2
 2777 029c 8D000000 		.byte	0x1
 2778 02a0 0A       		.4byte	0x95
 2779 02a1 01       		.4byte	.LFB8
 2780 02a2 4379446D 		.4byte	.LFE8
 2780      6163436C 
 2780      65617245 
 2780      72726F72 
 2780      00
 2781 02b3 01       		.4byte	.LLST6
 2782 02b4 90       		.4byte	0x348
 2783 02b5 01       		.uleb128 0xb
 2784 02b6 00000000 		.ascii	"index\000"
 2785 02ba 24000000 		.byte	0x1
 2786 02be B8000000 		.byte	0xc3
 2787 02c2 D7020000 		.4byte	0x95
 2788 02c6 0D       		.byte	0x2
 2789 02c7 6572726F 		.byte	0x91
 2789      7200
 2790 02cd 01       		.sleb128 -13
 2791 02ce 8F       		.uleb128 0xb
 2792 02cf 95000000 		.ascii	"channel\000"
 2793 02d3 02       		.byte	0x1
 2794 02d4 91       		.byte	0xc4
 2795 02d5 77       		.4byte	0xc6
 2796 02d6 00       		.byte	0x2
 2797 02d7 0C       		.byte	0x91
 2798 02d8 01       		.sleb128 -12
 2799 02d9 4379446D 		.byte	0x0
 2799      61634572 
 2799      726F7241 
 2799      64647265 
 2799      737300
 2800 02ec 01       		.uleb128 0xe
 2801 02ed AB       		.byte	0x1
 2802 02ee 01       		.ascii	"CyDmaChFree\000"
 2803 02ef C6000000 		.byte	0x1
 2804 02f3 00000000 		.byte	0xf2
 2805 02f7 14000000 		.byte	0x1
 2806 02fb EF000000 		.4byte	0x111
 2807 02ff 0E       		.4byte	.LFB9
 2808 0300 01       		.4byte	.LFE9
 2809 0301 4379446D 		.4byte	.LLST7
 2809      61436841 
 2809      6C6C6F63 
 2809      00
 2810 030e 01       		.4byte	0x38a
 2811 030f C2       		.uleb128 0xf
 2812 0310 01       		.4byte	.LASF0
 2813 0311 95000000 		.byte	0x1
 2814 0315 00000000 		.byte	0xf1
ARM GAS  C:\Users\blinky\AppData\Local\Temp/ccaubaaa.s 			page 70


 2815 0319 6C000000 		.4byte	0x95
 2816 031d 1A010000 		.byte	0x2
 2817 0321 48030000 		.byte	0x91
 2818 0325 0B       		.sleb128 -17
 2819 0326 696E6465 		.uleb128 0x10
 2819      7800
 2820 032c 01       		.4byte	.LASF1
 2821 032d C3       		.byte	0x1
 2822 032e 95000000 		.byte	0xf3
 2823 0332 02       		.4byte	0x111
 2824 0333 91       		.byte	0x2
 2825 0334 73       		.byte	0x91
 2826 0335 0B       		.sleb128 -12
 2827 0336 6368616E 		.byte	0x0
 2827      6E656C00 
 2828 033e 01       		.uleb128 0x11
 2829 033f C4       		.byte	0x1
 2830 0340 C6000000 		.ascii	"CyDmaChEnable\000"
 2831 0344 02       		.byte	0x1
 2832 0345 91       		.2byte	0x11f
 2833 0346 74       		.byte	0x1
 2834 0347 00       		.4byte	0x111
 2835 0348 0E       		.4byte	.LFB10
 2836 0349 01       		.4byte	.LFE10
 2837 034a 4379446D 		.4byte	.LLST8
 2837      61436846 
 2837      72656500 
 2838 0356 01       		.4byte	0x3e8
 2839 0357 F2       		.uleb128 0x12
 2840 0358 01       		.4byte	.LASF0
 2841 0359 11010000 		.byte	0x1
 2842 035d 00000000 		.2byte	0x11e
 2843 0361 54000000 		.4byte	0x95
 2844 0365 51010000 		.byte	0x2
 2845 0369 8A030000 		.byte	0x91
 2846 036d 0F       		.sleb128 -17
 2847 036e 00000000 		.uleb128 0x13
 2848 0372 01       		.ascii	"preserveTds\000"
 2849 0373 F1       		.byte	0x1
 2850 0374 95000000 		.2byte	0x11e
 2851 0378 02       		.4byte	0x95
 2852 0379 91       		.byte	0x2
 2853 037a 6F       		.byte	0x91
 2854 037b 10       		.sleb128 -18
 2855 037c 41000000 		.uleb128 0x14
 2856 0380 01       		.4byte	.LASF1
 2857 0381 F3       		.byte	0x1
 2858 0382 11010000 		.2byte	0x120
 2859 0386 02       		.4byte	0x111
 2860 0387 91       		.byte	0x2
 2861 0388 74       		.byte	0x91
 2862 0389 00       		.sleb128 -12
 2863 038a 11       		.byte	0x0
 2864 038b 01       		.uleb128 0x11
 2865 038c 4379446D 		.byte	0x1
 2865      61436845 
 2865      6E61626C 
ARM GAS  C:\Users\blinky\AppData\Local\Temp/ccaubaaa.s 			page 71


 2865      6500
 2866 039a 01       		.ascii	"CyDmaChDisable\000"
 2867 039b 1F01     		.byte	0x1
 2868 039d 01       		.2byte	0x149
 2869 039e 11010000 		.byte	0x1
 2870 03a2 00000000 		.4byte	0x111
 2871 03a6 80000000 		.4byte	.LFB11
 2872 03aa 88010000 		.4byte	.LFE11
 2873 03ae E8030000 		.4byte	.LLST9
 2874 03b2 12       		.4byte	0x430
 2875 03b3 00000000 		.uleb128 0x12
 2876 03b7 01       		.4byte	.LASF0
 2877 03b8 1E01     		.byte	0x1
 2878 03ba 95000000 		.2byte	0x148
 2879 03be 02       		.4byte	0x95
 2880 03bf 91       		.byte	0x2
 2881 03c0 6F       		.byte	0x91
 2882 03c1 13       		.sleb128 -17
 2883 03c2 70726573 		.uleb128 0x14
 2883      65727665 
 2883      54647300 
 2884 03ce 01       		.4byte	.LASF1
 2885 03cf 1E01     		.byte	0x1
 2886 03d1 95000000 		.2byte	0x14a
 2887 03d5 02       		.4byte	0x111
 2888 03d6 91       		.byte	0x2
 2889 03d7 6E       		.byte	0x91
 2890 03d8 14       		.sleb128 -12
 2891 03d9 41000000 		.byte	0x0
 2892 03dd 01       		.uleb128 0x11
 2893 03de 2001     		.byte	0x1
 2894 03e0 11010000 		.ascii	"CyDmaChPriority\000"
 2895 03e4 02       		.byte	0x1
 2896 03e5 91       		.2byte	0x16f
 2897 03e6 74       		.byte	0x1
 2898 03e7 00       		.4byte	0x111
 2899 03e8 11       		.4byte	.LFB12
 2900 03e9 01       		.4byte	.LFE12
 2901 03ea 4379446D 		.4byte	.LLST10
 2901      61436844 
 2901      69736162 
 2901      6C6500
 2902 03f9 01       		.4byte	0x49e
 2903 03fa 4901     		.uleb128 0x12
 2904 03fc 01       		.4byte	.LASF0
 2905 03fd 11010000 		.byte	0x1
 2906 0401 00000000 		.2byte	0x16e
 2907 0405 50000000 		.4byte	0x95
 2908 0409 BF010000 		.byte	0x2
 2909 040d 30040000 		.byte	0x91
 2910 0411 12       		.sleb128 -17
 2911 0412 00000000 		.uleb128 0x13
 2912 0416 01       		.ascii	"priority\000"
 2913 0417 4801     		.byte	0x1
 2914 0419 95000000 		.2byte	0x16e
 2915 041d 02       		.4byte	0x95
 2916 041e 91       		.byte	0x2
ARM GAS  C:\Users\blinky\AppData\Local\Temp/ccaubaaa.s 			page 72


 2917 041f 6F       		.byte	0x91
 2918 0420 14       		.sleb128 -18
 2919 0421 41000000 		.uleb128 0x15
 2920 0425 01       		.ascii	"Value\000"
 2921 0426 4A01     		.byte	0x1
 2922 0428 11010000 		.2byte	0x170
 2923 042c 02       		.4byte	0x95
 2924 042d 91       		.byte	0x2
 2925 042e 74       		.byte	0x91
 2926 042f 00       		.sleb128 -13
 2927 0430 11       		.uleb128 0x14
 2928 0431 01       		.4byte	.LASF1
 2929 0432 4379446D 		.byte	0x1
 2929      61436850 
 2929      72696F72 
 2929      69747900 
 2930 0442 01       		.2byte	0x171
 2931 0443 6F01     		.4byte	0x111
 2932 0445 01       		.byte	0x2
 2933 0446 11010000 		.byte	0x91
 2934 044a 00000000 		.sleb128 -12
 2935 044e 6C000000 		.byte	0x0
 2936 0452 F6010000 		.uleb128 0x11
 2937 0456 9E040000 		.byte	0x1
 2938 045a 12       		.ascii	"CyDmaChSetExtendedAddress\000"
 2939 045b 00000000 		.byte	0x1
 2940 045f 01       		.2byte	0x19c
 2941 0460 6E01     		.byte	0x1
 2942 0462 95000000 		.4byte	0x111
 2943 0466 02       		.4byte	.LFB13
 2944 0467 91       		.4byte	.LFE13
 2945 0468 6F       		.4byte	.LLST11
 2946 0469 13       		.4byte	0x50f
 2947 046a 7072696F 		.uleb128 0x12
 2947      72697479 
 2947      00
 2948 0473 01       		.4byte	.LASF0
 2949 0474 6E01     		.byte	0x1
 2950 0476 95000000 		.2byte	0x19b
 2951 047a 02       		.4byte	0x95
 2952 047b 91       		.byte	0x2
 2953 047c 6E       		.byte	0x91
 2954 047d 15       		.sleb128 -17
 2955 047e 56616C75 		.uleb128 0x12
 2955      6500
 2956 0484 01       		.4byte	.LASF2
 2957 0485 7001     		.byte	0x1
 2958 0487 95000000 		.2byte	0x19b
 2959 048b 02       		.4byte	0xa2
 2960 048c 91       		.byte	0x2
 2961 048d 73       		.byte	0x91
 2962 048e 14       		.sleb128 -20
 2963 048f 41000000 		.uleb128 0x12
 2964 0493 01       		.4byte	.LASF3
 2965 0494 7101     		.byte	0x1
 2966 0496 11010000 		.2byte	0x19b
 2967 049a 02       		.4byte	0xa2
ARM GAS  C:\Users\blinky\AppData\Local\Temp/ccaubaaa.s 			page 73


 2968 049b 91       		.byte	0x2
 2969 049c 74       		.byte	0x91
 2970 049d 00       		.sleb128 -22
 2971 049e 11       		.uleb128 0x14
 2972 049f 01       		.4byte	.LASF1
 2973 04a0 4379446D 		.byte	0x1
 2973      61436853 
 2973      65744578 
 2973      74656E64 
 2973      65644164 
 2974 04ba 01       		.2byte	0x19d
 2975 04bb 9C01     		.4byte	0x111
 2976 04bd 01       		.byte	0x2
 2977 04be 11010000 		.byte	0x91
 2978 04c2 00000000 		.sleb128 -12
 2979 04c6 88000000 		.byte	0x0
 2980 04ca 2D020000 		.uleb128 0x11
 2981 04ce 0F050000 		.byte	0x1
 2982 04d2 12       		.ascii	"CyDmaChSetInitialTd\000"
 2983 04d3 00000000 		.byte	0x1
 2984 04d7 01       		.2byte	0x1cd
 2985 04d8 9B01     		.byte	0x1
 2986 04da 95000000 		.4byte	0x111
 2987 04de 02       		.4byte	.LFB14
 2988 04df 91       		.4byte	.LFE14
 2989 04e0 6F       		.4byte	.LLST12
 2990 04e1 12       		.4byte	0x56f
 2991 04e2 3A000000 		.uleb128 0x12
 2992 04e6 01       		.4byte	.LASF0
 2993 04e7 9B01     		.byte	0x1
 2994 04e9 A2000000 		.2byte	0x1cc
 2995 04ed 02       		.4byte	0x95
 2996 04ee 91       		.byte	0x2
 2997 04ef 6C       		.byte	0x91
 2998 04f0 12       		.sleb128 -17
 2999 04f1 2E000000 		.uleb128 0x13
 3000 04f5 01       		.ascii	"startTd\000"
 3001 04f6 9B01     		.byte	0x1
 3002 04f8 A2000000 		.2byte	0x1cc
 3003 04fc 02       		.4byte	0x95
 3004 04fd 91       		.byte	0x2
 3005 04fe 6A       		.byte	0x91
 3006 04ff 14       		.sleb128 -18
 3007 0500 41000000 		.uleb128 0x14
 3008 0504 01       		.4byte	.LASF1
 3009 0505 9D01     		.byte	0x1
 3010 0507 11010000 		.2byte	0x1ce
 3011 050b 02       		.4byte	0x111
 3012 050c 91       		.byte	0x2
 3013 050d 74       		.byte	0x91
 3014 050e 00       		.sleb128 -12
 3015 050f 11       		.byte	0x0
 3016 0510 01       		.uleb128 0x11
 3017 0511 4379446D 		.byte	0x1
 3017      61436853 
 3017      6574496E 
 3017      69746961 
ARM GAS  C:\Users\blinky\AppData\Local\Temp/ccaubaaa.s 			page 74


 3017      6C546400 
 3018 0525 01       		.ascii	"CyDmaChSetRequest\000"
 3019 0526 CD01     		.byte	0x1
 3020 0528 01       		.2byte	0x1f8
 3021 0529 11010000 		.byte	0x1
 3022 052d 00000000 		.4byte	0x111
 3023 0531 48000000 		.4byte	.LFB15
 3024 0535 64020000 		.4byte	.LFE15
 3025 0539 6F050000 		.4byte	.LLST13
 3026 053d 12       		.4byte	0x5cd
 3027 053e 00000000 		.uleb128 0x12
 3028 0542 01       		.4byte	.LASF0
 3029 0543 CC01     		.byte	0x1
 3030 0545 95000000 		.2byte	0x1f7
 3031 0549 02       		.4byte	0x95
 3032 054a 91       		.byte	0x2
 3033 054b 6F       		.byte	0x91
 3034 054c 13       		.sleb128 -17
 3035 054d 73746172 		.uleb128 0x13
 3035      74546400 
 3036 0555 01       		.ascii	"request\000"
 3037 0556 CC01     		.byte	0x1
 3038 0558 95000000 		.2byte	0x1f7
 3039 055c 02       		.4byte	0x95
 3040 055d 91       		.byte	0x2
 3041 055e 6E       		.byte	0x91
 3042 055f 14       		.sleb128 -18
 3043 0560 41000000 		.uleb128 0x14
 3044 0564 01       		.4byte	.LASF1
 3045 0565 CE01     		.byte	0x1
 3046 0567 11010000 		.2byte	0x1f9
 3047 056b 02       		.4byte	0x111
 3048 056c 91       		.byte	0x2
 3049 056d 74       		.byte	0x91
 3050 056e 00       		.sleb128 -12
 3051 056f 11       		.byte	0x0
 3052 0570 01       		.uleb128 0x11
 3053 0571 4379446D 		.byte	0x1
 3053      61436853 
 3053      65745265 
 3053      71756573 
 3053      7400
 3054 0583 01       		.ascii	"CyDmaChGetRequest\000"
 3055 0584 F801     		.byte	0x1
 3056 0586 01       		.2byte	0x220
 3057 0587 11010000 		.byte	0x1
 3058 058b 00000000 		.4byte	0x111
 3059 058f 58000000 		.4byte	.LFB16
 3060 0593 9B020000 		.4byte	.LFE16
 3061 0597 CD050000 		.4byte	.LLST14
 3062 059b 12       		.4byte	0x618
 3063 059c 00000000 		.uleb128 0x12
 3064 05a0 01       		.4byte	.LASF0
 3065 05a1 F701     		.byte	0x1
 3066 05a3 95000000 		.2byte	0x21f
 3067 05a7 02       		.4byte	0x95
 3068 05a8 91       		.byte	0x2
ARM GAS  C:\Users\blinky\AppData\Local\Temp/ccaubaaa.s 			page 75


 3069 05a9 6F       		.byte	0x91
 3070 05aa 13       		.sleb128 -17
 3071 05ab 72657175 		.uleb128 0x14
 3071      65737400 
 3072 05b3 01       		.4byte	.LASF1
 3073 05b4 F701     		.byte	0x1
 3074 05b6 95000000 		.2byte	0x221
 3075 05ba 02       		.4byte	0x111
 3076 05bb 91       		.byte	0x2
 3077 05bc 6E       		.byte	0x91
 3078 05bd 14       		.sleb128 -12
 3079 05be 41000000 		.byte	0x0
 3080 05c2 01       		.uleb128 0x11
 3081 05c3 F901     		.byte	0x1
 3082 05c5 11010000 		.ascii	"CyDmaChStatus\000"
 3083 05c9 02       		.byte	0x1
 3084 05ca 91       		.2byte	0x24e
 3085 05cb 74       		.byte	0x1
 3086 05cc 00       		.4byte	0x111
 3087 05cd 11       		.4byte	.LFB17
 3088 05ce 01       		.4byte	.LFE17
 3089 05cf 4379446D 		.4byte	.LLST15
 3089      61436847 
 3089      65745265 
 3089      71756573 
 3089      7400
 3090 05e1 01       		.4byte	0x685
 3091 05e2 2002     		.uleb128 0x12
 3092 05e4 01       		.4byte	.LASF0
 3093 05e5 11010000 		.byte	0x1
 3094 05e9 00000000 		.2byte	0x24d
 3095 05ed 40000000 		.4byte	0x95
 3096 05f1 D2020000 		.byte	0x2
 3097 05f5 18060000 		.byte	0x91
 3098 05f9 12       		.sleb128 -17
 3099 05fa 00000000 		.uleb128 0x13
 3100 05fe 01       		.ascii	"currentTd\000"
 3101 05ff 1F02     		.byte	0x1
 3102 0601 95000000 		.2byte	0x24d
 3103 0605 02       		.4byte	0x685
 3104 0606 91       		.byte	0x2
 3105 0607 6F       		.byte	0x91
 3106 0608 14       		.sleb128 -24
 3107 0609 41000000 		.uleb128 0x13
 3108 060d 01       		.ascii	"state\000"
 3109 060e 2102     		.byte	0x1
 3110 0610 11010000 		.2byte	0x24d
 3111 0614 02       		.4byte	0x685
 3112 0615 91       		.byte	0x2
 3113 0616 74       		.byte	0x91
 3114 0617 00       		.sleb128 -28
 3115 0618 11       		.uleb128 0x14
 3116 0619 01       		.4byte	.LASF1
 3117 061a 4379446D 		.byte	0x1
 3117      61436853 
 3117      74617475 
 3117      7300
ARM GAS  C:\Users\blinky\AppData\Local\Temp/ccaubaaa.s 			page 76


 3118 0628 01       		.2byte	0x24f
 3119 0629 4E02     		.4byte	0x111
 3120 062b 01       		.byte	0x2
 3121 062c 11010000 		.byte	0x91
 3122 0630 00000000 		.sleb128 -12
 3123 0634 68000000 		.byte	0x0
 3124 0638 09030000 		.uleb128 0x16
 3125 063c 85060000 		.byte	0x4
 3126 0640 12       		.4byte	0x95
 3127 0641 00000000 		.uleb128 0x11
 3128 0645 01       		.byte	0x1
 3129 0646 4D02     		.ascii	"CyDmaChSetConfiguration\000"
 3130 0648 95000000 		.byte	0x1
 3131 064c 02       		.2byte	0x28a
 3132 064d 91       		.byte	0x1
 3133 064e 6F       		.4byte	0x111
 3134 064f 13       		.4byte	.LFB18
 3135 0650 63757272 		.4byte	.LFE18
 3135      656E7454 
 3135      6400
 3136 065a 01       		.4byte	.LLST16
 3137 065b 4D02     		.4byte	0x745
 3138 065d 85060000 		.uleb128 0x12
 3139 0661 02       		.4byte	.LASF0
 3140 0662 91       		.byte	0x1
 3141 0663 68       		.2byte	0x289
 3142 0664 13       		.4byte	0x95
 3143 0665 73746174 		.byte	0x2
 3143      6500
 3144 066b 01       		.byte	0x91
 3145 066c 4D02     		.sleb128 -17
 3146 066e 85060000 		.uleb128 0x13
 3147 0672 02       		.ascii	"burstCount\000"
 3148 0673 91       		.byte	0x1
 3149 0674 64       		.2byte	0x289
 3150 0675 14       		.4byte	0x95
 3151 0676 41000000 		.byte	0x2
 3152 067a 01       		.byte	0x91
 3153 067b 4F02     		.sleb128 -18
 3154 067d 11010000 		.uleb128 0x13
 3155 0681 02       		.ascii	"requestPerBurst\000"
 3156 0682 91       		.byte	0x1
 3157 0683 74       		.2byte	0x289
 3158 0684 00       		.4byte	0x95
 3159 0685 16       		.byte	0x2
 3160 0686 04       		.byte	0x91
 3161 0687 95000000 		.sleb128 -19
 3162 068b 11       		.uleb128 0x13
 3163 068c 01       		.ascii	"tdDone0\000"
 3164 068d 4379446D 		.byte	0x1
 3164      61436853 
 3164      6574436F 
 3164      6E666967 
 3164      75726174 
 3165 06a5 01       		.2byte	0x289
 3166 06a6 8A02     		.4byte	0x95
 3167 06a8 01       		.byte	0x2
ARM GAS  C:\Users\blinky\AppData\Local\Temp/ccaubaaa.s 			page 77


 3168 06a9 11010000 		.byte	0x91
 3169 06ad 00000000 		.sleb128 -20
 3170 06b1 B0000000 		.uleb128 0x13
 3171 06b5 40030000 		.ascii	"tdDone1\000"
 3172 06b9 45070000 		.byte	0x1
 3173 06bd 12       		.2byte	0x289
 3174 06be 00000000 		.4byte	0x95
 3175 06c2 01       		.byte	0x2
 3176 06c3 8902     		.byte	0x91
 3177 06c5 95000000 		.sleb128 0
 3178 06c9 02       		.uleb128 0x13
 3179 06ca 91       		.ascii	"tdStop\000"
 3180 06cb 6F       		.byte	0x1
 3181 06cc 13       		.2byte	0x289
 3182 06cd 62757273 		.4byte	0x95
 3182      74436F75 
 3182      6E7400
 3183 06d8 01       		.byte	0x2
 3184 06d9 8902     		.byte	0x91
 3185 06db 95000000 		.sleb128 4
 3186 06df 02       		.uleb128 0x14
 3187 06e0 91       		.4byte	.LASF1
 3188 06e1 6E       		.byte	0x1
 3189 06e2 13       		.2byte	0x28b
 3190 06e3 72657175 		.4byte	0x111
 3190      65737450 
 3190      65724275 
 3190      72737400 
 3191 06f3 01       		.byte	0x2
 3192 06f4 8902     		.byte	0x91
 3193 06f6 95000000 		.sleb128 -12
 3194 06fa 02       		.byte	0x0
 3195 06fb 91       		.uleb128 0x11
 3196 06fc 6D       		.byte	0x1
 3197 06fd 13       		.ascii	"CyDmaTdAllocate\000"
 3198 06fe 7464446F 		.byte	0x1
 3198      6E653000 
 3199 0706 01       		.2byte	0x2b3
 3200 0707 8902     		.byte	0x1
 3201 0709 95000000 		.4byte	0x95
 3202 070d 02       		.4byte	.LFB19
 3203 070e 91       		.4byte	.LFE19
 3204 070f 6C       		.4byte	.LLST17
 3205 0710 13       		.4byte	0x783
 3206 0711 7464446F 		.uleb128 0x15
 3206      6E653100 
 3207 0719 01       		.ascii	"Element\000"
 3208 071a 8902     		.byte	0x1
 3209 071c 95000000 		.2byte	0x2b4
 3210 0720 02       		.4byte	0x95
 3211 0721 91       		.byte	0x2
 3212 0722 00       		.byte	0x91
 3213 0723 13       		.sleb128 -9
 3214 0724 74645374 		.byte	0x0
 3214      6F7000
 3215 072b 01       		.uleb128 0x17
 3216 072c 8902     		.byte	0x1
ARM GAS  C:\Users\blinky\AppData\Local\Temp/ccaubaaa.s 			page 78


 3217 072e 95000000 		.ascii	"CyDmaTdFree\000"
 3218 0732 02       		.byte	0x1
 3219 0733 91       		.2byte	0x2e2
 3220 0734 04       		.byte	0x1
 3221 0735 14       		.4byte	.LFB20
 3222 0736 41000000 		.4byte	.LFE20
 3223 073a 01       		.4byte	.LLST18
 3224 073b 8B02     		.4byte	0x7b5
 3225 073d 11010000 		.uleb128 0x12
 3226 0741 02       		.4byte	.LASF4
 3227 0742 91       		.byte	0x1
 3228 0743 74       		.2byte	0x2e1
 3229 0744 00       		.4byte	0x95
 3230 0745 11       		.byte	0x2
 3231 0746 01       		.byte	0x91
 3232 0747 4379446D 		.sleb128 -9
 3232      61546441 
 3232      6C6C6F63 
 3232      61746500 
 3233 0757 01       		.byte	0x0
 3234 0758 B302     		.uleb128 0x11
 3235 075a 01       		.byte	0x1
 3236 075b 95000000 		.ascii	"CyDmaTdFreeCount\000"
 3237 075f 00000000 		.byte	0x1
 3238 0763 5C000000 		.2byte	0x307
 3239 0767 77030000 		.byte	0x1
 3240 076b 83070000 		.4byte	0x95
 3241 076f 15       		.4byte	.LFB21
 3242 0770 456C656D 		.4byte	.LFE21
 3242      656E7400 
 3243 0778 01       		.4byte	.LLST19
 3244 0779 B402     		.4byte	0x7f3
 3245 077b 95000000 		.uleb128 0x15
 3246 077f 02       		.ascii	"number\000"
 3247 0780 91       		.byte	0x1
 3248 0781 77       		.2byte	0x308
 3249 0782 00       		.4byte	0x95
 3250 0783 17       		.byte	0x2
 3251 0784 01       		.byte	0x91
 3252 0785 4379446D 		.sleb128 -9
 3252      61546446 
 3252      72656500 
 3253 0791 01       		.byte	0x0
 3254 0792 E202     		.uleb128 0x11
 3255 0794 01       		.byte	0x1
 3256 0795 00000000 		.ascii	"CyDmaTdSetConfiguration\000"
 3257 0799 54000000 		.byte	0x1
 3258 079d AE030000 		.2byte	0x338
 3259 07a1 B5070000 		.byte	0x1
 3260 07a5 12       		.4byte	0x111
 3261 07a6 25000000 		.4byte	.LFB22
 3262 07aa 01       		.4byte	.LFE22
 3263 07ab E102     		.4byte	.LLST20
 3264 07ad 95000000 		.4byte	0x874
 3265 07b1 02       		.uleb128 0x12
 3266 07b2 91       		.4byte	.LASF4
 3267 07b3 77       		.byte	0x1
ARM GAS  C:\Users\blinky\AppData\Local\Temp/ccaubaaa.s 			page 79


 3268 07b4 00       		.2byte	0x337
 3269 07b5 11       		.4byte	0x95
 3270 07b6 01       		.byte	0x2
 3271 07b7 4379446D 		.byte	0x91
 3271      61546446 
 3271      72656543 
 3271      6F756E74 
 3271      00
 3272 07c8 01       		.sleb128 -17
 3273 07c9 0703     		.uleb128 0x12
 3274 07cb 01       		.4byte	.LASF5
 3275 07cc 95000000 		.byte	0x1
 3276 07d0 00000000 		.2byte	0x337
 3277 07d4 20000000 		.4byte	0xa2
 3278 07d8 E5030000 		.byte	0x2
 3279 07dc F3070000 		.byte	0x91
 3280 07e0 15       		.sleb128 -20
 3281 07e1 6E756D62 		.uleb128 0x13
 3281      657200
 3282 07e8 01       		.ascii	"nextTd\000"
 3283 07e9 0803     		.byte	0x1
 3284 07eb 95000000 		.2byte	0x337
 3285 07ef 02       		.4byte	0x95
 3286 07f0 91       		.byte	0x2
 3287 07f1 77       		.byte	0x91
 3288 07f2 00       		.sleb128 -21
 3289 07f3 11       		.uleb128 0x12
 3290 07f4 01       		.4byte	.LASF6
 3291 07f5 4379446D 		.byte	0x1
 3291      61546453 
 3291      6574436F 
 3291      6E666967 
 3291      75726174 
 3292 080d 01       		.2byte	0x337
 3293 080e 3803     		.4byte	0x95
 3294 0810 01       		.byte	0x2
 3295 0811 11010000 		.byte	0x91
 3296 0815 00000000 		.sleb128 -22
 3297 0819 7E000000 		.uleb128 0x14
 3298 081d 1C040000 		.4byte	.LASF1
 3299 0821 74080000 		.byte	0x1
 3300 0825 12       		.2byte	0x339
 3301 0826 25000000 		.4byte	0x111
 3302 082a 01       		.byte	0x2
 3303 082b 3703     		.byte	0x91
 3304 082d 95000000 		.sleb128 -12
 3305 0831 02       		.byte	0x0
 3306 0832 91       		.uleb128 0x11
 3307 0833 6F       		.byte	0x1
 3308 0834 12       		.ascii	"CyDmaTdGetConfiguration\000"
 3309 0835 09000000 		.byte	0x1
 3310 0839 01       		.2byte	0x37d
 3311 083a 3703     		.byte	0x1
 3312 083c A2000000 		.4byte	0x111
 3313 0840 02       		.4byte	.LFB23
 3314 0841 91       		.4byte	.LFE23
 3315 0842 6C       		.4byte	.LLST21
ARM GAS  C:\Users\blinky\AppData\Local\Temp/ccaubaaa.s 			page 80


 3316 0843 13       		.4byte	0x8f5
 3317 0844 6E657874 		.uleb128 0x12
 3317      546400
 3318 084b 01       		.4byte	.LASF4
 3319 084c 3703     		.byte	0x1
 3320 084e 95000000 		.2byte	0x37c
 3321 0852 02       		.4byte	0x95
 3322 0853 91       		.byte	0x2
 3323 0854 6B       		.byte	0x91
 3324 0855 12       		.sleb128 -17
 3325 0856 17000000 		.uleb128 0x12
 3326 085a 01       		.4byte	.LASF5
 3327 085b 3703     		.byte	0x1
 3328 085d 95000000 		.2byte	0x37c
 3329 0861 02       		.4byte	0x8f5
 3330 0862 91       		.byte	0x2
 3331 0863 6A       		.byte	0x91
 3332 0864 14       		.sleb128 -24
 3333 0865 41000000 		.uleb128 0x13
 3334 0869 01       		.ascii	"nextTd\000"
 3335 086a 3903     		.byte	0x1
 3336 086c 11010000 		.2byte	0x37c
 3337 0870 02       		.4byte	0x685
 3338 0871 91       		.byte	0x2
 3339 0872 74       		.byte	0x91
 3340 0873 00       		.sleb128 -28
 3341 0874 11       		.uleb128 0x12
 3342 0875 01       		.4byte	.LASF6
 3343 0876 4379446D 		.byte	0x1
 3343      61546447 
 3343      6574436F 
 3343      6E666967 
 3343      75726174 
 3344 088e 01       		.2byte	0x37c
 3345 088f 7D03     		.4byte	0x685
 3346 0891 01       		.byte	0x2
 3347 0892 11010000 		.byte	0x91
 3348 0896 00000000 		.sleb128 -32
 3349 089a 96000000 		.uleb128 0x14
 3350 089e 53040000 		.4byte	.LASF1
 3351 08a2 F5080000 		.byte	0x1
 3352 08a6 12       		.2byte	0x37e
 3353 08a7 25000000 		.4byte	0x111
 3354 08ab 01       		.byte	0x2
 3355 08ac 7C03     		.byte	0x91
 3356 08ae 95000000 		.sleb128 -12
 3357 08b2 02       		.byte	0x0
 3358 08b3 91       		.uleb128 0x16
 3359 08b4 6F       		.byte	0x4
 3360 08b5 12       		.4byte	0xa2
 3361 08b6 09000000 		.uleb128 0x11
 3362 08ba 01       		.byte	0x1
 3363 08bb 7C03     		.ascii	"CyDmaTdSetAddress\000"
 3364 08bd F5080000 		.byte	0x1
 3365 08c1 02       		.2byte	0x3bb
 3366 08c2 91       		.byte	0x1
 3367 08c3 68       		.4byte	0x111
ARM GAS  C:\Users\blinky\AppData\Local\Temp/ccaubaaa.s 			page 81


 3368 08c4 13       		.4byte	.LFB24
 3369 08c5 6E657874 		.4byte	.LFE24
 3369      546400
 3370 08cc 01       		.4byte	.LLST22
 3371 08cd 7C03     		.4byte	0x964
 3372 08cf 85060000 		.uleb128 0x12
 3373 08d3 02       		.4byte	.LASF4
 3374 08d4 91       		.byte	0x1
 3375 08d5 64       		.2byte	0x3ba
 3376 08d6 12       		.4byte	0x95
 3377 08d7 17000000 		.byte	0x2
 3378 08db 01       		.byte	0x91
 3379 08dc 7C03     		.sleb128 -17
 3380 08de 85060000 		.uleb128 0x12
 3381 08e2 02       		.4byte	.LASF2
 3382 08e3 91       		.byte	0x1
 3383 08e4 60       		.2byte	0x3ba
 3384 08e5 14       		.4byte	0xa2
 3385 08e6 41000000 		.byte	0x2
 3386 08ea 01       		.byte	0x91
 3387 08eb 7E03     		.sleb128 -20
 3388 08ed 11010000 		.uleb128 0x12
 3389 08f1 02       		.4byte	.LASF3
 3390 08f2 91       		.byte	0x1
 3391 08f3 74       		.2byte	0x3ba
 3392 08f4 00       		.4byte	0xa2
 3393 08f5 16       		.byte	0x2
 3394 08f6 04       		.byte	0x91
 3395 08f7 A2000000 		.sleb128 -22
 3396 08fb 11       		.uleb128 0x14
 3397 08fc 01       		.4byte	.LASF1
 3398 08fd 4379446D 		.byte	0x1
 3398      61546453 
 3398      65744164 
 3398      64726573 
 3398      7300
 3399 090f 01       		.2byte	0x3bc
 3400 0910 BB03     		.4byte	0x111
 3401 0912 01       		.byte	0x2
 3402 0913 11010000 		.byte	0x91
 3403 0917 00000000 		.sleb128 -12
 3404 091b 6A000000 		.byte	0x0
 3405 091f 8A040000 		.uleb128 0x11
 3406 0923 64090000 		.byte	0x1
 3407 0927 12       		.ascii	"CyDmaTdGetAddress\000"
 3408 0928 25000000 		.byte	0x1
 3409 092c 01       		.2byte	0x3f0
 3410 092d BA03     		.byte	0x1
 3411 092f 95000000 		.4byte	0x111
 3412 0933 02       		.4byte	.LFB25
 3413 0934 91       		.4byte	.LFE25
 3414 0935 6F       		.4byte	.LLST23
 3415 0936 12       		.4byte	0x9cd
 3416 0937 3A000000 		.uleb128 0x12
 3417 093b 01       		.4byte	.LASF4
 3418 093c BA03     		.byte	0x1
 3419 093e A2000000 		.2byte	0x3ef
ARM GAS  C:\Users\blinky\AppData\Local\Temp/ccaubaaa.s 			page 82


 3420 0942 02       		.4byte	0x95
 3421 0943 91       		.byte	0x2
 3422 0944 6C       		.byte	0x91
 3423 0945 12       		.sleb128 -17
 3424 0946 2E000000 		.uleb128 0x12
 3425 094a 01       		.4byte	.LASF2
 3426 094b BA03     		.byte	0x1
 3427 094d A2000000 		.2byte	0x3ef
 3428 0951 02       		.4byte	0x8f5
 3429 0952 91       		.byte	0x2
 3430 0953 6A       		.byte	0x91
 3431 0954 14       		.sleb128 -24
 3432 0955 41000000 		.uleb128 0x12
 3433 0959 01       		.4byte	.LASF3
 3434 095a BC03     		.byte	0x1
 3435 095c 11010000 		.2byte	0x3ef
 3436 0960 02       		.4byte	0x8f5
 3437 0961 91       		.byte	0x2
 3438 0962 74       		.byte	0x91
 3439 0963 00       		.sleb128 -28
 3440 0964 11       		.uleb128 0x14
 3441 0965 01       		.4byte	.LASF1
 3442 0966 4379446D 		.byte	0x1
 3442      61546447 
 3442      65744164 
 3442      64726573 
 3442      7300
 3443 0978 01       		.2byte	0x3f1
 3444 0979 F003     		.4byte	0x111
 3445 097b 01       		.byte	0x2
 3446 097c 11010000 		.byte	0x91
 3447 0980 00000000 		.sleb128 -12
 3448 0984 76000000 		.byte	0x0
 3449 0988 C1040000 		.uleb128 0xb
 3450 098c CD090000 		.ascii	"CyDmaTdCurrentNumber\000"
 3451 0990 12       		.byte	0x1
 3452 0991 25000000 		.byte	0x2b
 3453 0995 01       		.4byte	0x95
 3454 0996 EF03     		.byte	0x5
 3455 0998 95000000 		.byte	0x3
 3456 099c 02       		.4byte	CyDmaTdCurrentNumber
 3457 099d 91       		.uleb128 0xb
 3458 099e 6F       		.ascii	"CyDmaTdFreeIndex\000"
 3459 099f 12       		.byte	0x1
 3460 09a0 3A000000 		.byte	0x2e
 3461 09a4 01       		.4byte	0x95
 3462 09a5 EF03     		.byte	0x5
 3463 09a7 F5080000 		.byte	0x3
 3464 09ab 02       		.4byte	CyDmaTdFreeIndex
 3465 09ac 91       		.uleb128 0xb
 3466 09ad 68       		.ascii	"CyDmaChannels\000"
 3467 09ae 12       		.byte	0x1
 3468 09af 2E000000 		.byte	0x31
 3469 09b3 01       		.4byte	0xc6
 3470 09b4 EF03     		.byte	0x5
 3471 09b6 F5080000 		.byte	0x3
 3472 09ba 02       		.4byte	CyDmaChannels
ARM GAS  C:\Users\blinky\AppData\Local\Temp/ccaubaaa.s 			page 83


 3473 09bb 91       		.byte	0x0
 3474 09bc 64       		.section	.debug_abbrev
 3475 09bd 14       		.uleb128 0x1
 3476 09be 41000000 		.uleb128 0x11
 3477 09c2 01       		.byte	0x1
 3478 09c3 F103     		.uleb128 0x25
 3479 09c5 11010000 		.uleb128 0x8
 3480 09c9 02       		.uleb128 0x13
 3481 09ca 91       		.uleb128 0xb
 3482 09cb 74       		.uleb128 0x3
 3483 09cc 00       		.uleb128 0x8
 3484 09cd 0B       		.uleb128 0x1b
 3485 09ce 4379446D 		.uleb128 0x8
 3485      61546443 
 3485      75727265 
 3485      6E744E75 
 3485      6D626572 
 3486 09e3 01       		.uleb128 0x52
 3487 09e4 2B       		.uleb128 0x1
 3488 09e5 95000000 		.uleb128 0x10
 3489 09e9 05       		.uleb128 0x6
 3490 09ea 03       		.byte	0x0
 3491 09eb 04000000 		.byte	0x0
 3492 09ef 0B       		.uleb128 0x2
 3493 09f0 4379446D 		.uleb128 0x24
 3493      61546446 
 3493      72656549 
 3493      6E646578 
 3493      00
 3494 0a01 01       		.byte	0x0
 3495 0a02 2E       		.uleb128 0xb
 3496 0a03 95000000 		.uleb128 0xb
 3497 0a07 05       		.uleb128 0x3e
 3498 0a08 03       		.uleb128 0xb
 3499 0a09 05000000 		.uleb128 0x3
 3500 0a0d 0B       		.uleb128 0x8
 3501 0a0e 4379446D 		.byte	0x0
 3501      61436861 
 3501      6E6E656C 
 3501      7300
 3502 0a1c 01       		.byte	0x0
 3503 0a1d 31       		.uleb128 0x3
 3504 0a1e C6000000 		.uleb128 0x16
 3505 0a22 05       		.byte	0x0
 3506 0a23 03       		.uleb128 0x3
 3507 0a24 00000000 		.uleb128 0x8
 3508 0a28 00       		.uleb128 0x3a
 3509              		.uleb128 0xb
 3510 0000 01       		.uleb128 0x3b
 3511 0001 11       		.uleb128 0xb
 3512 0002 01       		.uleb128 0x49
 3513 0003 25       		.uleb128 0x13
 3514 0004 08       		.byte	0x0
 3515 0005 13       		.byte	0x0
 3516 0006 0B       		.uleb128 0x4
 3517 0007 03       		.uleb128 0x13
 3518 0008 08       		.byte	0x1
ARM GAS  C:\Users\blinky\AppData\Local\Temp/ccaubaaa.s 			page 84


 3519 0009 1B       		.uleb128 0x3
 3520 000a 08       		.uleb128 0x8
 3521 000b 52       		.uleb128 0xb
 3522 000c 01       		.uleb128 0xb
 3523 000d 10       		.uleb128 0x3a
 3524 000e 06       		.uleb128 0xb
 3525 000f 00       		.uleb128 0x3b
 3526 0010 00       		.uleb128 0xb
 3527 0011 02       		.uleb128 0x1
 3528 0012 24       		.uleb128 0x13
 3529 0013 00       		.byte	0x0
 3530 0014 0B       		.byte	0x0
 3531 0015 0B       		.uleb128 0x5
 3532 0016 3E       		.uleb128 0xd
 3533 0017 0B       		.byte	0x0
 3534 0018 03       		.uleb128 0x3
 3535 0019 08       		.uleb128 0x8
 3536 001a 00       		.uleb128 0x3a
 3537 001b 00       		.uleb128 0xb
 3538 001c 03       		.uleb128 0x3b
 3539 001d 16       		.uleb128 0xb
 3540 001e 00       		.uleb128 0x49
 3541 001f 03       		.uleb128 0x13
 3542 0020 08       		.uleb128 0x38
 3543 0021 3A       		.uleb128 0xa
 3544 0022 0B       		.byte	0x0
 3545 0023 3B       		.byte	0x0
 3546 0024 0B       		.uleb128 0x6
 3547 0025 49       		.uleb128 0x1
 3548 0026 13       		.byte	0x1
 3549 0027 00       		.uleb128 0x49
 3550 0028 00       		.uleb128 0x13
 3551 0029 04       		.uleb128 0x1
 3552 002a 13       		.uleb128 0x13
 3553 002b 01       		.byte	0x0
 3554 002c 03       		.byte	0x0
 3555 002d 08       		.uleb128 0x7
 3556 002e 0B       		.uleb128 0x21
 3557 002f 0B       		.byte	0x0
 3558 0030 3A       		.uleb128 0x49
 3559 0031 0B       		.uleb128 0x13
 3560 0032 3B       		.uleb128 0x2f
 3561 0033 0B       		.uleb128 0xb
 3562 0034 01       		.byte	0x0
 3563 0035 13       		.byte	0x0
 3564 0036 00       		.uleb128 0x8
 3565 0037 00       		.uleb128 0x24
 3566 0038 05       		.byte	0x0
 3567 0039 0D       		.uleb128 0xb
 3568 003a 00       		.uleb128 0xb
 3569 003b 03       		.uleb128 0x3e
 3570 003c 08       		.uleb128 0xb
 3571 003d 3A       		.byte	0x0
 3572 003e 0B       		.byte	0x0
 3573 003f 3B       		.uleb128 0x9
 3574 0040 0B       		.uleb128 0x2e
 3575 0041 49       		.byte	0x0
ARM GAS  C:\Users\blinky\AppData\Local\Temp/ccaubaaa.s 			page 85


 3576 0042 13       		.uleb128 0x3f
 3577 0043 38       		.uleb128 0xc
 3578 0044 0A       		.uleb128 0x3
 3579 0045 00       		.uleb128 0x8
 3580 0046 00       		.uleb128 0x3a
 3581 0047 06       		.uleb128 0xb
 3582 0048 01       		.uleb128 0x3b
 3583 0049 01       		.uleb128 0xb
 3584 004a 49       		.uleb128 0x27
 3585 004b 13       		.uleb128 0xc
 3586 004c 01       		.uleb128 0x11
 3587 004d 13       		.uleb128 0x1
 3588 004e 00       		.uleb128 0x12
 3589 004f 00       		.uleb128 0x1
 3590 0050 07       		.uleb128 0x40
 3591 0051 21       		.uleb128 0x6
 3592 0052 00       		.byte	0x0
 3593 0053 49       		.byte	0x0
 3594 0054 13       		.uleb128 0xa
 3595 0055 2F       		.uleb128 0x2e
 3596 0056 0B       		.byte	0x1
 3597 0057 00       		.uleb128 0x3f
 3598 0058 00       		.uleb128 0xc
 3599 0059 08       		.uleb128 0x3
 3600 005a 24       		.uleb128 0x8
 3601 005b 00       		.uleb128 0x3a
 3602 005c 0B       		.uleb128 0xb
 3603 005d 0B       		.uleb128 0x3b
 3604 005e 3E       		.uleb128 0xb
 3605 005f 0B       		.uleb128 0x27
 3606 0060 00       		.uleb128 0xc
 3607 0061 00       		.uleb128 0x11
 3608 0062 09       		.uleb128 0x1
 3609 0063 2E       		.uleb128 0x12
 3610 0064 00       		.uleb128 0x1
 3611 0065 3F       		.uleb128 0x40
 3612 0066 0C       		.uleb128 0x6
 3613 0067 03       		.uleb128 0x1
 3614 0068 08       		.uleb128 0x13
 3615 0069 3A       		.byte	0x0
 3616 006a 0B       		.byte	0x0
 3617 006b 3B       		.uleb128 0xb
 3618 006c 0B       		.uleb128 0x34
 3619 006d 27       		.byte	0x0
 3620 006e 0C       		.uleb128 0x3
 3621 006f 11       		.uleb128 0x8
 3622 0070 01       		.uleb128 0x3a
 3623 0071 12       		.uleb128 0xb
 3624 0072 01       		.uleb128 0x3b
 3625 0073 40       		.uleb128 0xb
 3626 0074 06       		.uleb128 0x49
 3627 0075 00       		.uleb128 0x13
 3628 0076 00       		.uleb128 0x2
 3629 0077 0A       		.uleb128 0xa
 3630 0078 2E       		.byte	0x0
 3631 0079 01       		.byte	0x0
 3632 007a 3F       		.uleb128 0xc
ARM GAS  C:\Users\blinky\AppData\Local\Temp/ccaubaaa.s 			page 86


 3633 007b 0C       		.uleb128 0x2e
 3634 007c 03       		.byte	0x0
 3635 007d 08       		.uleb128 0x3f
 3636 007e 3A       		.uleb128 0xc
 3637 007f 0B       		.uleb128 0x3
 3638 0080 3B       		.uleb128 0x8
 3639 0081 0B       		.uleb128 0x3a
 3640 0082 27       		.uleb128 0xb
 3641 0083 0C       		.uleb128 0x3b
 3642 0084 11       		.uleb128 0xb
 3643 0085 01       		.uleb128 0x27
 3644 0086 12       		.uleb128 0xc
 3645 0087 01       		.uleb128 0x49
 3646 0088 40       		.uleb128 0x13
 3647 0089 06       		.uleb128 0x11
 3648 008a 01       		.uleb128 0x1
 3649 008b 13       		.uleb128 0x12
 3650 008c 00       		.uleb128 0x1
 3651 008d 00       		.uleb128 0x40
 3652 008e 0B       		.uleb128 0x6
 3653 008f 34       		.byte	0x0
 3654 0090 00       		.byte	0x0
 3655 0091 03       		.uleb128 0xd
 3656 0092 08       		.uleb128 0x5
 3657 0093 3A       		.byte	0x0
 3658 0094 0B       		.uleb128 0x3
 3659 0095 3B       		.uleb128 0x8
 3660 0096 0B       		.uleb128 0x3a
 3661 0097 49       		.uleb128 0xb
 3662 0098 13       		.uleb128 0x3b
 3663 0099 02       		.uleb128 0xb
 3664 009a 0A       		.uleb128 0x49
 3665 009b 00       		.uleb128 0x13
 3666 009c 00       		.uleb128 0x2
 3667 009d 0C       		.uleb128 0xa
 3668 009e 2E       		.byte	0x0
 3669 009f 00       		.byte	0x0
 3670 00a0 3F       		.uleb128 0xe
 3671 00a1 0C       		.uleb128 0x2e
 3672 00a2 03       		.byte	0x1
 3673 00a3 08       		.uleb128 0x3f
 3674 00a4 3A       		.uleb128 0xc
 3675 00a5 0B       		.uleb128 0x3
 3676 00a6 3B       		.uleb128 0x8
 3677 00a7 0B       		.uleb128 0x3a
 3678 00a8 27       		.uleb128 0xb
 3679 00a9 0C       		.uleb128 0x3b
 3680 00aa 49       		.uleb128 0xb
 3681 00ab 13       		.uleb128 0x27
 3682 00ac 11       		.uleb128 0xc
 3683 00ad 01       		.uleb128 0x49
 3684 00ae 12       		.uleb128 0x13
 3685 00af 01       		.uleb128 0x11
 3686 00b0 40       		.uleb128 0x1
 3687 00b1 06       		.uleb128 0x12
 3688 00b2 00       		.uleb128 0x1
 3689 00b3 00       		.uleb128 0x40
ARM GAS  C:\Users\blinky\AppData\Local\Temp/ccaubaaa.s 			page 87


 3690 00b4 0D       		.uleb128 0x6
 3691 00b5 05       		.uleb128 0x1
 3692 00b6 00       		.uleb128 0x13
 3693 00b7 03       		.byte	0x0
 3694 00b8 08       		.byte	0x0
 3695 00b9 3A       		.uleb128 0xf
 3696 00ba 0B       		.uleb128 0x5
 3697 00bb 3B       		.byte	0x0
 3698 00bc 0B       		.uleb128 0x3
 3699 00bd 49       		.uleb128 0xe
 3700 00be 13       		.uleb128 0x3a
 3701 00bf 02       		.uleb128 0xb
 3702 00c0 0A       		.uleb128 0x3b
 3703 00c1 00       		.uleb128 0xb
 3704 00c2 00       		.uleb128 0x49
 3705 00c3 0E       		.uleb128 0x13
 3706 00c4 2E       		.uleb128 0x2
 3707 00c5 01       		.uleb128 0xa
 3708 00c6 3F       		.byte	0x0
 3709 00c7 0C       		.byte	0x0
 3710 00c8 03       		.uleb128 0x10
 3711 00c9 08       		.uleb128 0x34
 3712 00ca 3A       		.byte	0x0
 3713 00cb 0B       		.uleb128 0x3
 3714 00cc 3B       		.uleb128 0xe
 3715 00cd 0B       		.uleb128 0x3a
 3716 00ce 27       		.uleb128 0xb
 3717 00cf 0C       		.uleb128 0x3b
 3718 00d0 49       		.uleb128 0xb
 3719 00d1 13       		.uleb128 0x49
 3720 00d2 11       		.uleb128 0x13
 3721 00d3 01       		.uleb128 0x2
 3722 00d4 12       		.uleb128 0xa
 3723 00d5 01       		.byte	0x0
 3724 00d6 40       		.byte	0x0
 3725 00d7 06       		.uleb128 0x11
 3726 00d8 01       		.uleb128 0x2e
 3727 00d9 13       		.byte	0x1
 3728 00da 00       		.uleb128 0x3f
 3729 00db 00       		.uleb128 0xc
 3730 00dc 0F       		.uleb128 0x3
 3731 00dd 05       		.uleb128 0x8
 3732 00de 00       		.uleb128 0x3a
 3733 00df 03       		.uleb128 0xb
 3734 00e0 0E       		.uleb128 0x3b
 3735 00e1 3A       		.uleb128 0x5
 3736 00e2 0B       		.uleb128 0x27
 3737 00e3 3B       		.uleb128 0xc
 3738 00e4 0B       		.uleb128 0x49
 3739 00e5 49       		.uleb128 0x13
 3740 00e6 13       		.uleb128 0x11
 3741 00e7 02       		.uleb128 0x1
 3742 00e8 0A       		.uleb128 0x12
 3743 00e9 00       		.uleb128 0x1
 3744 00ea 00       		.uleb128 0x40
 3745 00eb 10       		.uleb128 0x6
 3746 00ec 34       		.uleb128 0x1
ARM GAS  C:\Users\blinky\AppData\Local\Temp/ccaubaaa.s 			page 88


 3747 00ed 00       		.uleb128 0x13
 3748 00ee 03       		.byte	0x0
 3749 00ef 0E       		.byte	0x0
 3750 00f0 3A       		.uleb128 0x12
 3751 00f1 0B       		.uleb128 0x5
 3752 00f2 3B       		.byte	0x0
 3753 00f3 0B       		.uleb128 0x3
 3754 00f4 49       		.uleb128 0xe
 3755 00f5 13       		.uleb128 0x3a
 3756 00f6 02       		.uleb128 0xb
 3757 00f7 0A       		.uleb128 0x3b
 3758 00f8 00       		.uleb128 0x5
 3759 00f9 00       		.uleb128 0x49
 3760 00fa 11       		.uleb128 0x13
 3761 00fb 2E       		.uleb128 0x2
 3762 00fc 01       		.uleb128 0xa
 3763 00fd 3F       		.byte	0x0
 3764 00fe 0C       		.byte	0x0
 3765 00ff 03       		.uleb128 0x13
 3766 0100 08       		.uleb128 0x5
 3767 0101 3A       		.byte	0x0
 3768 0102 0B       		.uleb128 0x3
 3769 0103 3B       		.uleb128 0x8
 3770 0104 05       		.uleb128 0x3a
 3771 0105 27       		.uleb128 0xb
 3772 0106 0C       		.uleb128 0x3b
 3773 0107 49       		.uleb128 0x5
 3774 0108 13       		.uleb128 0x49
 3775 0109 11       		.uleb128 0x13
 3776 010a 01       		.uleb128 0x2
 3777 010b 12       		.uleb128 0xa
 3778 010c 01       		.byte	0x0
 3779 010d 40       		.byte	0x0
 3780 010e 06       		.uleb128 0x14
 3781 010f 01       		.uleb128 0x34
 3782 0110 13       		.byte	0x0
 3783 0111 00       		.uleb128 0x3
 3784 0112 00       		.uleb128 0xe
 3785 0113 12       		.uleb128 0x3a
 3786 0114 05       		.uleb128 0xb
 3787 0115 00       		.uleb128 0x3b
 3788 0116 03       		.uleb128 0x5
 3789 0117 0E       		.uleb128 0x49
 3790 0118 3A       		.uleb128 0x13
 3791 0119 0B       		.uleb128 0x2
 3792 011a 3B       		.uleb128 0xa
 3793 011b 05       		.byte	0x0
 3794 011c 49       		.byte	0x0
 3795 011d 13       		.uleb128 0x15
 3796 011e 02       		.uleb128 0x34
 3797 011f 0A       		.byte	0x0
 3798 0120 00       		.uleb128 0x3
 3799 0121 00       		.uleb128 0x8
 3800 0122 13       		.uleb128 0x3a
 3801 0123 05       		.uleb128 0xb
 3802 0124 00       		.uleb128 0x3b
 3803 0125 03       		.uleb128 0x5
ARM GAS  C:\Users\blinky\AppData\Local\Temp/ccaubaaa.s 			page 89


 3804 0126 08       		.uleb128 0x49
 3805 0127 3A       		.uleb128 0x13
 3806 0128 0B       		.uleb128 0x2
 3807 0129 3B       		.uleb128 0xa
 3808 012a 05       		.byte	0x0
 3809 012b 49       		.byte	0x0
 3810 012c 13       		.uleb128 0x16
 3811 012d 02       		.uleb128 0xf
 3812 012e 0A       		.byte	0x0
 3813 012f 00       		.uleb128 0xb
 3814 0130 00       		.uleb128 0xb
 3815 0131 14       		.uleb128 0x49
 3816 0132 34       		.uleb128 0x13
 3817 0133 00       		.byte	0x0
 3818 0134 03       		.byte	0x0
 3819 0135 0E       		.uleb128 0x17
 3820 0136 3A       		.uleb128 0x2e
 3821 0137 0B       		.byte	0x1
 3822 0138 3B       		.uleb128 0x3f
 3823 0139 05       		.uleb128 0xc
 3824 013a 49       		.uleb128 0x3
 3825 013b 13       		.uleb128 0x8
 3826 013c 02       		.uleb128 0x3a
 3827 013d 0A       		.uleb128 0xb
 3828 013e 00       		.uleb128 0x3b
 3829 013f 00       		.uleb128 0x5
 3830 0140 15       		.uleb128 0x27
 3831 0141 34       		.uleb128 0xc
 3832 0142 00       		.uleb128 0x11
 3833 0143 03       		.uleb128 0x1
 3834 0144 08       		.uleb128 0x12
 3835 0145 3A       		.uleb128 0x1
 3836 0146 0B       		.uleb128 0x40
 3837 0147 3B       		.uleb128 0x6
 3838 0148 05       		.uleb128 0x1
 3839 0149 49       		.uleb128 0x13
 3840 014a 13       		.byte	0x0
 3841 014b 02       		.byte	0x0
 3842 014c 0A       		.byte	0x0
 3843 014d 00       		.section	.debug_pubnames,"",%progbits
 3844 014e 00       		.4byte	0x21a
 3845 014f 16       		.2byte	0x2
 3846 0150 0F       		.4byte	.Ldebug_info0
 3847 0151 00       		.4byte	0xa29
 3848 0152 0B       		.4byte	0x1fa
 3849 0153 0B       		.ascii	"CyEnterCriticalSection\000"
 3850 0154 49       		.4byte	0x222
 3851 0155 13       		.ascii	"CyExitCriticalSection\000"
 3852 0156 00       		.4byte	0x249
 3853 0157 00       		.ascii	"CyDmacConfigure\000"
 3854 0158 17       		.4byte	0x27f
 3855 0159 2E       		.ascii	"CyDmacError\000"
 3856 015a 01       		.4byte	0x2a0
 3857 015b 3F       		.ascii	"CyDmacClearError\000"
 3858 015c 0C       		.4byte	0x2d7
 3859 015d 03       		.ascii	"CyDmacErrorAddress\000"
 3860 015e 08       		.4byte	0x2ff
ARM GAS  C:\Users\blinky\AppData\Local\Temp/ccaubaaa.s 			page 90


 3861 015f 3A       		.ascii	"CyDmaChAlloc\000"
 3862 0160 0B       		.4byte	0x348
 3863 0161 3B       		.ascii	"CyDmaChFree\000"
 3864 0162 05       		.4byte	0x38a
 3865 0163 27       		.ascii	"CyDmaChEnable\000"
 3866 0164 0C       		.4byte	0x3e8
 3867 0165 11       		.ascii	"CyDmaChDisable\000"
 3868 0166 01       		.4byte	0x430
 3869 0167 12       		.ascii	"CyDmaChPriority\000"
 3870 0168 01       		.4byte	0x49e
 3871 0169 40       		.ascii	"CyDmaChSetExtendedAddress\000"
 3872 016a 06       		.4byte	0x50f
 3873 016b 01       		.ascii	"CyDmaChSetInitialTd\000"
 3874 016c 13       		.4byte	0x56f
 3875 016d 00       		.ascii	"CyDmaChSetRequest\000"
 3876 016e 00       		.4byte	0x5cd
 3877 016f 00       		.ascii	"CyDmaChGetRequest\000"
 3878              		.4byte	0x618
 3879 0000 1A020000 		.ascii	"CyDmaChStatus\000"
 3880 0004 0200     		.4byte	0x68b
 3881 0006 00000000 		.ascii	"CyDmaChSetConfiguration\000"
 3882 000a 290A0000 		.4byte	0x745
 3883 000e FA010000 		.ascii	"CyDmaTdAllocate\000"
 3884 0012 4379456E 		.4byte	0x783
 3884      74657243 
 3884      72697469 
 3884      63616C53 
 3884      65637469 
 3885 0029 22020000 		.ascii	"CyDmaTdFree\000"
 3886 002d 43794578 		.4byte	0x7b5
 3886      69744372 
 3886      69746963 
 3886      616C5365 
 3886      6374696F 
 3887 0043 49020000 		.ascii	"CyDmaTdFreeCount\000"
 3888 0047 4379446D 		.4byte	0x7f3
 3888      6163436F 
 3888      6E666967 
 3888      75726500 
 3889 0057 7F020000 		.ascii	"CyDmaTdSetConfiguration\000"
 3890 005b 4379446D 		.4byte	0x874
 3890      61634572 
 3890      726F7200 
 3891 0067 A0020000 		.ascii	"CyDmaTdGetConfiguration\000"
 3892 006b 4379446D 		.4byte	0x8fb
 3892      6163436C 
 3892      65617245 
 3892      72726F72 
 3892      00
 3893 007c D7020000 		.ascii	"CyDmaTdSetAddress\000"
 3894 0080 4379446D 		.4byte	0x964
 3894      61634572 
 3894      726F7241 
 3894      64647265 
 3894      737300
 3895 0093 FF020000 		.ascii	"CyDmaTdGetAddress\000"
 3896 0097 4379446D 		.4byte	0x0
ARM GAS  C:\Users\blinky\AppData\Local\Temp/ccaubaaa.s 			page 91


 3896      61436841 
 3896      6C6C6F63 
 3896      00
 3897 00a4 48030000 		.section	.debug_aranges,"",%progbits
 3898 00a8 4379446D 		.4byte	0xd4
 3898      61436846 
 3898      72656500 
 3899 00b4 8A030000 		.2byte	0x2
 3900 00b8 4379446D 		.4byte	.Ldebug_info0
 3900      61436845 
 3900      6E61626C 
 3900      6500
 3901 00c6 E8030000 		.byte	0x4
 3902 00ca 4379446D 		.byte	0x0
 3902      61436844 
 3902      69736162 
 3902      6C6500
 3903 00d9 30040000 		.2byte	0x0
 3904 00dd 4379446D 		.2byte	0x0
 3904      61436850 
 3904      72696F72 
 3904      69747900 
 3905 00ed 9E040000 		.4byte	.LFB2
 3906 00f1 4379446D 		.4byte	.LFE2-.LFB2
 3906      61436853 
 3906      65744578 
 3906      74656E64 
 3906      65644164 
 3907 010b 0F050000 		.4byte	.LFB3
 3908 010f 4379446D 		.4byte	.LFE3-.LFB3
 3908      61436853 
 3908      6574496E 
 3908      69746961 
 3908      6C546400 
 3909 0123 6F050000 		.4byte	.LFB4
 3910 0127 4379446D 		.4byte	.LFE4-.LFB4
 3910      61436853 
 3910      65745265 
 3910      71756573 
 3910      7400
 3911 0139 CD050000 		.4byte	.LFB5
 3912 013d 4379446D 		.4byte	.LFE5-.LFB5
 3912      61436847 
 3912      65745265 
 3912      71756573 
 3912      7400
 3913 014f 18060000 		.4byte	.LFB6
 3914 0153 4379446D 		.4byte	.LFE6-.LFB6
 3914      61436853 
 3914      74617475 
 3914      7300
 3915 0161 8B060000 		.4byte	.LFB7
 3916 0165 4379446D 		.4byte	.LFE7-.LFB7
 3916      61436853 
 3916      6574436F 
 3916      6E666967 
 3916      75726174 
ARM GAS  C:\Users\blinky\AppData\Local\Temp/ccaubaaa.s 			page 92


 3917 017d 45070000 		.4byte	.LFB8
 3918 0181 4379446D 		.4byte	.LFE8-.LFB8
 3918      61546441 
 3918      6C6C6F63 
 3918      61746500 
 3919 0191 83070000 		.4byte	.LFB9
 3920 0195 4379446D 		.4byte	.LFE9-.LFB9
 3920      61546446 
 3920      72656500 
 3921 01a1 B5070000 		.4byte	.LFB10
 3922 01a5 4379446D 		.4byte	.LFE10-.LFB10
 3922      61546446 
 3922      72656543 
 3922      6F756E74 
 3922      00
 3923 01b6 F3070000 		.4byte	.LFB11
 3924 01ba 4379446D 		.4byte	.LFE11-.LFB11
 3924      61546453 
 3924      6574436F 
 3924      6E666967 
 3924      75726174 
 3925 01d2 74080000 		.4byte	.LFB12
 3926 01d6 4379446D 		.4byte	.LFE12-.LFB12
 3926      61546447 
 3926      6574436F 
 3926      6E666967 
 3926      75726174 
 3927 01ee FB080000 		.4byte	.LFB13
 3928 01f2 4379446D 		.4byte	.LFE13-.LFB13
 3928      61546453 
 3928      65744164 
 3928      64726573 
 3928      7300
 3929 0204 64090000 		.4byte	.LFB14
 3930 0208 4379446D 		.4byte	.LFE14-.LFB14
 3930      61546447 
 3930      65744164 
 3930      64726573 
 3930      7300
 3931 021a 00000000 		.4byte	.LFB15
 3932              		.4byte	.LFE15-.LFB15
 3933 0000 D4000000 		.4byte	.LFB16
 3934 0004 0200     		.4byte	.LFE16-.LFB16
 3935 0006 00000000 		.4byte	.LFB17
 3936 000a 04       		.4byte	.LFE17-.LFB17
 3937 000b 00       		.4byte	.LFB18
 3938 000c 0000     		.4byte	.LFE18-.LFB18
 3939 000e 0000     		.4byte	.LFB19
 3940 0010 00000000 		.4byte	.LFE19-.LFB19
 3941 0014 0A000000 		.4byte	.LFB20
 3942 0018 00000000 		.4byte	.LFE20-.LFB20
 3943 001c 0A000000 		.4byte	.LFB21
 3944 0020 00000000 		.4byte	.LFE21-.LFB21
 3945 0024 6C000000 		.4byte	.LFB22
 3946 0028 00000000 		.4byte	.LFE22-.LFB22
 3947 002c 1C000000 		.4byte	.LFB23
 3948 0030 00000000 		.4byte	.LFE23-.LFB23
ARM GAS  C:\Users\blinky\AppData\Local\Temp/ccaubaaa.s 			page 93


 3949 0034 24000000 		.4byte	.LFB24
 3950 0038 00000000 		.4byte	.LFE24-.LFB24
 3951 003c 14000000 		.4byte	.LFB25
 3952 0040 00000000 		.4byte	.LFE25-.LFB25
 3953 0044 6C000000 		.4byte	0x0
 3954 0048 00000000 		.4byte	0x0
 3955 004c 54000000 		.section	.debug_str,"",%progbits
 3956 0050 00000000 	.LASF0:
 3957 0054 80000000 		.ascii	"chHandle\000"
 3958 0058 00000000 	.LASF5:
 3959 005c 50000000 		.ascii	"transferCount\000"
 3960 0060 00000000 	.LASF6:
 3961 0064 6C000000 		.ascii	"configuration\000"
 3962 0068 00000000 	.LASF4:
 3963 006c 88000000 		.ascii	"tdHandle\000"
 3964 0070 00000000 	.LASF3:
 3965 0074 48000000 		.ascii	"destination\000"
 3966 0078 00000000 	.LASF2:
 3967 007c 58000000 		.ascii	"source\000"
 3968 0080 00000000 	.LASF1:
 3969 0084 40000000 		.ascii	"status\000"
 3970 0088 00000000 		.ident	"GCC: (CodeSourcery Sourcery G++ Lite 2007q3-53) 4.2.1"
 3971 008c 68000000 	...
