ARM GAS  C:\Users\blinky\AppData\Local\Temp/ccaubaaa.s 			page 1


   1              		.syntax unified
   2              		.cpu cortex-m3
   3              		.fpu softvfp
   4              		.eabi_attribute 20, 1
   5              		.eabi_attribute 21, 1
   6              		.eabi_attribute 23, 3
   7              		.eabi_attribute 24, 1
   8              		.eabi_attribute 25, 1
   9              		.eabi_attribute 26, 1
  10              		.eabi_attribute 30, 6
  11              		.eabi_attribute 18, 4
  12              		.thumb
  13              		.file	"CyDmac.c"
  20 0000 7E020000 		.text
  20      02005100 
  20      00000201 
  20      FB0E0D00 
  20      01010101 
  21              	.Ltext0:
  22              		.bss
  23              		.align	2
  24              	CyDmaChannels:
  25 0000 00000000 		.space	4
  26              		.section	.text.CyEnterCriticalSection,"ax",%progbits
  27              		.align	2
  28              		.global	CyEnterCriticalSection
  29              		.thumb
  30              		.thumb_func
  31              		.type	CyEnterCriticalSection, %function
  32              	CyEnterCriticalSection:
  33              	.LFB2:
  34              		.file 1 "./Generated_Source/PSoC5/CyDmac.c"
   1:./Generated_Source/PSoC5/CyDmac.c **** /*******************************************************************************
   2:./Generated_Source/PSoC5/CyDmac.c **** * File Name: CyDmac.c  
   3:./Generated_Source/PSoC5/CyDmac.c **** * Version 1.40
   4:./Generated_Source/PSoC5/CyDmac.c **** *
   5:./Generated_Source/PSoC5/CyDmac.c **** *  Description:
   6:./Generated_Source/PSoC5/CyDmac.c **** *   Provides an API for the DMAC component. The API includes functions
   7:./Generated_Source/PSoC5/CyDmac.c **** *   for the DMA controller, DMA channels and Transfer Descriptors.
   8:./Generated_Source/PSoC5/CyDmac.c **** *
   9:./Generated_Source/PSoC5/CyDmac.c **** *   This API is the library version not the auto generated code that gets
  10:./Generated_Source/PSoC5/CyDmac.c **** *   generated when the user places a DMA component on the schematic.
  11:./Generated_Source/PSoC5/CyDmac.c **** *   The auto generated code would use the APi's in this module.
  12:./Generated_Source/PSoC5/CyDmac.c **** *
  13:./Generated_Source/PSoC5/CyDmac.c **** *  Note:
  14:./Generated_Source/PSoC5/CyDmac.c **** *   This code is endian agnostic.
  15:./Generated_Source/PSoC5/CyDmac.c **** *
  16:./Generated_Source/PSoC5/CyDmac.c **** *   The Transfer Descriptor memory can be used as regular memory if the TD's
  17:./Generated_Source/PSoC5/CyDmac.c **** *   are not being used.
  18:./Generated_Source/PSoC5/CyDmac.c **** *
  19:./Generated_Source/PSoC5/CyDmac.c **** *   This code uses the first byte of each TD to manage
ARM GAS  C:\Users\blinky\AppData\Local\Temp/ccaubaaa.s 			page 2


  20:./Generated_Source/PSoC5/CyDmac.c **** *   the free list of TD's. The user can over write this once the TD is
  21:./Generated_Source/PSoC5/CyDmac.c **** *   allocated.
  22:./Generated_Source/PSoC5/CyDmac.c **** *
  23:./Generated_Source/PSoC5/CyDmac.c **** *  Note: 
  24:./Generated_Source/PSoC5/CyDmac.c **** *   Documentation of the API's in this file is located in the
  25:./Generated_Source/PSoC5/CyDmac.c **** *   System Reference Guide provided with PSoC Creator.
  26:./Generated_Source/PSoC5/CyDmac.c **** *  
  27:./Generated_Source/PSoC5/CyDmac.c **** *
  28:./Generated_Source/PSoC5/CyDmac.c **** *******************************************************************************
  29:./Generated_Source/PSoC5/CyDmac.c **** * Copyright 2008-2009, Cypress Semiconductor Corporation.  All rights reserved.
  30:./Generated_Source/PSoC5/CyDmac.c **** * You may use this file only in accordance with the license, terms, conditions, 
  31:./Generated_Source/PSoC5/CyDmac.c **** * disclaimers, and limitations in the end user license agreement accompanying 
  32:./Generated_Source/PSoC5/CyDmac.c **** * the software package with which this file was provided.
  33:./Generated_Source/PSoC5/CyDmac.c **** ********************************************************************************/
  34:./Generated_Source/PSoC5/CyDmac.c **** 
  35:./Generated_Source/PSoC5/CyDmac.c **** 
  36:./Generated_Source/PSoC5/CyDmac.c **** #include <CYDEVICE.H>
  37:./Generated_Source/PSoC5/CyDmac.c **** #include <CYDMAC.H>
  38:./Generated_Source/PSoC5/CyDmac.c **** 
  39:./Generated_Source/PSoC5/CyDmac.c **** 
  40:./Generated_Source/PSoC5/CyDmac.c **** 
  41:./Generated_Source/PSoC5/CyDmac.c **** 
  42:./Generated_Source/PSoC5/CyDmac.c **** /* Current Number of free elements in the list. */
  43:./Generated_Source/PSoC5/CyDmac.c **** static uint8 CyDmaTdCurrentNumber;
  44:./Generated_Source/PSoC5/CyDmac.c **** 
  45:./Generated_Source/PSoC5/CyDmac.c **** /* Index of the first available TD. */
  46:./Generated_Source/PSoC5/CyDmac.c **** static uint8 CyDmaTdFreeIndex;
  47:./Generated_Source/PSoC5/CyDmac.c **** 
  48:./Generated_Source/PSoC5/CyDmac.c **** /* Bit map of DMA channel ownership. */
  49:./Generated_Source/PSoC5/CyDmac.c **** static uint32 CyDmaChannels = DMA_CHANNELS_USED__MASK0;
  50:./Generated_Source/PSoC5/CyDmac.c **** 
  51:./Generated_Source/PSoC5/CyDmac.c **** void CyEnterCriticalSection(void);
  52:./Generated_Source/PSoC5/CyDmac.c **** void CyExitCriticalSection(void);
  53:./Generated_Source/PSoC5/CyDmac.c **** 
  54:./Generated_Source/PSoC5/CyDmac.c **** void CyEnterCriticalSection(void)
  55:./Generated_Source/PSoC5/CyDmac.c **** {
  35              	= 0, frame = 0
  36              		@ frame_needed = 1, uses_anonymous_args = 0
  37              		@ link register save eliminated.
  38              		push	{r7}
  39 0000 80B4     	.LCFI0:
  40              		add	r7, sp, #0
  41 0002 00AF     	.LCFI1:
  42              		@ lr needed for prologue
  43              		.loc 1 56 0
  56:./Generated_Source/PSoC5/CyDmac.c **** }
  44              	r7
  45 0004 BD46     		pop	{r7}
  46 0006 80BC     		bx	lr
  47 0008 7047     	.LFE2:
  48              		.size	CyEnterCriticalSection, .-CyEnterCriticalSection
  49              		.section	.text.CyExitCriticalSection,"ax",%progbits
  50 000a C046     		.align	2
  51              		.global	CyExitCriticalSection
  52              		.thumb
  53              		.thumb_func
  54              		.type	CyExitCriticalSection, %function
ARM GAS  C:\Users\blinky\AppData\Local\Temp/ccaubaaa.s 			page 3


  55              	CyExitCriticalSection:
  56              	.LFB3:
  57              		.loc 1 59 0
  57:./Generated_Source/PSoC5/CyDmac.c **** 
  58:./Generated_Source/PSoC5/CyDmac.c **** void CyExitCriticalSection(void)
  59:./Generated_Source/PSoC5/CyDmac.c **** {
  58              	retend = 0, frame = 0
  59              		@ frame_needed = 1, uses_anonymous_args = 0
  60              		@ link register save eliminated.
  61              		push	{r7}
  62 0000 80B4     	.LCFI2:
  63              		add	r7, sp, #0
  64 0002 00AF     	.LCFI3:
  65              		@ lr needed for prologue
  66              		.loc 1 60 0
  60:./Generated_Source/PSoC5/CyDmac.c **** }
  67              	r7
  68 0004 BD46     		pop	{r7}
  69 0006 80BC     		bx	lr
  70 0008 7047     	.LFE3:
  71              		.size	CyExitCriticalSection, .-CyExitCriticalSection
  72              		.section	.text.CyDmacConfigure,"ax",%progbits
  73 000a C046     		.align	2
  74              		.global	CyDmacConfigure
  75              		.thumb
  76              		.thumb_func
  77              		.type	CyDmacConfigure, %function
  78              	CyDmacConfigure:
  79              	.LFB4:
  80              		.loc 1 80 0
  61:./Generated_Source/PSoC5/CyDmac.c **** 
  62:./Generated_Source/PSoC5/CyDmac.c **** 
  63:./Generated_Source/PSoC5/CyDmac.c **** /*******************************************************************************
  64:./Generated_Source/PSoC5/CyDmac.c **** * Function Name: CyDmacConfigure
  65:./Generated_Source/PSoC5/CyDmac.c **** ********************************************************************************
  66:./Generated_Source/PSoC5/CyDmac.c **** * Summary:
  67:./Generated_Source/PSoC5/CyDmac.c **** *   Sets the DMAC Configuration register with the default values.
  68:./Generated_Source/PSoC5/CyDmac.c **** *   Initializes the linked list of Transfer Descriptors.
  69:./Generated_Source/PSoC5/CyDmac.c **** *
  70:./Generated_Source/PSoC5/CyDmac.c **** * Parameters:
  71:./Generated_Source/PSoC5/CyDmac.c **** *   void.
  72:./Generated_Source/PSoC5/CyDmac.c **** *
  73:./Generated_Source/PSoC5/CyDmac.c **** *
  74:./Generated_Source/PSoC5/CyDmac.c **** * Return:
  75:./Generated_Source/PSoC5/CyDmac.c **** *   void.
  76:./Generated_Source/PSoC5/CyDmac.c **** *
  77:./Generated_Source/PSoC5/CyDmac.c **** *
  78:./Generated_Source/PSoC5/CyDmac.c **** *******************************************************************************/
  79:./Generated_Source/PSoC5/CyDmac.c **** void CyDmacConfigure(void)
  80:./Generated_Source/PSoC5/CyDmac.c **** {
  81              	retend = 0, frame = 8
  82              		@ frame_needed = 1, uses_anonymous_args = 0
  83              		@ link register save eliminated.
  84              		push	{r7}
  85 0000 80B4     	.LCFI4:
  86              		sub	sp, sp, #12
  87 0002 83B0     	.LCFI5:
ARM GAS  C:\Users\blinky\AppData\Local\Temp/ccaubaaa.s 			page 4


  88              		add	r7, sp, #0
  89 0004 00AF     	.LCFI6:
  90              		@ lr needed for prologue
  91              		.loc 1 85 0
  81:./Generated_Source/PSoC5/CyDmac.c ****     uint8 index;
  82:./Generated_Source/PSoC5/CyDmac.c **** 
  83:./Generated_Source/PSoC5/CyDmac.c **** 
  84:./Generated_Source/PSoC5/CyDmac.c ****     /* Set TD list variables. */
  85:./Generated_Source/PSoC5/CyDmac.c ****     CyDmaTdFreeIndex = NUMBEROF_TDS - 1;
  92              	10
  93 0006 174A     		mov	r3, #127
  94 0008 4FF07F03 		strb	r3, [r2, #0]
  95 000c 1370     		.loc 1 86 0
  86:./Generated_Source/PSoC5/CyDmac.c ****     CyDmaTdCurrentNumber = NUMBEROF_TDS;
  96              		r2, .L10+4
  97 000e 164A     		mvn	r3, #127
  98 0010 6FF07F03 		strb	r3, [r2, #0]
  99 0014 1370     		.loc 1 89 0
  87:./Generated_Source/PSoC5/CyDmac.c **** 
  88:./Generated_Source/PSoC5/CyDmac.c ****     /* Make TD free list. */
  89:./Generated_Source/PSoC5/CyDmac.c ****     for(index = NUMBEROF_TDS - 1; index; index--)
 100              		r3, #127
 101 0016 4FF07F03 		strb	r3, [r7, #7]
 102 001a FB71     		b	.L6
 103 001c 0FE0     	.L7:
 104              		.loc 1 91 0
  90:./Generated_Source/PSoC5/CyDmac.c ****     {
  91:./Generated_Source/PSoC5/CyDmac.c ****         DMAC_TDMEM[index].TD0[0] = index - 1;
 105              		r3, [r7, #7]	@ zero_extendqisi2
 106 001e FB79     		lsl	r3, r3, #3
 107 0020 4FEAC303 		add	r2, r3, #1073741824
 108 0024 03F18042 		add	r2, r2, #30720
 109 0028 02F5F042 		ldrb	r3, [r7, #7]
 110 002c FB79     		add	r3, r3, #-1
 111 002e 03F1FF33 		uxtb	r3, r3
 112 0032 DBB2     		strb	r3, [r2, #0]
 113 0034 1370     		.loc 1 89 0
 114              		ldrb	r3, [r7, #7]
 115 0036 FB79     		add	r3, r3, #-1
 116 0038 03F1FF33 		strb	r3, [r7, #7]
 117 003c FB71     	.L6:
 118              		ldrb	r3, [r7, #7]	@ zero_extendqisi2
 119 003e FB79     		cmp	r3, #0
 120 0040 002B     		bne	.L7
 121 0042 ECD1     		.loc 1 95 0
  92:./Generated_Source/PSoC5/CyDmac.c ****     }
  93:./Generated_Source/PSoC5/CyDmac.c **** 
  94:./Generated_Source/PSoC5/CyDmac.c ****     /* Make the last one point to zero. */
  95:./Generated_Source/PSoC5/CyDmac.c ****     DMAC_TDMEM[index].TD0[0] = 0;
 122              	]	@ zero_extendqisi2
 123 0044 FB79     		lsl	r3, r3, #3
 124 0046 4FEAC303 		add	r3, r3, #1073741824
 125 004a 03F18043 		add	r3, r3, #30720
 126 004e 03F5F043 		mov	r2, #0
 127 0052 4FF00002 		strb	r2, [r3, #0]
 128 0056 1A70     		.loc 1 96 0
  96:./Generated_Source/PSoC5/CyDmac.c **** }
ARM GAS  C:\Users\blinky\AppData\Local\Temp/ccaubaaa.s 			page 5


 129              	, r7, #12
 130 0058 07F10C07 		mov	sp, r7
 131 005c BD46     		pop	{r7}
 132 005e 80BC     		bx	lr
 133 0060 7047     	.L11:
 134              		.align	2
 135 0062 C046     	.L10:
 136              		.word	CyDmaTdFreeIndex
 137 0064 05000000 		.word	CyDmaTdCurrentNumber
 138 0068 04000000 	.LFE4:
 139              		.size	CyDmacConfigure, .-CyDmacConfigure
 140              		.section	.text.CyDmacError,"ax",%progbits
 141              		.align	2
 142              		.global	CyDmacError
 143              		.thumb
 144              		.thumb_func
 145              		.type	CyDmacError, %function
 146              	CyDmacError:
 147              	.LFB5:
 148              		.loc 1 118 0
  97:./Generated_Source/PSoC5/CyDmac.c **** 
  98:./Generated_Source/PSoC5/CyDmac.c **** 
  99:./Generated_Source/PSoC5/CyDmac.c **** /*******************************************************************************
 100:./Generated_Source/PSoC5/CyDmac.c **** * Function Name: CyDmacError
 101:./Generated_Source/PSoC5/CyDmac.c **** ********************************************************************************
 102:./Generated_Source/PSoC5/CyDmac.c **** * Summary:
 103:./Generated_Source/PSoC5/CyDmac.c **** * Gets the error bits from the DMAC.
 104:./Generated_Source/PSoC5/CyDmac.c **** *
 105:./Generated_Source/PSoC5/CyDmac.c **** * Parameters:
 106:./Generated_Source/PSoC5/CyDmac.c **** *   void.
 107:./Generated_Source/PSoC5/CyDmac.c **** *
 108:./Generated_Source/PSoC5/CyDmac.c **** *
 109:./Generated_Source/PSoC5/CyDmac.c **** *
 110:./Generated_Source/PSoC5/CyDmac.c **** * Return:
 111:./Generated_Source/PSoC5/CyDmac.c **** *   Returns the 4 bits of error data from the DMAC error register.
 112:./Generated_Source/PSoC5/CyDmac.c **** *
 113:./Generated_Source/PSoC5/CyDmac.c **** *   should each bit get described here?
 114:./Generated_Source/PSoC5/CyDmac.c **** *
 115:./Generated_Source/PSoC5/CyDmac.c **** *
 116:./Generated_Source/PSoC5/CyDmac.c **** *******************************************************************************/
 117:./Generated_Source/PSoC5/CyDmac.c **** uint8 CyDmacError(void)
 118:./Generated_Source/PSoC5/CyDmac.c **** {
 149              	 = 0, frame = 0
 150              		@ frame_needed = 1, uses_anonymous_args = 0
 151              		@ link register save eliminated.
 152              		push	{r7}
 153 0000 80B4     	.LCFI7:
 154              		add	r7, sp, #0
 155 0002 00AF     	.LCFI8:
 156              		@ lr needed for prologue
 157              		.loc 1 119 0
 119:./Generated_Source/PSoC5/CyDmac.c ****     return (0x0Fu & *DMAC_ERR);
 158              	.L14
 159 0004 044B     		ldr	r3, [r3, #0]
 160 0006 1B68     		uxtb	r3, r3
 161 0008 DBB2     		and	r3, r3, #15
 162 000a 03F00F03 		.loc 1 120 0
ARM GAS  C:\Users\blinky\AppData\Local\Temp/ccaubaaa.s 			page 6


 120:./Generated_Source/PSoC5/CyDmac.c **** }
 163              	r0, r3
 164 000e 1846     		mov	sp, r7
 165 0010 BD46     		pop	{r7}
 166 0012 80BC     		bx	lr
 167 0014 7047     	.L15:
 168              		.align	2
 169 0016 C046     	.L14:
 170              		.word	1073770500
 171 0018 04700040 	.LFE5:
 172              		.size	CyDmacError, .-CyDmacError
 173              		.section	.text.CyDmacClearError,"ax",%progbits
 174              		.align	2
 175              		.global	CyDmacClearError
 176              		.thumb
 177              		.thumb_func
 178              		.type	CyDmacClearError, %function
 179              	CyDmacClearError:
 180              	.LFB6:
 181              		.loc 1 144 0
 121:./Generated_Source/PSoC5/CyDmac.c **** 
 122:./Generated_Source/PSoC5/CyDmac.c **** 
 123:./Generated_Source/PSoC5/CyDmac.c **** /*******************************************************************************
 124:./Generated_Source/PSoC5/CyDmac.c **** * Function Name: CyDmacClearError
 125:./Generated_Source/PSoC5/CyDmac.c **** ********************************************************************************
 126:./Generated_Source/PSoC5/CyDmac.c **** * Summary:
 127:./Generated_Source/PSoC5/CyDmac.c **** *   Clears the error bits in the error register of the DMAC..
 128:./Generated_Source/PSoC5/CyDmac.c **** *
 129:./Generated_Source/PSoC5/CyDmac.c **** * Parameters:
 130:./Generated_Source/PSoC5/CyDmac.c **** * error:
 131:./Generated_Source/PSoC5/CyDmac.c **** *   Clears the error bits in the DMAC error register.
 132:./Generated_Source/PSoC5/CyDmac.c **** *
 133:./Generated_Source/PSoC5/CyDmac.c **** *
 134:./Generated_Source/PSoC5/CyDmac.c **** *
 135:./Generated_Source/PSoC5/CyDmac.c **** * Return:
 136:./Generated_Source/PSoC5/CyDmac.c **** *   void.
 137:./Generated_Source/PSoC5/CyDmac.c **** *
 138:./Generated_Source/PSoC5/CyDmac.c **** * Theory:
 139:./Generated_Source/PSoC5/CyDmac.c **** *   Once an error occurs the error bits are sticky and are only cleared
 140:./Generated_Source/PSoC5/CyDmac.c **** *   by a write to the error register.
 141:./Generated_Source/PSoC5/CyDmac.c **** *
 142:./Generated_Source/PSoC5/CyDmac.c **** *******************************************************************************/
 143:./Generated_Source/PSoC5/CyDmac.c **** void CyDmacClearError(uint8 error)
 144:./Generated_Source/PSoC5/CyDmac.c **** {
 182              	d = 0, frame = 8
 183              		@ frame_needed = 1, uses_anonymous_args = 0
 184              		@ link register save eliminated.
 185              		push	{r7}
 186 0000 80B4     	.LCFI9:
 187              		sub	sp, sp, #12
 188 0002 83B0     	.LCFI10:
 189              		add	r7, sp, #0
 190 0004 00AF     	.LCFI11:
 191              		@ lr needed for prologue
 192              		mov	r3, r0
 193 0006 0346     		strb	r3, [r7, #7]
 194 0008 FB71     		.loc 1 145 0
ARM GAS  C:\Users\blinky\AppData\Local\Temp/ccaubaaa.s 			page 7


 145:./Generated_Source/PSoC5/CyDmac.c ****     *DMAC_ERR = 0x0Fu & error;
 195              	
 196 000a 054A     		ldrb	r3, [r7, #7]	@ zero_extendqisi2
 197 000c FB79     		and	r3, r3, #15
 198 000e 03F00F03 		str	r3, [r2, #0]
 199 0012 1360     		.loc 1 146 0
 146:./Generated_Source/PSoC5/CyDmac.c **** }
 200              		r7, r7, #12
 201 0014 07F10C07 		mov	sp, r7
 202 0018 BD46     		pop	{r7}
 203 001a 80BC     		bx	lr
 204 001c 7047     	.L19:
 205              		.align	2
 206 001e C046     	.L18:
 207              		.word	1073770500
 208 0020 04700040 	.LFE6:
 209              		.size	CyDmacClearError, .-CyDmacClearError
 210              		.section	.text.CyDmacErrorAddress,"ax",%progbits
 211              		.align	2
 212              		.global	CyDmacErrorAddress
 213              		.thumb
 214              		.thumb_func
 215              		.type	CyDmacErrorAddress, %function
 216              	CyDmacErrorAddress:
 217              	.LFB7:
 218              		.loc 1 171 0
 147:./Generated_Source/PSoC5/CyDmac.c **** 
 148:./Generated_Source/PSoC5/CyDmac.c **** 
 149:./Generated_Source/PSoC5/CyDmac.c **** /*******************************************************************************
 150:./Generated_Source/PSoC5/CyDmac.c **** * Function Name: CyDmacErrorAddress
 151:./Generated_Source/PSoC5/CyDmac.c **** ********************************************************************************
 152:./Generated_Source/PSoC5/CyDmac.c **** * Summary:
 153:./Generated_Source/PSoC5/CyDmac.c **** *   when an BUS_TIMEOUT, UNPOP_ACC and PERIPH_ERR occurs the address
 154:./Generated_Source/PSoC5/CyDmac.c **** *   of the error is written to the error address register and
 155:./Generated_Source/PSoC5/CyDmac.c **** *   can be read with this function.
 156:./Generated_Source/PSoC5/CyDmac.c **** *
 157:./Generated_Source/PSoC5/CyDmac.c **** *   If there are multiple errors, only the address of the first is
 158:./Generated_Source/PSoC5/CyDmac.c **** *   saved.
 159:./Generated_Source/PSoC5/CyDmac.c **** *
 160:./Generated_Source/PSoC5/CyDmac.c **** * Parameters:
 161:./Generated_Source/PSoC5/CyDmac.c **** *   void.
 162:./Generated_Source/PSoC5/CyDmac.c **** *
 163:./Generated_Source/PSoC5/CyDmac.c **** *
 164:./Generated_Source/PSoC5/CyDmac.c **** *
 165:./Generated_Source/PSoC5/CyDmac.c **** * Return:
 166:./Generated_Source/PSoC5/CyDmac.c **** *   The address that caused the error.
 167:./Generated_Source/PSoC5/CyDmac.c **** *
 168:./Generated_Source/PSoC5/CyDmac.c **** *
 169:./Generated_Source/PSoC5/CyDmac.c **** *******************************************************************************/
 170:./Generated_Source/PSoC5/CyDmac.c **** uint32 CyDmacErrorAddress(void)
 171:./Generated_Source/PSoC5/CyDmac.c **** {
 219              	d = 0, frame = 0
 220              		@ frame_needed = 1, uses_anonymous_args = 0
 221              		@ link register save eliminated.
 222              		push	{r7}
 223 0000 80B4     	.LCFI12:
 224              		add	r7, sp, #0
ARM GAS  C:\Users\blinky\AppData\Local\Temp/ccaubaaa.s 			page 8


 225 0002 00AF     	.LCFI13:
 226              		@ lr needed for prologue
 227              		.loc 1 172 0
 172:./Generated_Source/PSoC5/CyDmac.c ****     return CY_GET_REG32(DMAC_ERR_ADR);
 228              	.L22
 229 0004 024B     		ldr	r3, [r3, #0]
 230 0006 1B68     		.loc 1 173 0
 173:./Generated_Source/PSoC5/CyDmac.c **** }
 231              	v	r0, r3
 232 0008 1846     		mov	sp, r7
 233 000a BD46     		pop	{r7}
 234 000c 80BC     		bx	lr
 235 000e 7047     	.L23:
 236              		.align	2
 237              	.L22:
 238              		.word	1073770504
 239 0010 08700040 	.LFE7:
 240              		.size	CyDmacErrorAddress, .-CyDmacErrorAddress
 241              		.section	.text.CyDmaChAlloc,"ax",%progbits
 242              		.align	2
 243              		.global	CyDmaChAlloc
 244              		.thumb
 245              		.thumb_func
 246              		.type	CyDmaChAlloc, %function
 247              	CyDmaChAlloc:
 248              	.LFB8:
 249              		.loc 1 194 0
 174:./Generated_Source/PSoC5/CyDmac.c **** 
 175:./Generated_Source/PSoC5/CyDmac.c **** 
 176:./Generated_Source/PSoC5/CyDmac.c **** /*******************************************************************************
 177:./Generated_Source/PSoC5/CyDmac.c **** * Function Name: CyDmaChAlloc
 178:./Generated_Source/PSoC5/CyDmac.c **** ********************************************************************************
 179:./Generated_Source/PSoC5/CyDmac.c **** * Summary:
 180:./Generated_Source/PSoC5/CyDmac.c **** *   Allocates a channel of the DMAC to be used by the caller.
 181:./Generated_Source/PSoC5/CyDmac.c **** *
 182:./Generated_Source/PSoC5/CyDmac.c **** * Parameters:
 183:./Generated_Source/PSoC5/CyDmac.c **** *   void.
 184:./Generated_Source/PSoC5/CyDmac.c **** *
 185:./Generated_Source/PSoC5/CyDmac.c **** *
 186:./Generated_Source/PSoC5/CyDmac.c **** *
 187:./Generated_Source/PSoC5/CyDmac.c **** * Return:
 188:./Generated_Source/PSoC5/CyDmac.c **** *   The channel that can be used by the caller for DMA activity.
 189:./Generated_Source/PSoC5/CyDmac.c **** *   DMA_INVALID_CHANNEL if there are no channels left. 
 190:./Generated_Source/PSoC5/CyDmac.c **** *
 191:./Generated_Source/PSoC5/CyDmac.c **** *
 192:./Generated_Source/PSoC5/CyDmac.c **** *******************************************************************************/
 193:./Generated_Source/PSoC5/CyDmac.c **** uint8 CyDmaChAlloc(void)
 194:./Generated_Source/PSoC5/CyDmac.c **** {
 250              	d = 0, frame = 8
 251              		@ frame_needed = 1, uses_anonymous_args = 0
 252              		push	{r7, lr}
 253 0000 80B5     	.LCFI14:
 254              		sub	sp, sp, #8
 255 0002 82B0     	.LCFI15:
 256              		add	r7, sp, #0
 257 0004 00AF     	.LCFI16:
 258              		.loc 1 200 0
ARM GAS  C:\Users\blinky\AppData\Local\Temp/ccaubaaa.s 			page 9


 195:./Generated_Source/PSoC5/CyDmac.c ****     uint8 index;
 196:./Generated_Source/PSoC5/CyDmac.c ****     uint32 channel;
 197:./Generated_Source/PSoC5/CyDmac.c **** 
 198:./Generated_Source/PSoC5/CyDmac.c **** 
 199:./Generated_Source/PSoC5/CyDmac.c ****     /* Enter critical section! */
 200:./Generated_Source/PSoC5/CyDmac.c ****     CyEnterCriticalSection();
 259              	erCriticalSection
 260 0006 FFF7FEFF 		.loc 1 203 0
 201:./Generated_Source/PSoC5/CyDmac.c **** 
 202:./Generated_Source/PSoC5/CyDmac.c ****     /* Look for a free channel. */
 203:./Generated_Source/PSoC5/CyDmac.c ****     for(index = 0, channel = 1; index < NUMBEROF_CHANNELS; index++, channel <<= 1)
 261              	ov	r3, #0
 262 000a 4FF00003 		strb	r3, [r7, #3]
 263 000e FB70     		mov	r3, #1
 264 0010 4FF00103 		str	r3, [r7, #4]
 265 0014 7B60     		b	.L25
 266 0016 16E0     	.L26:
 267              		.loc 1 205 0
 204:./Generated_Source/PSoC5/CyDmac.c ****     {
 205:./Generated_Source/PSoC5/CyDmac.c ****         if(!(CyDmaChannels & channel))
 268              	, .L33
 269 0018 134B     		ldr	r2, [r3, #0]
 270 001a 1A68     		ldr	r3, [r7, #4]
 271 001c 7B68     		and	r3, r2, r3
 272 001e 02EA0303 		cmp	r3, #0
 273 0022 002B     		bne	.L27
 274 0024 07D1     		.loc 1 208 0
 206:./Generated_Source/PSoC5/CyDmac.c ****         {
 207:./Generated_Source/PSoC5/CyDmac.c ****             /* Mark the channel as used. */
 208:./Generated_Source/PSoC5/CyDmac.c ****             CyDmaChannels |= channel;
 275              	, .L33
 276 0026 104B     		ldr	r2, [r3, #0]
 277 0028 1A68     		ldr	r3, [r7, #4]
 278 002a 7B68     		orr	r2, r2, r3
 279 002c 42EA0302 		ldr	r3, .L33
 280 0030 0D4B     		str	r2, [r3, #0]
 281 0032 1A60     		.loc 1 209 0
 209:./Generated_Source/PSoC5/CyDmac.c ****             break;
 282              	
 283 0034 0AE0     	.L27:
 284              		.loc 1 203 0
 285              		ldrb	r3, [r7, #3]
 286 0036 FB78     		add	r3, r3, #1
 287 0038 03F10103 		strb	r3, [r7, #3]
 288 003c FB70     		ldr	r3, [r7, #4]
 289 003e 7B68     		lsl	r3, r3, #1
 290 0040 4FEA4303 		str	r3, [r7, #4]
 291 0044 7B60     	.L25:
 292              		ldrb	r3, [r7, #3]	@ zero_extendqisi2
 293 0046 FB78     		cmp	r3, #23
 294 0048 172B     		bls	.L26
 295 004a E5D9     	.L29:
 296              		.loc 1 213 0
 210:./Generated_Source/PSoC5/CyDmac.c ****         }
 211:./Generated_Source/PSoC5/CyDmac.c ****     }
 212:./Generated_Source/PSoC5/CyDmac.c **** 
 213:./Generated_Source/PSoC5/CyDmac.c ****     if(index >= NUMBEROF_CHANNELS)
ARM GAS  C:\Users\blinky\AppData\Local\Temp/ccaubaaa.s 			page 10


 297              	 #3]	@ zero_extendqisi2
 298 004c FB78     		cmp	r3, #23
 299 004e 172B     		bls	.L30
 300 0050 02D9     		.loc 1 215 0
 214:./Generated_Source/PSoC5/CyDmac.c ****     {
 215:./Generated_Source/PSoC5/CyDmac.c ****         index = DMA_INVALID_CHANNEL;    
 301              		r3, #-1
 302 0052 4FF0FF33 		strb	r3, [r7, #3]
 303 0056 FB70     	.L30:
 304              		.loc 1 219 0
 216:./Generated_Source/PSoC5/CyDmac.c ****     }
 217:./Generated_Source/PSoC5/CyDmac.c **** 
 218:./Generated_Source/PSoC5/CyDmac.c ****     /* Exit critical section! */
 219:./Generated_Source/PSoC5/CyDmac.c ****     CyExitCriticalSection();
 305              	CyExitCriticalSection
 306 0058 FFF7FEFF 		.loc 1 221 0
 220:./Generated_Source/PSoC5/CyDmac.c **** 
 221:./Generated_Source/PSoC5/CyDmac.c ****     return index;
 307              	drb	r3, [r7, #3]	@ zero_extendqisi2
 308 005c FB78     		.loc 1 222 0
 222:./Generated_Source/PSoC5/CyDmac.c **** }
 309              	ov	r0, r3
 310 005e 1846     		add	r7, r7, #8
 311 0060 07F10807 		mov	sp, r7
 312 0064 BD46     		pop	{r7, pc}
 313 0066 80BD     	.L34:
 314              		.align	2
 315              	.L33:
 316              		.word	CyDmaChannels
 317 0068 00000000 	.LFE8:
 318              		.size	CyDmaChAlloc, .-CyDmaChAlloc
 319              		.section	.text.CyDmaChFree,"ax",%progbits
 320              		.align	2
 321              		.global	CyDmaChFree
 322              		.thumb
 323              		.thumb_func
 324              		.type	CyDmaChFree, %function
 325              	CyDmaChFree:
 326              	.LFB9:
 327              		.loc 1 242 0
 223:./Generated_Source/PSoC5/CyDmac.c **** 
 224:./Generated_Source/PSoC5/CyDmac.c **** 
 225:./Generated_Source/PSoC5/CyDmac.c **** /*******************************************************************************
 226:./Generated_Source/PSoC5/CyDmac.c **** * Function Name: CyDmaChFree
 227:./Generated_Source/PSoC5/CyDmac.c **** ********************************************************************************
 228:./Generated_Source/PSoC5/CyDmac.c **** * Summary:
 229:./Generated_Source/PSoC5/CyDmac.c **** * Frees a channel allocated by DmaChAlloc.
 230:./Generated_Source/PSoC5/CyDmac.c **** *
 231:./Generated_Source/PSoC5/CyDmac.c **** * Parameters:
 232:./Generated_Source/PSoC5/CyDmac.c **** * chHandle:
 233:./Generated_Source/PSoC5/CyDmac.c **** *   Handle to the DMA channel previously allocated by a call to DmaChAlloc.
 234:./Generated_Source/PSoC5/CyDmac.c **** *
 235:./Generated_Source/PSoC5/CyDmac.c **** *
 236:./Generated_Source/PSoC5/CyDmac.c **** * Return:
 237:./Generated_Source/PSoC5/CyDmac.c **** *   0 in successful or CYRET_BAD_PARAM.
 238:./Generated_Source/PSoC5/CyDmac.c **** *
 239:./Generated_Source/PSoC5/CyDmac.c **** *
ARM GAS  C:\Users\blinky\AppData\Local\Temp/ccaubaaa.s 			page 11


 240:./Generated_Source/PSoC5/CyDmac.c **** *******************************************************************************/
 241:./Generated_Source/PSoC5/CyDmac.c **** cystatus CyDmaChFree(uint8 chHandle)
 242:./Generated_Source/PSoC5/CyDmac.c **** {
 328              	d = 0, frame = 16
 329              		@ frame_needed = 1, uses_anonymous_args = 0
 330              		push	{r7, lr}
 331 0000 80B5     	.LCFI17:
 332              		sub	sp, sp, #16
 333 0002 84B0     	.LCFI18:
 334              		add	r7, sp, #0
 335 0004 00AF     	.LCFI19:
 336              		mov	r3, r0
 337 0006 0346     		strb	r3, [r7, #7]
 338 0008 FB71     		.loc 1 246 0
 243:./Generated_Source/PSoC5/CyDmac.c ****     cystatus status;
 244:./Generated_Source/PSoC5/CyDmac.c **** 
 245:./Generated_Source/PSoC5/CyDmac.c **** 
 246:./Generated_Source/PSoC5/CyDmac.c ****     if(chHandle < NUMBEROF_CHANNELS)
 339              	r7, #7]	@ zero_extendqisi2
 340 000a FB79     		cmp	r3, #23
 341 000c 172B     		bhi	.L36
 342 000e 15D8     		.loc 1 249 0
 247:./Generated_Source/PSoC5/CyDmac.c ****     {
 248:./Generated_Source/PSoC5/CyDmac.c ****         /* Enter critical section! */
 249:./Generated_Source/PSoC5/CyDmac.c ****         CyEnterCriticalSection();
 343              	CyEnterCriticalSection
 344 0010 FFF7FEFF 		.loc 1 252 0
 250:./Generated_Source/PSoC5/CyDmac.c **** 
 251:./Generated_Source/PSoC5/CyDmac.c ****         /* Clear the bit mask that keeps track of ownership. */
 252:./Generated_Source/PSoC5/CyDmac.c ****         CyDmaChannels &= ~(1 << chHandle);
 345              	drb	r2, [r7, #7]	@ zero_extendqisi2
 346 0014 FA79     		mov	r3, #1
 347 0016 4FF00103 		lsl	r3, r3, r2
 348 001a 03FA02F3 		mvn	r3, r3
 349 001e 6FEA0303 		mov	r2, r3
 350 0022 1A46     		ldr	r3, .L40
 351 0024 0A4B     		ldr	r3, [r3, #0]
 352 0026 1B68     		and	r2, r2, r3
 353 0028 02EA0302 		ldr	r3, .L40
 354 002c 084B     		str	r2, [r3, #0]
 355 002e 1A60     		.loc 1 255 0
 253:./Generated_Source/PSoC5/CyDmac.c **** 
 254:./Generated_Source/PSoC5/CyDmac.c ****         /* Exit critical section! */
 255:./Generated_Source/PSoC5/CyDmac.c ****         CyExitCriticalSection();
 356              	riticalSection
 357 0030 FFF7FEFF 		.loc 1 256 0
 256:./Generated_Source/PSoC5/CyDmac.c ****         status = CYRET_SUCCESS;
 358              	ov	r3, #0
 359 0034 4FF00003 		str	r3, [r7, #12]
 360 0038 FB60     		b	.L38
 361 003a 02E0     	.L36:
 362              		.loc 1 260 0
 257:./Generated_Source/PSoC5/CyDmac.c ****     }
 258:./Generated_Source/PSoC5/CyDmac.c ****     else
 259:./Generated_Source/PSoC5/CyDmac.c ****     {
 260:./Generated_Source/PSoC5/CyDmac.c ****         status = CYRET_BAD_PARAM;
 363              	r3, #1
ARM GAS  C:\Users\blinky\AppData\Local\Temp/ccaubaaa.s 			page 12


 364 003c 4FF00103 		str	r3, [r7, #12]
 365 0040 FB60     	.L38:
 366              		.loc 1 263 0
 261:./Generated_Source/PSoC5/CyDmac.c ****     }
 262:./Generated_Source/PSoC5/CyDmac.c **** 
 263:./Generated_Source/PSoC5/CyDmac.c ****     return status;
 367              		r3, [r7, #12]
 368 0042 FB68     		.loc 1 264 0
 264:./Generated_Source/PSoC5/CyDmac.c **** }
 369              	ov	r0, r3
 370 0044 1846     		add	r7, r7, #16
 371 0046 07F11007 		mov	sp, r7
 372 004a BD46     		pop	{r7, pc}
 373 004c 80BD     	.L41:
 374              		.align	2
 375 004e C046     	.L40:
 376              		.word	CyDmaChannels
 377 0050 00000000 	.LFE9:
 378              		.size	CyDmaChFree, .-CyDmaChFree
 379              		.section	.text.CyDmaChEnable,"ax",%progbits
 380              		.align	2
 381              		.global	CyDmaChEnable
 382              		.thumb
 383              		.thumb_func
 384              		.type	CyDmaChEnable, %function
 385              	CyDmaChEnable:
 386              	.LFB10:
 387              		.loc 1 287 0
 265:./Generated_Source/PSoC5/CyDmac.c **** 
 266:./Generated_Source/PSoC5/CyDmac.c **** 
 267:./Generated_Source/PSoC5/CyDmac.c **** /*******************************************************************************
 268:./Generated_Source/PSoC5/CyDmac.c **** * Function Name: CyDmaChEnable
 269:./Generated_Source/PSoC5/CyDmac.c **** ********************************************************************************
 270:./Generated_Source/PSoC5/CyDmac.c **** * Summary:
 271:./Generated_Source/PSoC5/CyDmac.c **** * Enables the DMA channel for execution depending on how it was configured.
 272:./Generated_Source/PSoC5/CyDmac.c **** *
 273:./Generated_Source/PSoC5/CyDmac.c **** * Parameters:
 274:./Generated_Source/PSoC5/CyDmac.c **** * chHandle:
 275:./Generated_Source/PSoC5/CyDmac.c **** *   Handle to the dma channel to be enabled.
 276:./Generated_Source/PSoC5/CyDmac.c **** *
 277:./Generated_Source/PSoC5/CyDmac.c **** * preserveTds;
 278:./Generated_Source/PSoC5/CyDmac.c **** *   0 if elements of TD should reflect current state of TD execuction.
 279:./Generated_Source/PSoC5/CyDmac.c **** *   1 if the DMA controller should not change values of the TD.
 280:./Generated_Source/PSoC5/CyDmac.c **** *
 281:./Generated_Source/PSoC5/CyDmac.c **** * Return:
 282:./Generated_Source/PSoC5/CyDmac.c **** *   0 in successful or CYRET_BAD_PARAM.
 283:./Generated_Source/PSoC5/CyDmac.c **** *
 284:./Generated_Source/PSoC5/CyDmac.c **** *
 285:./Generated_Source/PSoC5/CyDmac.c **** *******************************************************************************/
 286:./Generated_Source/PSoC5/CyDmac.c **** cystatus CyDmaChEnable(uint8 chHandle, uint8 preserveTds)
 287:./Generated_Source/PSoC5/CyDmac.c **** {
 388              	d = 0, frame = 24
 389              		@ frame_needed = 1, uses_anonymous_args = 0
 390              		@ link register save eliminated.
 391              		push	{r7}
 392 0000 80B4     	.LCFI20:
 393              		sub	sp, sp, #28
ARM GAS  C:\Users\blinky\AppData\Local\Temp/ccaubaaa.s 			page 13


 394 0002 87B0     	.LCFI21:
 395              		add	r7, sp, #0
 396 0004 00AF     	.LCFI22:
 397              		@ lr needed for prologue
 398              		mov	r3, r0
 399 0006 0346     		mov	r2, r1
 400 0008 0A46     		strb	r3, [r7, #15]
 401 000a FB73     		mov	r3, r2
 402 000c 1346     		strb	r3, [r7, #14]
 403 000e BB73     		.loc 1 291 0
 288:./Generated_Source/PSoC5/CyDmac.c ****     cystatus status;
 289:./Generated_Source/PSoC5/CyDmac.c **** 
 290:./Generated_Source/PSoC5/CyDmac.c **** 
 291:./Generated_Source/PSoC5/CyDmac.c ****     if(chHandle < NUMBEROF_CHANNELS)
 404              	15]	@ zero_extendqisi2
 405 0010 FB7B     		cmp	r3, #23
 406 0012 172B     		bhi	.L43
 407 0014 28D8     		.loc 1 293 0
 292:./Generated_Source/PSoC5/CyDmac.c ****     {
 293:./Generated_Source/PSoC5/CyDmac.c ****         DMAC_CH[chHandle].basic_cfg[0] = (DMAC_CH[chHandle].basic_cfg[0] &  ~0x20u) | ((preserveTds
 408              	b	r3, [r7, #15]	@ zero_extendqisi2
 409 0016 FB7B     		lsl	r3, r3, #4
 410 0018 4FEA0313 		ldr	r1, .L50
 411 001c 1749     		str	r1, [r7, #0]
 412 001e 3960     		ldr	r2, [r7, #0]
 413 0020 3A68     		add	r2, r3, r2
 414 0022 1A44     		str	r2, [r7, #0]
 415 0024 3A60     		ldrb	r3, [r7, #15]	@ zero_extendqisi2
 416 0026 FB7B     		lsl	r3, r3, #4
 417 0028 4FEA0313 		mov	r2, r3
 418 002c 1A46     		ldr	r3, .L50
 419 002e 134B     		add	r3, r2, r3
 420 0030 1344     		ldrb	r3, [r3, #0]	@ zero_extendqisi2
 421 0032 1B78     		str	r3, [r7, #4]
 422 0034 7B60     		ldr	r3, [r7, #4]
 423 0036 7B68     		and	r3, r3, #223
 424 0038 03F0DF03 		str	r3, [r7, #4]
 425 003c 7B60     		ldrb	r3, [r7, #14]	@ zero_extendqisi2
 426 003e BB7B     		cmp	r3, #0
 427 0040 002B     		beq	.L45
 428 0042 03D0     		mov	r1, #33
 429 0044 4FF02101 		str	r1, [r7, #8]
 430 0048 B960     		b	.L47
 431 004a 02E0     	.L45:
 432              		mov	r2, #1
 433 004c 4FF00102 		str	r2, [r7, #8]
 434 0050 BA60     	.L47:
 435              		ldr	r1, [r7, #4]
 436 0052 7968     		ldr	r2, [r7, #8]
 437 0054 BA68     		orr	r3, r1, r2
 438 0056 41EA0203 		uxtb	r3, r3
 439 005a DBB2     		ldr	r1, [r7, #0]
 440 005c 3968     		strb	r3, [r1, #0]
 441 005e 0B70     		.loc 1 294 0
 294:./Generated_Source/PSoC5/CyDmac.c ****         status = CYRET_SUCCESS;
 442              	.L48
 443 0060 4FF00003 	.L43:
ARM GAS  C:\Users\blinky\AppData\Local\Temp/ccaubaaa.s 			page 14


 444 0064 7B61     		.loc 1 298 0
 445 0066 02E0     		mov	r3, #1
 446              		str	r3, [r7, #20]
 295:./Generated_Source/PSoC5/CyDmac.c ****     }
 296:./Generated_Source/PSoC5/CyDmac.c ****     else
 297:./Generated_Source/PSoC5/CyDmac.c ****     {
 298:./Generated_Source/PSoC5/CyDmac.c ****         status = CYRET_BAD_PARAM;
 447              	
 448 0068 4FF00103 		.loc 1 301 0
 449 006c 7B61     		ldr	r3, [r7, #20]
 450              		.loc 1 302 0
 299:./Generated_Source/PSoC5/CyDmac.c ****     }
 300:./Generated_Source/PSoC5/CyDmac.c **** 
 301:./Generated_Source/PSoC5/CyDmac.c ****     return status;
 451              	v	r0, r3
 452 006e 7B69     		add	r7, r7, #28
 302:./Generated_Source/PSoC5/CyDmac.c **** }
 453              	ov	sp, r7
 454 0070 1846     		pop	{r7}
 455 0072 07F11C07 		bx	lr
 456 0076 BD46     	.L51:
 457 0078 80BC     		.align	2
 458 007a 7047     	.L50:
 459              		.word	1073770512
 460              	.LFE10:
 461              		.size	CyDmaChEnable, .-CyDmaChEnable
 462 007c 10700040 		.section	.text.CyDmaChDisable,"ax",%progbits
 463              		.align	2
 464              		.global	CyDmaChDisable
 465              		.thumb
 466              		.thumb_func
 467              		.type	CyDmaChDisable, %function
 468              	CyDmaChDisable:
 469              	.LFB11:
 470              		.loc 1 329 0
 471              		@ args = 0, pretend = 0, frame = 16
 472              		@ frame_needed = 1, uses_anonymous_args = 0
 303:./Generated_Source/PSoC5/CyDmac.c **** 
 304:./Generated_Source/PSoC5/CyDmac.c **** 
 305:./Generated_Source/PSoC5/CyDmac.c **** /*******************************************************************************
 306:./Generated_Source/PSoC5/CyDmac.c **** * Function Name: CyDmaChDisable
 307:./Generated_Source/PSoC5/CyDmac.c **** ********************************************************************************
 308:./Generated_Source/PSoC5/CyDmac.c **** * Summary:
 309:./Generated_Source/PSoC5/CyDmac.c **** *   Disables the DMA channel.
 310:./Generated_Source/PSoC5/CyDmac.c **** *
 311:./Generated_Source/PSoC5/CyDmac.c **** * Parameters:
 312:./Generated_Source/PSoC5/CyDmac.c **** * chHandle:
 313:./Generated_Source/PSoC5/CyDmac.c **** *   Handle to the dma channel.
 314:./Generated_Source/PSoC5/CyDmac.c **** *
 315:./Generated_Source/PSoC5/CyDmac.c **** *
 316:./Generated_Source/PSoC5/CyDmac.c **** * Return:
 317:./Generated_Source/PSoC5/CyDmac.c **** *   0 in successful or CYRET_BAD_PARAM.
 318:./Generated_Source/PSoC5/CyDmac.c **** *
 319:./Generated_Source/PSoC5/CyDmac.c **** * Theory:
 320:./Generated_Source/PSoC5/CyDmac.c **** *   Once this function has been called. DmaChStatus can be polled
 321:./Generated_Source/PSoC5/CyDmac.c **** *   to determine when the Channel has been disabled and determine
 322:./Generated_Source/PSoC5/CyDmac.c **** *   which TD was being executed.
ARM GAS  C:\Users\blinky\AppData\Local\Temp/ccaubaaa.s 			page 15


 323:./Generated_Source/PSoC5/CyDmac.c **** *
 324:./Generated_Source/PSoC5/CyDmac.c **** *   If it is currently executing it will
 325:./Generated_Source/PSoC5/CyDmac.c **** *   allow the current burst to finish naturally.
 326:./Generated_Source/PSoC5/CyDmac.c **** *
 327:./Generated_Source/PSoC5/CyDmac.c **** *******************************************************************************/
 328:./Generated_Source/PSoC5/CyDmac.c **** cystatus CyDmaChDisable(uint8 chHandle)
 329:./Generated_Source/PSoC5/CyDmac.c **** {
 473              	e eliminated.
 474              		push	{r7}
 475              	.LCFI23:
 476              		sub	sp, sp, #20
 477 0000 80B4     	.LCFI24:
 478              		add	r7, sp, #0
 479 0002 85B0     	.LCFI25:
 480              		@ lr needed for prologue
 481 0004 00AF     		mov	r3, r0
 482              		strb	r3, [r7, #7]
 483              		.loc 1 333 0
 484 0006 0346     		ldrb	r3, [r7, #7]	@ zero_extendqisi2
 485 0008 FB71     		cmp	r3, #23
 330:./Generated_Source/PSoC5/CyDmac.c ****     cystatus status;
 331:./Generated_Source/PSoC5/CyDmac.c **** 
 332:./Generated_Source/PSoC5/CyDmac.c **** 
 333:./Generated_Source/PSoC5/CyDmac.c ****     if(chHandle < NUMBEROF_CHANNELS)
 486              	oc 1 335 0
 487 000a FB79     		ldrb	r3, [r7, #7]	@ zero_extendqisi2
 488 000c 172B     		lsl	r3, r3, #4
 489 000e 12D8     		ldr	r1, .L57
 334:./Generated_Source/PSoC5/CyDmac.c ****     {
 335:./Generated_Source/PSoC5/CyDmac.c ****         DMAC_CH[chHandle].basic_cfg[0] &= ~0x21u;
 490              		r1, r3, r1
 491 0010 FB79     		ldrb	r3, [r7, #7]	@ zero_extendqisi2
 492 0012 4FEA0313 		lsl	r3, r3, #4
 493 0016 0D49     		mov	r2, r3
 494 0018 1944     		ldr	r3, .L57
 495 001a FB79     		add	r3, r2, r3
 496 001c 4FEA0313 		ldrb	r3, [r3, #0]	@ zero_extendqisi2
 497 0020 1A46     		and	r3, r3, #222
 498 0022 0A4B     		strb	r3, [r1, #0]
 499 0024 1344     		.loc 1 336 0
 500 0026 1B78     		mov	r3, #0
 501 0028 03F0DE03 		str	r3, [r7, #12]
 502 002c 0B70     		b	.L55
 336:./Generated_Source/PSoC5/CyDmac.c ****         status = CYRET_SUCCESS;
 503              	 340 0
 504 002e 4FF00003 		mov	r3, #1
 505 0032 FB60     		str	r3, [r7, #12]
 506 0034 02E0     	.L55:
 507              		.loc 1 343 0
 337:./Generated_Source/PSoC5/CyDmac.c ****     }
 338:./Generated_Source/PSoC5/CyDmac.c ****     else
 339:./Generated_Source/PSoC5/CyDmac.c ****     {
 340:./Generated_Source/PSoC5/CyDmac.c ****         status = CYRET_BAD_PARAM;
 508              	r3, [r7, #12]
 509 0036 4FF00103 		.loc 1 344 0
 510 003a FB60     		mov	r0, r3
 511              		add	r7, r7, #20
ARM GAS  C:\Users\blinky\AppData\Local\Temp/ccaubaaa.s 			page 16


 341:./Generated_Source/PSoC5/CyDmac.c ****     }
 342:./Generated_Source/PSoC5/CyDmac.c **** 
 343:./Generated_Source/PSoC5/CyDmac.c ****     return status;
 512              		sp, r7
 513 003c FB68     		pop	{r7}
 344:./Generated_Source/PSoC5/CyDmac.c **** }
 514              	x	lr
 515 003e 1846     	.L58:
 516 0040 07F11407 		.align	2
 517 0044 BD46     	.L57:
 518 0046 80BC     		.word	1073770512
 519 0048 7047     	.LFE11:
 520              		.size	CyDmaChDisable, .-CyDmaChDisable
 521 004a C046     		.section	.text.CyDmaChPriority,"ax",%progbits
 522              		.align	2
 523 004c 10700040 		.global	CyDmaChPriority
 524              		.thumb
 525              		.thumb_func
 526              		.type	CyDmaChPriority, %function
 527              	CyDmaChPriority:
 528              	.LFB12:
 529              		.loc 1 367 0
 530              		@ args = 0, pretend = 0, frame = 16
 531              		@ frame_needed = 1, uses_anonymous_args = 0
 532              		@ link register save eliminated.
 533              		push	{r7}
 345:./Generated_Source/PSoC5/CyDmac.c **** 
 346:./Generated_Source/PSoC5/CyDmac.c **** /*******************************************************************************
 347:./Generated_Source/PSoC5/CyDmac.c **** * Function Name: CyDmaChPriority
 348:./Generated_Source/PSoC5/CyDmac.c **** ********************************************************************************
 349:./Generated_Source/PSoC5/CyDmac.c **** * Summary:
 350:./Generated_Source/PSoC5/CyDmac.c **** * Sets the priority of a DMA channel.
 351:./Generated_Source/PSoC5/CyDmac.c **** *
 352:./Generated_Source/PSoC5/CyDmac.c **** * Parameters:
 353:./Generated_Source/PSoC5/CyDmac.c **** * chHandle:
 354:./Generated_Source/PSoC5/CyDmac.c **** *   Handle to the dma channel.
 355:./Generated_Source/PSoC5/CyDmac.c **** *
 356:./Generated_Source/PSoC5/CyDmac.c **** * priority:
 357:./Generated_Source/PSoC5/CyDmac.c **** *   Priority to set the channel to, 0 - 7.
 358:./Generated_Source/PSoC5/CyDmac.c **** *
 359:./Generated_Source/PSoC5/CyDmac.c **** *
 360:./Generated_Source/PSoC5/CyDmac.c **** *
 361:./Generated_Source/PSoC5/CyDmac.c **** * Return:
 362:./Generated_Source/PSoC5/CyDmac.c **** *   0 in successful or CYRET_BAD_PARAM.
 363:./Generated_Source/PSoC5/CyDmac.c **** *
 364:./Generated_Source/PSoC5/CyDmac.c **** *
 365:./Generated_Source/PSoC5/CyDmac.c **** *******************************************************************************/
 366:./Generated_Source/PSoC5/CyDmac.c **** cystatus CyDmaChPriority(uint8 chHandle, uint8 priority)
 367:./Generated_Source/PSoC5/CyDmac.c **** {
 534              	, #20
 535              	.LCFI27:
 536              		add	r7, sp, #0
 537              	.LCFI28:
 538 0000 80B4     		@ lr needed for prologue
 539              		mov	r3, r0
 540 0002 85B0     		mov	r2, r1
 541              		strb	r3, [r7, #7]
ARM GAS  C:\Users\blinky\AppData\Local\Temp/ccaubaaa.s 			page 17


 542 0004 00AF     		mov	r3, r2
 543              		strb	r3, [r7, #6]
 544              		.loc 1 372 0
 545 0006 0346     		ldrb	r3, [r7, #7]	@ zero_extendqisi2
 546 0008 0A46     		cmp	r3, #23
 547 000a FB71     		bhi	.L60
 548 000c 1346     		.loc 1 374 0
 549 000e BB71     		ldrb	r3, [r7, #7]	@ zero_extendqisi2
 368:./Generated_Source/PSoC5/CyDmac.c ****     uint8 Value;
 369:./Generated_Source/PSoC5/CyDmac.c ****     cystatus status;
 370:./Generated_Source/PSoC5/CyDmac.c **** 
 371:./Generated_Source/PSoC5/CyDmac.c **** 
 372:./Generated_Source/PSoC5/CyDmac.c ****     if(chHandle < NUMBEROF_CHANNELS)
 550              		mov	r2, r3
 551 0010 FB79     		ldr	r3, .L64
 552 0012 172B     		add	r3, r2, r3
 553 0014 1ED8     		ldrb	r3, [r3, #0]	@ zero_extendqisi2
 373:./Generated_Source/PSoC5/CyDmac.c ****     {
 374:./Generated_Source/PSoC5/CyDmac.c ****         Value = DMAC_CH[chHandle].basic_cfg[0] & ~(0x0Eu); // Needs bit fields to be defined.
 554              		r3, r3, #14
 555 0016 FB79     		strb	r3, [r7, #11]
 556 0018 4FEA0313 		.loc 1 375 0
 557 001c 1A46     		ldrb	r3, [r7, #7]	@ zero_extendqisi2
 558 001e 124B     		lsl	r3, r3, #4
 559 0020 1344     		ldr	r0, .L64
 560 0022 1B78     		add	r0, r3, r0
 561 0024 23F00E03 		ldrb	r3, [r7, #6]	@ zero_extendqisi2
 562 0028 FB72     		lsl	r3, r3, #1
 375:./Generated_Source/PSoC5/CyDmac.c ****         DMAC_CH[chHandle].basic_cfg[0] = Value | (priority << 0x01u);
 563              	 r3
 564 002a FB79     		ldrb	r2, [r7, #11]	@ zero_extendqisi2
 565 002c 4FEA0313 		mov	r1, r3
 566 0030 0D48     		mov	r3, r2
 567 0032 1844     		orr	r3, r1, r3
 568 0034 BB79     		uxtb	r3, r3
 569 0036 4FEA4303 		uxtb	r3, r3
 570 003a DBB2     		strb	r3, [r0, #0]
 571 003c FA7A     		.loc 1 376 0
 572 003e 1946     		mov	r3, #0
 573 0040 1346     		str	r3, [r7, #12]
 574 0042 41EA0303 		b	.L62
 575 0046 DBB2     	.L60:
 576 0048 DBB2     		.loc 1 380 0
 577 004a 0370     		mov	r3, #1
 376:./Generated_Source/PSoC5/CyDmac.c ****         status = CYRET_SUCCESS;
 578              	12]
 579 004c 4FF00003 	.L62:
 580 0050 FB60     		.loc 1 383 0
 581 0052 02E0     		ldr	r3, [r7, #12]
 582              		.loc 1 384 0
 377:./Generated_Source/PSoC5/CyDmac.c ****     }
 378:./Generated_Source/PSoC5/CyDmac.c ****     else
 379:./Generated_Source/PSoC5/CyDmac.c ****     {
 380:./Generated_Source/PSoC5/CyDmac.c ****         status = CYRET_BAD_PARAM;
 583              	r0, r3
 584 0054 4FF00103 		add	r7, r7, #20
 585 0058 FB60     		mov	sp, r7
ARM GAS  C:\Users\blinky\AppData\Local\Temp/ccaubaaa.s 			page 18


 586              		pop	{r7}
 381:./Generated_Source/PSoC5/CyDmac.c ****     }
 382:./Generated_Source/PSoC5/CyDmac.c **** 
 383:./Generated_Source/PSoC5/CyDmac.c ****     return status;
 587              	lr
 588 005a FB68     	.L65:
 384:./Generated_Source/PSoC5/CyDmac.c **** }
 589              	align	2
 590 005c 1846     	.L64:
 591 005e 07F11407 		.word	1073770512
 592 0062 BD46     	.LFE12:
 593 0064 80BC     		.size	CyDmaChPriority, .-CyDmaChPriority
 594 0066 7047     		.section	.text.CyDmaChSetExtendedAddress,"ax",%progbits
 595              		.align	2
 596              		.global	CyDmaChSetExtendedAddress
 597              		.thumb
 598 0068 10700040 		.thumb_func
 599              		.type	CyDmaChSetExtendedAddress, %function
 600              	CyDmaChSetExtendedAddress:
 601              	.LFB13:
 602              		.loc 1 412 0
 603              		@ args = 0, pretend = 0, frame = 16
 604              		@ frame_needed = 1, uses_anonymous_args = 0
 605              		@ link register save eliminated.
 606              		push	{r7}
 607              	.LCFI29:
 608              		sub	sp, sp, #20
 385:./Generated_Source/PSoC5/CyDmac.c **** 
 386:./Generated_Source/PSoC5/CyDmac.c **** 
 387:./Generated_Source/PSoC5/CyDmac.c **** /*******************************************************************************
 388:./Generated_Source/PSoC5/CyDmac.c **** * Function Name: CyDmaChSetExtendedAddress
 389:./Generated_Source/PSoC5/CyDmac.c **** ********************************************************************************
 390:./Generated_Source/PSoC5/CyDmac.c **** * Summary:
 391:./Generated_Source/PSoC5/CyDmac.c **** *   Sets the high 16 bits of the source and destination addresses for
 392:./Generated_Source/PSoC5/CyDmac.c **** *   the DMA channel (all TD's in the chain).
 393:./Generated_Source/PSoC5/CyDmac.c **** *
 394:./Generated_Source/PSoC5/CyDmac.c **** * Parameters:
 395:./Generated_Source/PSoC5/CyDmac.c **** * chHandle:
 396:./Generated_Source/PSoC5/CyDmac.c **** *   Handle to the dma channel.
 397:./Generated_Source/PSoC5/CyDmac.c **** *
 398:./Generated_Source/PSoC5/CyDmac.c **** * source:
 399:./Generated_Source/PSoC5/CyDmac.c **** *   The source of the DMA transfer.
 400:./Generated_Source/PSoC5/CyDmac.c **** *
 401:./Generated_Source/PSoC5/CyDmac.c **** * destination:
 402:./Generated_Source/PSoC5/CyDmac.c **** *   The destination of the DMA transfer.
 403:./Generated_Source/PSoC5/CyDmac.c **** *
 404:./Generated_Source/PSoC5/CyDmac.c **** *
 405:./Generated_Source/PSoC5/CyDmac.c **** *
 406:./Generated_Source/PSoC5/CyDmac.c **** * Return:
 407:./Generated_Source/PSoC5/CyDmac.c **** *   0 in successful or CYRET_BAD_PARAM.
 408:./Generated_Source/PSoC5/CyDmac.c **** *
 409:./Generated_Source/PSoC5/CyDmac.c **** *
 410:./Generated_Source/PSoC5/CyDmac.c **** *******************************************************************************/
 411:./Generated_Source/PSoC5/CyDmac.c **** cystatus CyDmaChSetExtendedAddress(uint8 chHandle, uint16 source, uint16 destination)
 412:./Generated_Source/PSoC5/CyDmac.c **** {
 609              	, #0
 610              	.LCFI31:
ARM GAS  C:\Users\blinky\AppData\Local\Temp/ccaubaaa.s 			page 19


 611              		@ lr needed for prologue
 612              		mov	r3, r0
 613 0000 80B4     		strb	r3, [r7, #7]
 614              		mov	r3, r1	@ movhi
 615 0002 85B0     		strh	r3, [r7, #4]	@ movhi
 616              		mov	r3, r2	@ movhi
 617 0004 00AF     		strh	r3, [r7, #2]	@ movhi
 618              		.loc 1 417 0
 619              		ldrh	r2, [r7, #4]
 620 0006 0346     		movw	r3, #8191
 621 0008 FB71     		cmp	r2, r3
 622 000a 0B46     		bne	.L67
 623 000c BB80     		.loc 1 418 0
 624 000e 1346     		mov	r3, #8192
 625 0010 7B80     		strh	r3, [r7, #4]	@ movhi
 413:./Generated_Source/PSoC5/CyDmac.c ****     cystatus status;
 414:./Generated_Source/PSoC5/CyDmac.c **** 
 415:./Generated_Source/PSoC5/CyDmac.c **** #if CYDEV_CHIP_DIE_EXPECT == CYDEV_CHIP_DIE_PANTHER
 416:./Generated_Source/PSoC5/CyDmac.c ****     /* 0x1FFF8000-0x1FFFFFFF needs to use alias at 0x20008000-0x2000FFFF */
 417:./Generated_Source/PSoC5/CyDmac.c ****     if (source == 0x1FFF)
 626              	 0
 627 0012 BA88     		ldrh	r2, [r7, #2]
 628 0014 41F6FF73 		movw	r3, #8191
 629 0018 9A42     		cmp	r2, r3
 630 001a 02D1     		bne	.L69
 418:./Generated_Source/PSoC5/CyDmac.c ****         source = 0x2000;
 631              	 1 420 0
 632 001c 4FF40053 		mov	r3, #8192
 633 0020 BB80     		strh	r3, [r7, #2]	@ movhi
 634              	.L69:
 419:./Generated_Source/PSoC5/CyDmac.c ****     if (destination == 0x1FFF)
 635              	c 1 423 0
 636 0022 7A88     		ldrb	r3, [r7, #7]	@ zero_extendqisi2
 637 0024 41F6FF73 		cmp	r3, #23
 638 0028 9A42     		bhi	.L71
 639 002a 02D1     		.loc 1 426 0
 420:./Generated_Source/PSoC5/CyDmac.c ****         destination = 0x2000;
 640              		r3, [r7, #7]	@ zero_extendqisi2
 641 002c 4FF40053 		lsl	r3, r3, #3
 642 0030 7B80     		add	r3, r3, #1073741824
 643              		add	r3, r3, #30208
 421:./Generated_Source/PSoC5/CyDmac.c **** #endif
 422:./Generated_Source/PSoC5/CyDmac.c **** 
 423:./Generated_Source/PSoC5/CyDmac.c ****     if(chHandle < NUMBEROF_CHANNELS)
 644              		r3, r3, #4
 645 0032 FB79     		mov	r2, r3
 646 0034 172B     		ldrh	r3, [r7, #4]	@ movhi
 647 0036 1DD8     		strh	r3, [r2, #0]	@ movhi
 424:./Generated_Source/PSoC5/CyDmac.c ****     {
 425:./Generated_Source/PSoC5/CyDmac.c ****         /* Set Source address. */
 426:./Generated_Source/PSoC5/CyDmac.c ****         CY_SET_REG16((reg16 *) &DMAC_CFGMEM[chHandle].CFG1[0], source);
 648              	c 1 429 0
 649 0038 FB79     		ldrb	r3, [r7, #7]	@ zero_extendqisi2
 650 003a 4FEAC303 		lsl	r3, r3, #3
 651 003e 03F18043 		add	r3, r3, #1073741824
 652 0042 03F5EC43 		add	r3, r3, #30208
 653 0046 03F10403 		add	r3, r3, #4
ARM GAS  C:\Users\blinky\AppData\Local\Temp/ccaubaaa.s 			page 20


 654 004a 1A46     		add	r3, r3, #2
 655 004c BB88     		mov	r2, r3
 656 004e 1380     		ldrh	r3, [r7, #2]	@ movhi
 427:./Generated_Source/PSoC5/CyDmac.c **** 
 428:./Generated_Source/PSoC5/CyDmac.c ****         /* Set Destination address. */
 429:./Generated_Source/PSoC5/CyDmac.c ****         CY_SET_REG16((reg16 *) &DMAC_CFGMEM[chHandle].CFG1[2], destination);
 657              	 [r2, #0]	@ movhi
 658 0050 FB79     		.loc 1 430 0
 659 0052 4FEAC303 		mov	r3, #0
 660 0056 03F18043 		str	r3, [r7, #12]
 661 005a 03F5EC43 		b	.L73
 662 005e 03F10403 	.L71:
 663 0062 03F10203 		.loc 1 434 0
 664 0066 1A46     		mov	r3, #1
 665 0068 7B88     		str	r3, [r7, #12]
 666 006a 1380     	.L73:
 430:./Generated_Source/PSoC5/CyDmac.c ****         status = CYRET_SUCCESS;
 667              	7 0
 668 006c 4FF00003 		ldr	r3, [r7, #12]
 669 0070 FB60     		.loc 1 438 0
 670 0072 02E0     		mov	r0, r3
 671              		add	r7, r7, #20
 431:./Generated_Source/PSoC5/CyDmac.c ****     }
 432:./Generated_Source/PSoC5/CyDmac.c ****     else
 433:./Generated_Source/PSoC5/CyDmac.c ****     {
 434:./Generated_Source/PSoC5/CyDmac.c ****         status = CYRET_BAD_PARAM;
 672              	sp, r7
 673 0074 4FF00103 		pop	{r7}
 674 0078 FB60     		bx	lr
 675              	.LFE13:
 435:./Generated_Source/PSoC5/CyDmac.c ****     }
 436:./Generated_Source/PSoC5/CyDmac.c **** 
 437:./Generated_Source/PSoC5/CyDmac.c ****     return status;
 676              	ze	CyDmaChSetExtendedAddress, .-CyDmaChSetExtendedAddress
 677 007a FB68     		.section	.text.CyDmaChSetInitialTd,"ax",%progbits
 438:./Generated_Source/PSoC5/CyDmac.c **** }
 678              	align	2
 679 007c 1846     		.global	CyDmaChSetInitialTd
 680 007e 07F11407 		.thumb
 681 0082 BD46     		.thumb_func
 682 0084 80BC     		.type	CyDmaChSetInitialTd, %function
 683 0086 7047     	CyDmaChSetInitialTd:
 684              	.LFB14:
 685              		.loc 1 461 0
 686              		@ args = 0, pretend = 0, frame = 16
 687              		@ frame_needed = 1, uses_anonymous_args = 0
 688              		@ link register save eliminated.
 689              		push	{r7}
 690              	.LCFI32:
 691              		sub	sp, sp, #20
 692              	.LCFI33:
 693              		add	r7, sp, #0
 439:./Generated_Source/PSoC5/CyDmac.c **** 
 440:./Generated_Source/PSoC5/CyDmac.c **** 
 441:./Generated_Source/PSoC5/CyDmac.c **** /*******************************************************************************
 442:./Generated_Source/PSoC5/CyDmac.c **** * Function Name: CyDmaChSetTd
 443:./Generated_Source/PSoC5/CyDmac.c **** ********************************************************************************
ARM GAS  C:\Users\blinky\AppData\Local\Temp/ccaubaaa.s 			page 21


 444:./Generated_Source/PSoC5/CyDmac.c **** * Summary:
 445:./Generated_Source/PSoC5/CyDmac.c **** * Set the initial TD for the channel.
 446:./Generated_Source/PSoC5/CyDmac.c **** *
 447:./Generated_Source/PSoC5/CyDmac.c **** * Parameters:
 448:./Generated_Source/PSoC5/CyDmac.c **** * chHandle:
 449:./Generated_Source/PSoC5/CyDmac.c **** *   Handle to the dma channel.
 450:./Generated_Source/PSoC5/CyDmac.c **** *
 451:./Generated_Source/PSoC5/CyDmac.c **** * startTd:
 452:./Generated_Source/PSoC5/CyDmac.c **** *   Index of TD to set as the first TD associated with the Channel.
 453:./Generated_Source/PSoC5/CyDmac.c **** *
 454:./Generated_Source/PSoC5/CyDmac.c **** *
 455:./Generated_Source/PSoC5/CyDmac.c **** * Return:
 456:./Generated_Source/PSoC5/CyDmac.c **** *   0 in successful or CYRET_BAD_PARAM.
 457:./Generated_Source/PSoC5/CyDmac.c **** *
 458:./Generated_Source/PSoC5/CyDmac.c **** *
 459:./Generated_Source/PSoC5/CyDmac.c **** *******************************************************************************/
 460:./Generated_Source/PSoC5/CyDmac.c **** cystatus CyDmaChSetInitialTd(uint8 chHandle, uint8 startTd)
 461:./Generated_Source/PSoC5/CyDmac.c **** {
 694              	eeded for prologue
 695              		mov	r3, r0
 696              		mov	r2, r1
 697              		strb	r3, [r7, #7]
 698 0000 80B4     		mov	r3, r2
 699              		strb	r3, [r7, #6]
 700 0002 85B0     		.loc 1 465 0
 701              		ldrb	r3, [r7, #7]	@ zero_extendqisi2
 702 0004 00AF     		cmp	r3, #23
 703              		bhi	.L76
 704              		.loc 1 467 0
 705 0006 0346     		ldrb	r3, [r7, #7]	@ zero_extendqisi2
 706 0008 0A46     		lsl	r3, r3, #4
 707 000a FB71     		mov	r2, r3
 708 000c 1346     		ldr	r3, .L80
 709 000e BB71     		add	r3, r2, r3
 462:./Generated_Source/PSoC5/CyDmac.c ****     cystatus status;
 463:./Generated_Source/PSoC5/CyDmac.c **** 
 464:./Generated_Source/PSoC5/CyDmac.c **** 
 465:./Generated_Source/PSoC5/CyDmac.c ****     if(chHandle < NUMBEROF_CHANNELS)
 710              	6]
 711 0010 FB79     		strb	r2, [r3, #9]
 712 0012 172B     		.loc 1 468 0
 713 0014 0BD8     		mov	r3, #0
 466:./Generated_Source/PSoC5/CyDmac.c ****     {
 467:./Generated_Source/PSoC5/CyDmac.c ****         DMAC_CH[chHandle].basic_status[1] = startTd;
 714              		r3, [r7, #12]
 715 0016 FB79     		b	.L78
 716 0018 4FEA0313 	.L76:
 717 001c 1A46     		.loc 1 472 0
 718 001e 094B     		mov	r3, #1
 719 0020 1344     		str	r3, [r7, #12]
 720 0022 BA79     	.L78:
 721 0024 5A72     		.loc 1 475 0
 468:./Generated_Source/PSoC5/CyDmac.c ****         status = CYRET_SUCCESS;
 722              	 [r7, #12]
 723 0026 4FF00003 		.loc 1 476 0
 724 002a FB60     		mov	r0, r3
 725 002c 02E0     		add	r7, r7, #20
ARM GAS  C:\Users\blinky\AppData\Local\Temp/ccaubaaa.s 			page 22


 726              		mov	sp, r7
 469:./Generated_Source/PSoC5/CyDmac.c ****     }
 470:./Generated_Source/PSoC5/CyDmac.c ****     else
 471:./Generated_Source/PSoC5/CyDmac.c ****     {
 472:./Generated_Source/PSoC5/CyDmac.c ****         status = CYRET_BAD_PARAM;
 727              	{r7}
 728 002e 4FF00103 		bx	lr
 729 0032 FB60     	.L81:
 730              		.align	2
 473:./Generated_Source/PSoC5/CyDmac.c ****     }
 474:./Generated_Source/PSoC5/CyDmac.c **** 
 475:./Generated_Source/PSoC5/CyDmac.c ****     return status;
 731              	:
 732 0034 FB68     		.word	1073770512
 476:./Generated_Source/PSoC5/CyDmac.c **** }
 733              	FE14:
 734 0036 1846     		.size	CyDmaChSetInitialTd, .-CyDmaChSetInitialTd
 735 0038 07F11407 		.section	.text.CyDmaChSetRequest,"ax",%progbits
 736 003c BD46     		.align	2
 737 003e 80BC     		.global	CyDmaChSetRequest
 738 0040 7047     		.thumb
 739              		.thumb_func
 740 0042 C046     		.type	CyDmaChSetRequest, %function
 741              	CyDmaChSetRequest:
 742 0044 10700040 	.LFB15:
 743              		.loc 1 504 0
 744              		@ args = 0, pretend = 0, frame = 16
 745              		@ frame_needed = 1, uses_anonymous_args = 0
 746              		@ link register save eliminated.
 747              		push	{r7}
 748              	.LCFI35:
 749              		sub	sp, sp, #20
 750              	.LCFI36:
 751              		add	r7, sp, #0
 752              	.LCFI37:
 477:./Generated_Source/PSoC5/CyDmac.c **** 
 478:./Generated_Source/PSoC5/CyDmac.c **** 
 479:./Generated_Source/PSoC5/CyDmac.c **** /*******************************************************************************
 480:./Generated_Source/PSoC5/CyDmac.c **** * Function Name: CyDmaChSetRequest
 481:./Generated_Source/PSoC5/CyDmac.c **** ********************************************************************************
 482:./Generated_Source/PSoC5/CyDmac.c **** * Summary:
 483:./Generated_Source/PSoC5/CyDmac.c **** *   Allows the caller to terminate a chain of TD's, terminate one TD or
 484:./Generated_Source/PSoC5/CyDmac.c **** *   Create a direct request to start the DMA channel.
 485:./Generated_Source/PSoC5/CyDmac.c **** *
 486:./Generated_Source/PSoC5/CyDmac.c **** * Parameters:
 487:./Generated_Source/PSoC5/CyDmac.c **** * chHandle:
 488:./Generated_Source/PSoC5/CyDmac.c **** *   Handle to the dma channel.
 489:./Generated_Source/PSoC5/CyDmac.c **** *
 490:./Generated_Source/PSoC5/CyDmac.c **** * request:
 491:./Generated_Source/PSoC5/CyDmac.c **** *   3 bit field describing the request.
 492:./Generated_Source/PSoC5/CyDmac.c **** *
 493:./Generated_Source/PSoC5/CyDmac.c **** *   CPU_REQ       
 494:./Generated_Source/PSoC5/CyDmac.c **** *   CPU_TERM_TD   
 495:./Generated_Source/PSoC5/CyDmac.c **** *   CPU_TERM_CHAIN
 496:./Generated_Source/PSoC5/CyDmac.c **** *
 497:./Generated_Source/PSoC5/CyDmac.c **** *
 498:./Generated_Source/PSoC5/CyDmac.c **** * Return:
ARM GAS  C:\Users\blinky\AppData\Local\Temp/ccaubaaa.s 			page 23


 499:./Generated_Source/PSoC5/CyDmac.c **** *   0 in successful or CYRET_BAD_PARAM.
 500:./Generated_Source/PSoC5/CyDmac.c **** *
 501:./Generated_Source/PSoC5/CyDmac.c **** *
 502:./Generated_Source/PSoC5/CyDmac.c **** *******************************************************************************/
 503:./Generated_Source/PSoC5/CyDmac.c **** cystatus CyDmaChSetRequest(uint8 chHandle, uint8 request)
 504:./Generated_Source/PSoC5/CyDmac.c **** {
 753              	logue
 754              		mov	r3, r0
 755              		mov	r2, r1
 756              		strb	r3, [r7, #7]
 757 0000 80B4     		mov	r3, r2
 758              		strb	r3, [r7, #6]
 759 0002 85B0     		.loc 1 508 0
 760              		ldrb	r3, [r7, #7]	@ zero_extendqisi2
 761 0004 00AF     		cmp	r3, #23
 762              		bhi	.L83
 763              		.loc 1 510 0
 764 0006 0346     		ldrb	r3, [r7, #7]	@ zero_extendqisi2
 765 0008 0A46     		lsl	r3, r3, #4
 766 000a FB71     		ldr	r1, .L87
 767 000c 1346     		add	r1, r3, r1
 768 000e BB71     		ldrb	r3, [r7, #7]	@ zero_extendqisi2
 505:./Generated_Source/PSoC5/CyDmac.c ****     cystatus status;
 506:./Generated_Source/PSoC5/CyDmac.c **** 
 507:./Generated_Source/PSoC5/CyDmac.c **** 
 508:./Generated_Source/PSoC5/CyDmac.c ****     if(chHandle < NUMBEROF_CHANNELS)
 769              		mov	r2, r3
 770 0010 FB79     		ldr	r3, .L87
 771 0012 172B     		add	r3, r2, r3
 772 0014 14D8     		ldrb	r2, [r3, #4]	@ zero_extendqisi2
 509:./Generated_Source/PSoC5/CyDmac.c ****     {
 510:./Generated_Source/PSoC5/CyDmac.c ****         DMAC_CH[chHandle].action[0] |= request;
 773              	b	r3, [r7, #6]
 774 0016 FB79     		orr	r3, r2, r3
 775 0018 4FEA0313 		uxtb	r3, r3
 776 001c 0D49     		strb	r3, [r1, #4]
 777 001e 1944     		.loc 1 511 0
 778 0020 FB79     		mov	r3, #0
 779 0022 4FEA0313 		str	r3, [r7, #12]
 780 0026 1A46     		b	.L85
 781 0028 0A4B     	.L83:
 782 002a 1344     		.loc 1 515 0
 783 002c 1A79     		mov	r3, #1
 784 002e BB79     		str	r3, [r7, #12]
 785 0030 42EA0303 	.L85:
 786 0034 DBB2     		.loc 1 518 0
 787 0036 0B71     		ldr	r3, [r7, #12]
 511:./Generated_Source/PSoC5/CyDmac.c ****         status = CYRET_SUCCESS;
 788              	mov	r0, r3
 789 0038 4FF00003 		add	r7, r7, #20
 790 003c FB60     		mov	sp, r7
 791 003e 02E0     		pop	{r7}
 792              		bx	lr
 512:./Generated_Source/PSoC5/CyDmac.c ****     }
 513:./Generated_Source/PSoC5/CyDmac.c ****     else
 514:./Generated_Source/PSoC5/CyDmac.c ****     {
 515:./Generated_Source/PSoC5/CyDmac.c ****         status = CYRET_BAD_PARAM;
ARM GAS  C:\Users\blinky\AppData\Local\Temp/ccaubaaa.s 			page 24


 793              	
 794 0040 4FF00103 		.align	2
 795 0044 FB60     	.L87:
 796              		.word	1073770512
 516:./Generated_Source/PSoC5/CyDmac.c ****     }
 517:./Generated_Source/PSoC5/CyDmac.c **** 
 518:./Generated_Source/PSoC5/CyDmac.c ****     return status;
 797              	E15:
 798 0046 FB68     		.size	CyDmaChSetRequest, .-CyDmaChSetRequest
 519:./Generated_Source/PSoC5/CyDmac.c **** }
 799              	section	.text.CyDmaChGetRequest,"ax",%progbits
 800 0048 1846     		.align	2
 801 004a 07F11407 		.global	CyDmaChGetRequest
 802 004e BD46     		.thumb
 803 0050 80BC     		.thumb_func
 804 0052 7047     		.type	CyDmaChGetRequest, %function
 805              	CyDmaChGetRequest:
 806              	.LFB16:
 807              		.loc 1 544 0
 808 0054 10700040 		@ args = 0, pretend = 0, frame = 16
 809              		@ frame_needed = 1, uses_anonymous_args = 0
 810              		@ link register save eliminated.
 811              		push	{r7}
 812              	.LCFI38:
 813              		sub	sp, sp, #20
 814              	.LCFI39:
 815              		add	r7, sp, #0
 816              	.LCFI40:
 817              		@ lr needed for prologue
 818              		mov	r3, r0
 520:./Generated_Source/PSoC5/CyDmac.c **** 
 521:./Generated_Source/PSoC5/CyDmac.c **** 
 522:./Generated_Source/PSoC5/CyDmac.c **** /*******************************************************************************
 523:./Generated_Source/PSoC5/CyDmac.c **** * Function Name: CyDmaChGetRequest
 524:./Generated_Source/PSoC5/CyDmac.c **** ********************************************************************************
 525:./Generated_Source/PSoC5/CyDmac.c **** * Summary:
 526:./Generated_Source/PSoC5/CyDmac.c **** *   Allows the caller of DmaChSetRequest to check if the request was
 527:./Generated_Source/PSoC5/CyDmac.c **** *   satisfied.
 528:./Generated_Source/PSoC5/CyDmac.c **** *
 529:./Generated_Source/PSoC5/CyDmac.c **** * Parameters:
 530:./Generated_Source/PSoC5/CyDmac.c **** * chHandle:
 531:./Generated_Source/PSoC5/CyDmac.c **** *   Handle to the dma channel.
 532:./Generated_Source/PSoC5/CyDmac.c **** *
 533:./Generated_Source/PSoC5/CyDmac.c **** *
 534:./Generated_Source/PSoC5/CyDmac.c **** *
 535:./Generated_Source/PSoC5/CyDmac.c **** * Return:
 536:./Generated_Source/PSoC5/CyDmac.c **** *   The state of the 3 bit field describing the requests previous
 537:./Generated_Source/PSoC5/CyDmac.c **** *   request. If the bit is cleared the request has be satisfied.
 538:./Generated_Source/PSoC5/CyDmac.c **** *
 539:./Generated_Source/PSoC5/CyDmac.c **** *   DMA_INVALID_CHANNEL if the handle is invalid.
 540:./Generated_Source/PSoC5/CyDmac.c **** *
 541:./Generated_Source/PSoC5/CyDmac.c **** *
 542:./Generated_Source/PSoC5/CyDmac.c **** *******************************************************************************/
 543:./Generated_Source/PSoC5/CyDmac.c **** cystatus CyDmaChGetRequest(uint8 chHandle)
 544:./Generated_Source/PSoC5/CyDmac.c **** {
 819              	.loc 1 548 0
 820              		ldrb	r3, [r7, #7]	@ zero_extendqisi2
ARM GAS  C:\Users\blinky\AppData\Local\Temp/ccaubaaa.s 			page 25


 821              		cmp	r3, #23
 822              		bhi	.L90
 823 0000 80B4     		.loc 1 550 0
 824              		ldrb	r3, [r7, #7]	@ zero_extendqisi2
 825 0002 85B0     		lsl	r3, r3, #4
 826              		mov	r2, r3
 827 0004 00AF     		ldr	r3, .L94
 828              		add	r3, r2, r3
 829              		ldrb	r3, [r3, #4]	@ zero_extendqisi2
 830 0006 0346     		and	r3, r3, #7
 831 0008 FB71     		str	r3, [r7, #12]
 545:./Generated_Source/PSoC5/CyDmac.c ****     cystatus status;
 546:./Generated_Source/PSoC5/CyDmac.c **** 
 547:./Generated_Source/PSoC5/CyDmac.c **** 
 548:./Generated_Source/PSoC5/CyDmac.c ****     if(chHandle < NUMBEROF_CHANNELS)
 832              	
 833 000a FB79     		.loc 1 554 0
 834 000c 172B     		mov	r3, #255
 835 000e 0AD8     		str	r3, [r7, #12]
 549:./Generated_Source/PSoC5/CyDmac.c ****     {
 550:./Generated_Source/PSoC5/CyDmac.c ****         status = DMAC_CH[chHandle].action[0] & (CPU_REQ | CPU_TERM_TD | CPU_TERM_CHAIN);
 836              	2:
 837 0010 FB79     		.loc 1 557 0
 838 0012 4FEA0313 		ldr	r3, [r7, #12]
 839 0016 1A46     		.loc 1 558 0
 840 0018 084B     		mov	r0, r3
 841 001a 1344     		add	r7, r7, #20
 842 001c 1B79     		mov	sp, r7
 843 001e 03F00703 		pop	{r7}
 844 0022 FB60     		bx	lr
 845 0024 02E0     	.L95:
 846              		.align	2
 551:./Generated_Source/PSoC5/CyDmac.c ****     }
 552:./Generated_Source/PSoC5/CyDmac.c ****     else
 553:./Generated_Source/PSoC5/CyDmac.c ****     {
 554:./Generated_Source/PSoC5/CyDmac.c ****         status = DMA_INVALID_CHANNEL;
 847              	d	1073770512
 848 0026 4FF0FF03 	.LFE16:
 849 002a FB60     		.size	CyDmaChGetRequest, .-CyDmaChGetRequest
 850              		.section	.text.CyDmaChStatus,"ax",%progbits
 555:./Generated_Source/PSoC5/CyDmac.c ****     }
 556:./Generated_Source/PSoC5/CyDmac.c **** 
 557:./Generated_Source/PSoC5/CyDmac.c ****     return status;
 851              	ign	2
 852 002c FB68     		.global	CyDmaChStatus
 558:./Generated_Source/PSoC5/CyDmac.c **** }
 853              	thumb
 854 002e 1846     		.thumb_func
 855 0030 07F11407 		.type	CyDmaChStatus, %function
 856 0034 BD46     	CyDmaChStatus:
 857 0036 80BC     	.LFB17:
 858 0038 7047     		.loc 1 590 0
 859              		@ args = 0, pretend = 0, frame = 24
 860 003a C046     		@ frame_needed = 1, uses_anonymous_args = 0
 861              		@ link register save eliminated.
 862 003c 10700040 		push	{r7}
 863              	.LCFI41:
ARM GAS  C:\Users\blinky\AppData\Local\Temp/ccaubaaa.s 			page 26


 864              		sub	sp, sp, #28
 865              	.LCFI42:
 866              		add	r7, sp, #0
 867              	.LCFI43:
 868              		@ lr needed for prologue
 869              		mov	r3, r0
 870              		str	r1, [r7, #8]
 871              		str	r2, [r7, #4]
 872              		strb	r3, [r7, #15]
 559:./Generated_Source/PSoC5/CyDmac.c **** 
 560:./Generated_Source/PSoC5/CyDmac.c **** 
 561:./Generated_Source/PSoC5/CyDmac.c **** /*******************************************************************************
 562:./Generated_Source/PSoC5/CyDmac.c **** * Function Name: CyDmaChStatus
 563:./Generated_Source/PSoC5/CyDmac.c **** ********************************************************************************
 564:./Generated_Source/PSoC5/CyDmac.c **** * Summary:
 565:./Generated_Source/PSoC5/CyDmac.c **** *   Determines the status of the current Transfer descriptor.
 566:./Generated_Source/PSoC5/CyDmac.c **** *
 567:./Generated_Source/PSoC5/CyDmac.c **** * Parameters:
 568:./Generated_Source/PSoC5/CyDmac.c **** * chHandle:
 569:./Generated_Source/PSoC5/CyDmac.c **** *   Handle to the dma channel.
 570:./Generated_Source/PSoC5/CyDmac.c **** *
 571:./Generated_Source/PSoC5/CyDmac.c **** * currentTd:
 572:./Generated_Source/PSoC5/CyDmac.c **** *   Address to store the Index of the current Transfer Descriptor.
 573:./Generated_Source/PSoC5/CyDmac.c **** *   Can be NULL if the value is not needed.
 574:./Generated_Source/PSoC5/CyDmac.c **** *
 575:./Generated_Source/PSoC5/CyDmac.c **** * state:
 576:./Generated_Source/PSoC5/CyDmac.c **** *   Address to store the State of the Channel.
 577:./Generated_Source/PSoC5/CyDmac.c **** *   Can be NULL if the value is not needed.
 578:./Generated_Source/PSoC5/CyDmac.c **** *
 579:./Generated_Source/PSoC5/CyDmac.c **** *
 580:./Generated_Source/PSoC5/CyDmac.c **** * Return:
 581:./Generated_Source/PSoC5/CyDmac.c **** *   0 in successful or CYRET_BAD_PARAM.
 582:./Generated_Source/PSoC5/CyDmac.c **** *   
 583:./Generated_Source/PSoC5/CyDmac.c **** *
 584:./Generated_Source/PSoC5/CyDmac.c **** * Theory:
 585:./Generated_Source/PSoC5/CyDmac.c **** *   The caller can check on the activity of the Current TD and the
 586:./Generated_Source/PSoC5/CyDmac.c **** *   Chain.
 587:./Generated_Source/PSoC5/CyDmac.c **** *
 588:./Generated_Source/PSoC5/CyDmac.c **** *******************************************************************************/
 589:./Generated_Source/PSoC5/CyDmac.c **** cystatus CyDmaChStatus(uint8 chHandle, uint8 * currentTd, uint8 * state)
 590:./Generated_Source/PSoC5/CyDmac.c **** {
 873              	r3, [r7, #15]	@ zero_extendqisi2
 874              		cmp	r3, #23
 875              		bhi	.L97
 876              		.loc 1 596 0
 877 0000 80B4     		ldr	r3, [r7, #8]
 878              		cmp	r3, #0
 879 0002 87B0     		beq	.L99
 880              		.loc 1 598 0
 881 0004 00AF     		ldrb	r3, [r7, #15]	@ zero_extendqisi2
 882              		lsl	r3, r3, #4
 883              		mov	r2, r3
 884 0006 0346     		ldr	r3, .L105
 885 0008 B960     		add	r3, r2, r3
 886 000a 7A60     		ldrb	r3, [r3, #9]	@ zero_extendqisi2
 887 000c FB73     		and	r3, r3, #127
 591:./Generated_Source/PSoC5/CyDmac.c ****     cystatus status;
ARM GAS  C:\Users\blinky\AppData\Local\Temp/ccaubaaa.s 			page 27


 592:./Generated_Source/PSoC5/CyDmac.c **** 
 593:./Generated_Source/PSoC5/CyDmac.c **** 
 594:./Generated_Source/PSoC5/CyDmac.c ****     if(chHandle < NUMBEROF_CHANNELS)
 888              	8]
 889 000e FB7B     		strb	r3, [r2, #0]
 890 0010 172B     	.L99:
 891 0012 1DD8     		.loc 1 601 0
 595:./Generated_Source/PSoC5/CyDmac.c ****     {
 596:./Generated_Source/PSoC5/CyDmac.c ****         if(currentTd)
 892              		r3, [r7, #4]
 893 0014 BB68     		cmp	r3, #0
 894 0016 002B     		beq	.L101
 895 0018 0AD0     		.loc 1 603 0
 597:./Generated_Source/PSoC5/CyDmac.c ****         {
 598:./Generated_Source/PSoC5/CyDmac.c ****             *currentTd = DMAC_CH[chHandle].basic_status[1] & 0x7Fu;
 896              	b	r3, [r7, #15]	@ zero_extendqisi2
 897 001a FB7B     		lsl	r3, r3, #4
 898 001c 4FEA0313 		mov	r2, r3
 899 0020 1A46     		ldr	r3, .L105
 900 0022 104B     		add	r3, r2, r3
 901 0024 1344     		ldrb	r3, [r3, #8]	@ zero_extendqisi2
 902 0026 5B7A     		ldr	r2, [r7, #4]
 903 0028 03F07F03 		strb	r3, [r2, #0]
 904 002c BA68     	.L101:
 905 002e 1370     		.loc 1 606 0
 906              		mov	r3, #0
 599:./Generated_Source/PSoC5/CyDmac.c ****         }
 600:./Generated_Source/PSoC5/CyDmac.c **** 
 601:./Generated_Source/PSoC5/CyDmac.c ****         if(state)
 907              	7, #20]
 908 0030 7B68     		b	.L103
 909 0032 002B     	.L97:
 910 0034 08D0     		.loc 1 610 0
 602:./Generated_Source/PSoC5/CyDmac.c ****         {
 603:./Generated_Source/PSoC5/CyDmac.c ****             *state= DMAC_CH[chHandle].basic_status[0];
 911              		r3, #1
 912 0036 FB7B     		str	r3, [r7, #20]
 913 0038 4FEA0313 	.L103:
 914 003c 1A46     		.loc 1 613 0
 915 003e 094B     		ldr	r3, [r7, #20]
 916 0040 1344     		.loc 1 614 0
 917 0042 1B7A     		mov	r0, r3
 918 0044 7A68     		add	r7, r7, #28
 919 0046 1370     		mov	sp, r7
 920              		pop	{r7}
 604:./Generated_Source/PSoC5/CyDmac.c ****         }
 605:./Generated_Source/PSoC5/CyDmac.c **** 
 606:./Generated_Source/PSoC5/CyDmac.c ****         status = CYRET_SUCCESS;
 921              	06:
 922 0048 4FF00003 		.align	2
 923 004c 7B61     	.L105:
 924 004e 02E0     		.word	1073770512
 925              	.LFE17:
 607:./Generated_Source/PSoC5/CyDmac.c ****     }
 608:./Generated_Source/PSoC5/CyDmac.c ****     else
 609:./Generated_Source/PSoC5/CyDmac.c ****     {
 610:./Generated_Source/PSoC5/CyDmac.c ****         status = CYRET_BAD_PARAM;
ARM GAS  C:\Users\blinky\AppData\Local\Temp/ccaubaaa.s 			page 28


 926              	e	CyDmaChStatus, .-CyDmaChStatus
 927 0050 4FF00103 		.section	.text.CyDmaChSetConfiguration,"ax",%progbits
 928 0054 7B61     		.align	2
 929              		.global	CyDmaChSetConfiguration
 611:./Generated_Source/PSoC5/CyDmac.c ****     }
 612:./Generated_Source/PSoC5/CyDmac.c **** 
 613:./Generated_Source/PSoC5/CyDmac.c ****     return status;
 930              	umb
 931 0056 7B69     		.thumb_func
 614:./Generated_Source/PSoC5/CyDmac.c **** }
 932              	type	CyDmaChSetConfiguration, %function
 933 0058 1846     	CyDmaChSetConfiguration:
 934 005a 07F11C07 	.LFB18:
 935 005e BD46     		.loc 1 650 0
 936 0060 80BC     		@ args = 8, pretend = 0, frame = 16
 937 0062 7047     		@ frame_needed = 1, uses_anonymous_args = 0
 938              		@ link register save eliminated.
 939              		push	{r4, r7}
 940              	.LCFI44:
 941 0064 10700040 		sub	sp, sp, #16
 942              	.LCFI45:
 943              		add	r7, sp, #0
 944              	.LCFI46:
 945              		@ lr needed for prologue
 946              		mov	r4, r3
 947              		mov	r3, r0
 948              		strb	r3, [r7, #7]
 949              		mov	r3, r1
 950              		strb	r3, [r7, #6]
 951              		mov	r3, r2
 615:./Generated_Source/PSoC5/CyDmac.c **** 
 616:./Generated_Source/PSoC5/CyDmac.c **** 
 617:./Generated_Source/PSoC5/CyDmac.c **** /*******************************************************************************
 618:./Generated_Source/PSoC5/CyDmac.c **** * Function Name: CyDmaChSetConfiguration
 619:./Generated_Source/PSoC5/CyDmac.c **** ********************************************************************************
 620:./Generated_Source/PSoC5/CyDmac.c **** * Summary:
 621:./Generated_Source/PSoC5/CyDmac.c **** * Sets Configuration information for the channel.
 622:./Generated_Source/PSoC5/CyDmac.c **** *
 623:./Generated_Source/PSoC5/CyDmac.c **** * Parameters:
 624:./Generated_Source/PSoC5/CyDmac.c **** * chHandle:
 625:./Generated_Source/PSoC5/CyDmac.c **** *   Handle to the dma channel.
 626:./Generated_Source/PSoC5/CyDmac.c **** *
 627:./Generated_Source/PSoC5/CyDmac.c **** * burstCount:
 628:./Generated_Source/PSoC5/CyDmac.c **** *   Number of bytes in a burst.
 629:./Generated_Source/PSoC5/CyDmac.c **** *
 630:./Generated_Source/PSoC5/CyDmac.c **** * requestPerBurst:
 631:./Generated_Source/PSoC5/CyDmac.c **** *   A DMA request is required per burst.
 632:./Generated_Source/PSoC5/CyDmac.c **** *
 633:./Generated_Source/PSoC5/CyDmac.c **** * tdDone0:
 634:./Generated_Source/PSoC5/CyDmac.c **** *   Selects one of the TERMOUT0 interrupt lines to signal completion.
 635:./Generated_Source/PSoC5/CyDmac.c **** *
 636:./Generated_Source/PSoC5/CyDmac.c **** * tdDone1:
 637:./Generated_Source/PSoC5/CyDmac.c **** *   Selects one of the TERMOUT1 interrupt lines to signal complete.
 638:./Generated_Source/PSoC5/CyDmac.c **** *
 639:./Generated_Source/PSoC5/CyDmac.c **** *
 640:./Generated_Source/PSoC5/CyDmac.c **** * tdStop:
 641:./Generated_Source/PSoC5/CyDmac.c **** *   Selects one of the TERMIN interrupt lines to signal to the DMAC
ARM GAS  C:\Users\blinky\AppData\Local\Temp/ccaubaaa.s 			page 29


 642:./Generated_Source/PSoC5/CyDmac.c **** *   that the TD should terminate.
 643:./Generated_Source/PSoC5/CyDmac.c **** *
 644:./Generated_Source/PSoC5/CyDmac.c **** * Return:
 645:./Generated_Source/PSoC5/CyDmac.c **** *   0 in successful or CYRET_BAD_PARAM.
 646:./Generated_Source/PSoC5/CyDmac.c **** *
 647:./Generated_Source/PSoC5/CyDmac.c **** *
 648:./Generated_Source/PSoC5/CyDmac.c **** *******************************************************************************/
 649:./Generated_Source/PSoC5/CyDmac.c **** cystatus CyDmaChSetConfiguration(uint8 chHandle, uint8 burstCount, uint8 requestPerBurst, uint8 tdD
 650:./Generated_Source/PSoC5/CyDmac.c **** {
 952              	mov	r3, r4
 953              		strb	r3, [r7, #4]
 954              		.loc 1 654 0
 955              		ldrb	r3, [r7, #7]	@ zero_extendqisi2
 956 0000 90B4     		cmp	r3, #23
 957              		bhi	.L108
 958 0002 84B0     		.loc 1 656 0
 959              		ldrb	r3, [r7, #7]	@ zero_extendqisi2
 960 0004 00AF     		lsl	r3, r3, #3
 961              		add	r0, r3, #1073741824
 962              		add	r0, r0, #30208
 963 0006 1C46     		ldrb	r3, [r7, #5]	@ zero_extendqisi2
 964 0008 0346     		lsl	r3, r3, #7
 965 000a FB71     		uxtb	r3, r3
 966 000c 0B46     		ldrb	r2, [r7, #6]	@ zero_extendqisi2
 967 000e BB71     		mov	r1, r3
 968 0010 1346     		mov	r3, r2
 969 0012 7B71     		orr	r3, r1, r3
 970 0014 2346     		uxtb	r3, r3
 971 0016 3B71     		uxtb	r3, r3
 651:./Generated_Source/PSoC5/CyDmac.c ****     cystatus status;
 652:./Generated_Source/PSoC5/CyDmac.c **** 
 653:./Generated_Source/PSoC5/CyDmac.c **** 
 654:./Generated_Source/PSoC5/CyDmac.c ****     if(chHandle < NUMBEROF_CHANNELS)
 972              	.loc 1 657 0
 973 0018 FB79     		ldrb	r3, [r7, #7]	@ zero_extendqisi2
 974 001a 172B     		lsl	r3, r3, #3
 975 001c 3ED8     		add	r0, r3, #1073741824
 655:./Generated_Source/PSoC5/CyDmac.c ****     {
 656:./Generated_Source/PSoC5/CyDmac.c ****         DMAC_CFGMEM[chHandle].CFG0[0] = burstCount | (requestPerBurst << 7);
 976              		r0, r0, #30208
 977 001e FB79     		ldrb	r3, [r7, #24]	@ zero_extendqisi2
 978 0020 4FEAC303 		lsl	r3, r3, #4
 979 0024 03F18040 		uxtb	r3, r3
 980 0028 00F5EC40 		ldrb	r2, [r7, #4]	@ zero_extendqisi2
 981 002c 7B79     		mov	r1, r3
 982 002e 4FEAC313 		mov	r3, r2
 983 0032 DBB2     		orr	r3, r1, r3
 984 0034 BA79     		uxtb	r3, r3
 985 0036 1946     		uxtb	r3, r3
 986 0038 1346     		strb	r3, [r0, #1]
 987 003a 41EA0303 		.loc 1 658 0
 988 003e DBB2     		ldrb	r3, [r7, #7]	@ zero_extendqisi2
 989 0040 DBB2     		lsl	r3, r3, #3
 990 0042 0370     		add	r2, r3, #1073741824
 657:./Generated_Source/PSoC5/CyDmac.c ****         DMAC_CFGMEM[chHandle].CFG0[1] = (tdDone1 << 4) | tdDone0;
 991              	0208
 992 0044 FB79     		ldrb	r3, [r7, #28]	@ zero_extendqisi2
ARM GAS  C:\Users\blinky\AppData\Local\Temp/ccaubaaa.s 			page 30


 993 0046 4FEAC303 		and	r3, r3, #15
 994 004a 03F18040 		strb	r3, [r2, #2]
 995 004e 00F5EC40 		.loc 1 659 0
 996 0052 3B7E     		ldrb	r3, [r7, #7]	@ zero_extendqisi2
 997 0054 4FEA0313 		lsl	r3, r3, #3
 998 0058 DBB2     		add	r3, r3, #1073741824
 999 005a 3A79     		add	r3, r3, #30208
 1000 005c 1946     		mov	r2, #0
 1001 005e 1346     		strb	r2, [r3, #3]
 1002 0060 41EA0303 		.loc 1 661 0
 1003 0064 DBB2     		mov	r3, #0
 1004 0066 DBB2     		str	r3, [r7, #12]
 1005 0068 4370     		b	.L110
 658:./Generated_Source/PSoC5/CyDmac.c ****         DMAC_CFGMEM[chHandle].CFG0[2] = 0x0Fu & tdStop;
 1006              	665 0
 1007 006a FB79     		mov	r3, #1
 1008 006c 4FEAC303 		str	r3, [r7, #12]
 1009 0070 03F18042 	.L110:
 1010 0074 02F5EC42 		.loc 1 668 0
 1011 0078 3B7F     		ldr	r3, [r7, #12]
 1012 007a 03F00F03 		.loc 1 669 0
 1013 007e 9370     		mov	r0, r3
 659:./Generated_Source/PSoC5/CyDmac.c ****         DMAC_CFGMEM[chHandle].CFG0[3] = 0; /* burstcount_remain. */
 1014              	 r7, #16
 1015 0080 FB79     		mov	sp, r7
 1016 0082 4FEAC303 		pop	{r4, r7}
 1017 0086 03F18043 		bx	lr
 1018 008a 03F5EC43 	.LFE18:
 1019 008e 4FF00002 		.size	CyDmaChSetConfiguration, .-CyDmaChSetConfiguration
 1020 0092 DA70     		.section	.text.CyDmaTdAllocate,"ax",%progbits
 660:./Generated_Source/PSoC5/CyDmac.c **** 
 661:./Generated_Source/PSoC5/CyDmac.c ****         status = CYRET_SUCCESS;
 1021              		2
 1022 0094 4FF00003 		.global	CyDmaTdAllocate
 1023 0098 FB60     		.thumb
 1024 009a 02E0     		.thumb_func
 1025              		.type	CyDmaTdAllocate, %function
 662:./Generated_Source/PSoC5/CyDmac.c ****     }
 663:./Generated_Source/PSoC5/CyDmac.c ****     else
 664:./Generated_Source/PSoC5/CyDmac.c ****     {
 665:./Generated_Source/PSoC5/CyDmac.c ****         status = CYRET_BAD_PARAM;
 1026              	TdAllocate:
 1027 009c 4FF00103 	.LFB19:
 1028 00a0 FB60     		.loc 1 691 0
 1029              		@ args = 0, pretend = 0, frame = 8
 666:./Generated_Source/PSoC5/CyDmac.c ****     }
 667:./Generated_Source/PSoC5/CyDmac.c **** 
 668:./Generated_Source/PSoC5/CyDmac.c ****     return status;
 1030              	rame_needed = 1, uses_anonymous_args = 0
 1031 00a2 FB68     		push	{r7, lr}
 669:./Generated_Source/PSoC5/CyDmac.c **** }
 1032              	CFI47:
 1033 00a4 1846     		sub	sp, sp, #8
 1034 00a6 07F11007 	.LCFI48:
 1035 00aa BD46     		add	r7, sp, #0
 1036 00ac 90BC     	.LCFI49:
 1037 00ae 7047     		.loc 1 696 0
ARM GAS  C:\Users\blinky\AppData\Local\Temp/ccaubaaa.s 			page 31


 1038              		bl	CyEnterCriticalSection
 1039              		.loc 1 698 0
 1040              		ldr	r3, .L117
 1041              		ldrb	r3, [r3, #0]	@ zero_extendqisi2
 1042              		cmp	r3, #0
 1043              		beq	.L113
 1044              		.loc 1 701 0
 1045              		ldr	r3, .L117+4
 1046              		ldrb	r3, [r3, #0]
 1047              		strb	r3, [r7, #7]
 670:./Generated_Source/PSoC5/CyDmac.c **** 
 671:./Generated_Source/PSoC5/CyDmac.c **** 
 672:./Generated_Source/PSoC5/CyDmac.c **** /*******************************************************************************
 673:./Generated_Source/PSoC5/CyDmac.c **** * Function Name: CyDmaTdAllocate
 674:./Generated_Source/PSoC5/CyDmac.c **** ********************************************************************************
 675:./Generated_Source/PSoC5/CyDmac.c **** * Summary:
 676:./Generated_Source/PSoC5/CyDmac.c **** *   Removes a Transfer Descriptor from the free list for use by the
 677:./Generated_Source/PSoC5/CyDmac.c **** *   caller.
 678:./Generated_Source/PSoC5/CyDmac.c **** *
 679:./Generated_Source/PSoC5/CyDmac.c **** * Parameters:
 680:./Generated_Source/PSoC5/CyDmac.c **** *   void.
 681:./Generated_Source/PSoC5/CyDmac.c **** *
 682:./Generated_Source/PSoC5/CyDmac.c **** *
 683:./Generated_Source/PSoC5/CyDmac.c **** * Return:
 684:./Generated_Source/PSoC5/CyDmac.c **** *   Zero based index of the Transfer Descriptor to be used by the
 685:./Generated_Source/PSoC5/CyDmac.c **** *   caller. Zero is a valid TD index. DMA_INVALID_TD implies
 686:./Generated_Source/PSoC5/CyDmac.c **** *   there are no free TD's available.
 687:./Generated_Source/PSoC5/CyDmac.c **** *
 688:./Generated_Source/PSoC5/CyDmac.c **** *
 689:./Generated_Source/PSoC5/CyDmac.c **** *******************************************************************************/
 690:./Generated_Source/PSoC5/CyDmac.c **** uint8 CyDmaTdAllocate(void)
 691:./Generated_Source/PSoC5/CyDmac.c **** {
 1048              	dr	r3, .L117
 1049              		ldrb	r3, [r3, #0]	@ zero_extendqisi2
 1050              		add	r3, r3, #-1
 1051 0000 80B5     		uxtb	r3, r3
 1052              		ldr	r2, .L117
 1053 0002 82B0     		strb	r3, [r2, #0]
 1054              		.loc 1 707 0
 1055 0004 00AF     		ldrb	r3, [r7, #7]	@ zero_extendqisi2
 1056              		lsl	r3, r3, #3
 692:./Generated_Source/PSoC5/CyDmac.c ****     uint8 Element;
 693:./Generated_Source/PSoC5/CyDmac.c **** 
 694:./Generated_Source/PSoC5/CyDmac.c **** 
 695:./Generated_Source/PSoC5/CyDmac.c ****     /* Enter critical section! */
 696:./Generated_Source/PSoC5/CyDmac.c ****     CyEnterCriticalSection();
 1057              	r3, #1073741824
 1058 0006 FFF7FEFF 		add	r3, r3, #30720
 697:./Generated_Source/PSoC5/CyDmac.c **** 
 698:./Generated_Source/PSoC5/CyDmac.c ****     if(CyDmaTdCurrentNumber)
 1059              	drb	r3, [r3, #0]	@ zero_extendqisi2
 1060 000a 124B     		ldr	r2, .L117+4
 1061 000c 1B78     		strb	r3, [r2, #0]
 1062 000e 002B     		b	.L115
 1063 0010 14D0     	.L113:
 699:./Generated_Source/PSoC5/CyDmac.c ****     {
 700:./Generated_Source/PSoC5/CyDmac.c ****         /* Get pointer to the Next available. */
ARM GAS  C:\Users\blinky\AppData\Local\Temp/ccaubaaa.s 			page 32


 701:./Generated_Source/PSoC5/CyDmac.c ****         Element = CyDmaTdFreeIndex;
 1064              	 1 711 0
 1065 0012 114B     		mov	r3, #-1
 1066 0014 1B78     		strb	r3, [r7, #7]
 1067 0016 FB71     	.L115:
 702:./Generated_Source/PSoC5/CyDmac.c **** 
 703:./Generated_Source/PSoC5/CyDmac.c ****         /* Decrement the count. */
 704:./Generated_Source/PSoC5/CyDmac.c ****         CyDmaTdCurrentNumber--;
 1068              	c 1 715 0
 1069 0018 0E4B     		bl	CyExitCriticalSection
 1070 001a 1B78     		.loc 1 717 0
 1071 001c 03F1FF33 		ldrb	r3, [r7, #7]	@ zero_extendqisi2
 1072 0020 DBB2     		.loc 1 718 0
 1073 0022 0C4A     		mov	r0, r3
 1074 0024 1370     		add	r7, r7, #8
 705:./Generated_Source/PSoC5/CyDmac.c **** 
 706:./Generated_Source/PSoC5/CyDmac.c ****         /* Update the next available pointer. */
 707:./Generated_Source/PSoC5/CyDmac.c ****         CyDmaTdFreeIndex = DMAC_TDMEM[Element].TD0[0];
 1075              	, r7
 1076 0026 FB79     		pop	{r7, pc}
 1077 0028 4FEAC303 	.L118:
 1078 002c 03F18043 		.align	2
 1079 0030 03F5F043 	.L117:
 1080 0034 1B78     		.word	CyDmaTdCurrentNumber
 1081 0036 084A     		.word	CyDmaTdFreeIndex
 1082 0038 1370     	.LFE19:
 1083 003a 02E0     		.size	CyDmaTdAllocate, .-CyDmaTdAllocate
 1084              		.section	.text.CyDmaTdFree,"ax",%progbits
 708:./Generated_Source/PSoC5/CyDmac.c ****     }
 709:./Generated_Source/PSoC5/CyDmac.c ****     else
 710:./Generated_Source/PSoC5/CyDmac.c ****     {
 711:./Generated_Source/PSoC5/CyDmac.c ****         Element = DMA_INVALID_TD;
 1085              		.global	CyDmaTdFree
 1086 003c 4FF0FF33 		.thumb
 1087 0040 FB71     		.thumb_func
 1088              		.type	CyDmaTdFree, %function
 712:./Generated_Source/PSoC5/CyDmac.c ****     }
 713:./Generated_Source/PSoC5/CyDmac.c **** 
 714:./Generated_Source/PSoC5/CyDmac.c ****     /* Exit critical section! */
 715:./Generated_Source/PSoC5/CyDmac.c ****     CyExitCriticalSection();
 1089              	aTdFree:
 1090 0042 FFF7FEFF 	.LFB20:
 716:./Generated_Source/PSoC5/CyDmac.c **** 
 717:./Generated_Source/PSoC5/CyDmac.c ****     return Element;
 1091              	loc 1 738 0
 1092 0046 FB79     		@ args = 0, pretend = 0, frame = 8
 718:./Generated_Source/PSoC5/CyDmac.c **** }
 1093              	 frame_needed = 1, uses_anonymous_args = 0
 1094 0048 1846     		push	{r7, lr}
 1095 004a 07F10807 	.LCFI50:
 1096 004e BD46     		sub	sp, sp, #8
 1097 0050 80BD     	.LCFI51:
 1098              		add	r7, sp, #0
 1099 0052 C046     	.LCFI52:
 1100              		mov	r3, r0
 1101 0054 04000000 		strb	r3, [r7, #7]
 1102 0058 05000000 		.loc 1 739 0
ARM GAS  C:\Users\blinky\AppData\Local\Temp/ccaubaaa.s 			page 33


 1103              		ldrb	r3, [r7, #7]	@ zero_extendqisi2
 1104              		sxtb	r3, r3
 1105              		cmp	r3, #0
 1106              		blt	.L122
 1107              		.loc 1 742 0
 1108              		bl	CyEnterCriticalSection
 1109              		.loc 1 745 0
 1110              		ldrb	r3, [r7, #7]	@ zero_extendqisi2
 1111              		lsl	r3, r3, #3
 1112              		add	r2, r3, #1073741824
 719:./Generated_Source/PSoC5/CyDmac.c **** 
 720:./Generated_Source/PSoC5/CyDmac.c **** 
 721:./Generated_Source/PSoC5/CyDmac.c **** /*******************************************************************************
 722:./Generated_Source/PSoC5/CyDmac.c **** * Function Name: CyDmaTdFree
 723:./Generated_Source/PSoC5/CyDmac.c **** ********************************************************************************
 724:./Generated_Source/PSoC5/CyDmac.c **** * Summary:
 725:./Generated_Source/PSoC5/CyDmac.c **** *   Returns a Transfer Descriptor back to the free list.
 726:./Generated_Source/PSoC5/CyDmac.c **** *
 727:./Generated_Source/PSoC5/CyDmac.c **** * Parameters:
 728:./Generated_Source/PSoC5/CyDmac.c **** * tdHandle:
 729:./Generated_Source/PSoC5/CyDmac.c **** *   Zero based index of the Transfer Descriptor to be freed.
 730:./Generated_Source/PSoC5/CyDmac.c **** *
 731:./Generated_Source/PSoC5/CyDmac.c **** *
 732:./Generated_Source/PSoC5/CyDmac.c **** * Return:
 733:./Generated_Source/PSoC5/CyDmac.c **** *   void.
 734:./Generated_Source/PSoC5/CyDmac.c **** *
 735:./Generated_Source/PSoC5/CyDmac.c **** *
 736:./Generated_Source/PSoC5/CyDmac.c **** *******************************************************************************/
 737:./Generated_Source/PSoC5/CyDmac.c **** void CyDmaTdFree(uint8 tdHandle)
 738:./Generated_Source/PSoC5/CyDmac.c **** {
 1113              		ldr	r3, .L123
 1114              		ldrb	r3, [r3, #0]	@ zero_extendqisi2
 1115              		strb	r3, [r2, #0]
 1116 0000 80B5     		.loc 1 748 0
 1117              		ldr	r2, .L123
 1118 0002 82B0     		ldrb	r3, [r7, #7]
 1119              		strb	r3, [r2, #0]
 1120 0004 00AF     		.loc 1 751 0
 1121              		ldr	r3, .L123+4
 1122 0006 0346     		ldrb	r3, [r3, #0]	@ zero_extendqisi2
 1123 0008 FB71     		add	r3, r3, #1
 739:./Generated_Source/PSoC5/CyDmac.c ****     if(tdHandle < NUMBEROF_TDS)
 1124              	3
 1125 000a FB79     		ldr	r2, .L123+4
 1126 000c 5BB2     		strb	r3, [r2, #0]
 1127 000e 002B     		.loc 1 754 0
 1128 0010 17DB     		bl	CyExitCriticalSection
 740:./Generated_Source/PSoC5/CyDmac.c ****     {
 741:./Generated_Source/PSoC5/CyDmac.c ****         /* Enter critical section! */
 742:./Generated_Source/PSoC5/CyDmac.c ****         CyEnterCriticalSection();
 1129              	:
 1130 0012 FFF7FEFF 		.loc 1 756 0
 743:./Generated_Source/PSoC5/CyDmac.c **** 
 744:./Generated_Source/PSoC5/CyDmac.c ****         /* Get pointer to the Next available. */
 745:./Generated_Source/PSoC5/CyDmac.c ****         DMAC_TDMEM[tdHandle].TD0[0] = CyDmaTdFreeIndex;
 1131              	dd	r7, r7, #8
 1132 0016 FB79     		mov	sp, r7
ARM GAS  C:\Users\blinky\AppData\Local\Temp/ccaubaaa.s 			page 34


 1133 0018 4FEAC303 		pop	{r7, pc}
 1134 001c 03F18042 	.L124:
 1135 0020 02F5F042 		.align	2
 1136 0024 094B     	.L123:
 1137 0026 1B78     		.word	CyDmaTdFreeIndex
 1138 0028 1370     		.word	CyDmaTdCurrentNumber
 746:./Generated_Source/PSoC5/CyDmac.c **** 
 747:./Generated_Source/PSoC5/CyDmac.c ****         /* Set new Next Available. */
 748:./Generated_Source/PSoC5/CyDmac.c ****         CyDmaTdFreeIndex = tdHandle;
 1139              		.size	CyDmaTdFree, .-CyDmaTdFree
 1140 002a 084A     		.section	.text.CyDmaTdFreeCount,"ax",%progbits
 1141 002c FB79     		.align	2
 1142 002e 1370     		.global	CyDmaTdFreeCount
 749:./Generated_Source/PSoC5/CyDmac.c **** 
 750:./Generated_Source/PSoC5/CyDmac.c ****         /* Keep track of how many left. */
 751:./Generated_Source/PSoC5/CyDmac.c ****         CyDmaTdCurrentNumber++;
 1143              	umb
 1144 0030 074B     		.thumb_func
 1145 0032 1B78     		.type	CyDmaTdFreeCount, %function
 1146 0034 03F10103 	CyDmaTdFreeCount:
 1147 0038 DBB2     	.LFB21:
 1148 003a 054A     		.loc 1 775 0
 1149 003c 1370     		@ args = 0, pretend = 0, frame = 8
 752:./Generated_Source/PSoC5/CyDmac.c **** 
 753:./Generated_Source/PSoC5/CyDmac.c ****         /* Exit critical section! */
 754:./Generated_Source/PSoC5/CyDmac.c ****         CyExitCriticalSection();
 1150              	e_needed = 1, uses_anonymous_args = 0
 1151 003e FFF7FEFF 		@ link register save eliminated.
 1152              		push	{r7}
 755:./Generated_Source/PSoC5/CyDmac.c ****     }
 756:./Generated_Source/PSoC5/CyDmac.c **** }
 1153              	FI53:
 1154 0042 07F10807 		sub	sp, sp, #12
 1155 0046 BD46     	.LCFI54:
 1156 0048 80BD     		add	r7, sp, #0
 1157              	.LCFI55:
 1158 004a C046     		@ lr needed for prologue
 1159              		.loc 1 779 0
 1160 004c 05000000 		ldr	r3, .L127
 1161 0050 04000000 		ldrb	r3, [r3, #0]
 1162              		strb	r3, [r7, #7]
 1163              		.loc 1 782 0
 1164              		ldrb	r3, [r7, #7]	@ zero_extendqisi2
 1165              		.loc 1 783 0
 1166              		mov	r0, r3
 1167              		add	r7, r7, #12
 1168              		mov	sp, r7
 1169              		pop	{r7}
 1170              		bx	lr
 1171              	.L128:
 757:./Generated_Source/PSoC5/CyDmac.c **** 
 758:./Generated_Source/PSoC5/CyDmac.c **** 
 759:./Generated_Source/PSoC5/CyDmac.c **** /*******************************************************************************
 760:./Generated_Source/PSoC5/CyDmac.c **** * Function Name: CyDmaTdFreeCount
 761:./Generated_Source/PSoC5/CyDmac.c **** ********************************************************************************
 762:./Generated_Source/PSoC5/CyDmac.c **** * Summary:
 763:./Generated_Source/PSoC5/CyDmac.c **** *   Returns the number of free Transfer Descriptors available to be
ARM GAS  C:\Users\blinky\AppData\Local\Temp/ccaubaaa.s 			page 35


 764:./Generated_Source/PSoC5/CyDmac.c **** *   allocated.
 765:./Generated_Source/PSoC5/CyDmac.c **** *
 766:./Generated_Source/PSoC5/CyDmac.c **** * Parameters:
 767:./Generated_Source/PSoC5/CyDmac.c **** *   void.
 768:./Generated_Source/PSoC5/CyDmac.c **** *
 769:./Generated_Source/PSoC5/CyDmac.c **** * Return:
 770:./Generated_Source/PSoC5/CyDmac.c **** *   The number of free Transfer Descriptors.
 771:./Generated_Source/PSoC5/CyDmac.c **** *
 772:./Generated_Source/PSoC5/CyDmac.c **** *
 773:./Generated_Source/PSoC5/CyDmac.c **** *******************************************************************************/
 774:./Generated_Source/PSoC5/CyDmac.c **** uint8 CyDmaTdFreeCount(void)
 775:./Generated_Source/PSoC5/CyDmac.c **** {
 1172              	word	CyDmaTdCurrentNumber
 1173              	.LFE21:
 1174              		.size	CyDmaTdFreeCount, .-CyDmaTdFreeCount
 1175              		.section	.text.CyDmaTdSetConfiguration,"ax",%progbits
 1176 0000 80B4     		.align	2
 1177              		.global	CyDmaTdSetConfiguration
 1178 0002 83B0     		.thumb
 1179              		.thumb_func
 1180 0004 00AF     		.type	CyDmaTdSetConfiguration, %function
 1181              	CyDmaTdSetConfiguration:
 1182              	.LFB22:
 776:./Generated_Source/PSoC5/CyDmac.c ****     uint8 number;
 777:./Generated_Source/PSoC5/CyDmac.c **** 
 778:./Generated_Source/PSoC5/CyDmac.c **** 
 779:./Generated_Source/PSoC5/CyDmac.c ****     number = CyDmaTdCurrentNumber;
 1183              	 0
 1184 0006 054B     		@ args = 0, pretend = 0, frame = 16
 1185 0008 1B78     		@ frame_needed = 1, uses_anonymous_args = 0
 1186 000a FB71     		@ link register save eliminated.
 780:./Generated_Source/PSoC5/CyDmac.c **** 
 781:./Generated_Source/PSoC5/CyDmac.c **** 
 782:./Generated_Source/PSoC5/CyDmac.c ****     return number;
 1187              	h	{r4, r7}
 1188 000c FB79     	.LCFI56:
 783:./Generated_Source/PSoC5/CyDmac.c **** }
 1189              	ub	sp, sp, #16
 1190 000e 1846     	.LCFI57:
 1191 0010 07F10C07 		add	r7, sp, #0
 1192 0014 BD46     	.LCFI58:
 1193 0016 80BC     		@ lr needed for prologue
 1194 0018 7047     		mov	r4, r3
 1195              		mov	r3, r0
 1196 001a C046     		strb	r3, [r7, #7]
 1197              		mov	r3, r1	@ movhi
 1198 001c 04000000 		strh	r3, [r7, #4]	@ movhi
 1199              		mov	r3, r2
 1200              		strb	r3, [r7, #3]
 1201              		mov	r3, r4
 1202              		strb	r3, [r7, #2]
 1203              		.loc 1 828 0
 1204              		ldrb	r3, [r7, #7]	@ zero_extendqisi2
 1205              		sxtb	r3, r3
 1206              		cmp	r3, #0
 1207              		blt	.L130
 1208              		ldrh	r3, [r7, #4]
ARM GAS  C:\Users\blinky\AppData\Local\Temp/ccaubaaa.s 			page 36


 784:./Generated_Source/PSoC5/CyDmac.c **** 
 785:./Generated_Source/PSoC5/CyDmac.c **** 
 786:./Generated_Source/PSoC5/CyDmac.c **** /*******************************************************************************
 787:./Generated_Source/PSoC5/CyDmac.c **** * Function Name: CyDmaTdSetConfiguration
 788:./Generated_Source/PSoC5/CyDmac.c **** ********************************************************************************
 789:./Generated_Source/PSoC5/CyDmac.c **** * Summary:
 790:./Generated_Source/PSoC5/CyDmac.c **** * Configures the TD.
 791:./Generated_Source/PSoC5/CyDmac.c **** *
 792:./Generated_Source/PSoC5/CyDmac.c **** * Parameters:
 793:./Generated_Source/PSoC5/CyDmac.c **** * tdHandle:
 794:./Generated_Source/PSoC5/CyDmac.c **** *   Handle to the TD.
 795:./Generated_Source/PSoC5/CyDmac.c **** *
 796:./Generated_Source/PSoC5/CyDmac.c **** * transferCount:
 797:./Generated_Source/PSoC5/CyDmac.c **** *   Size of the data transfer (in bytes) for this Transfer Descriptor.
 798:./Generated_Source/PSoC5/CyDmac.c **** *
 799:./Generated_Source/PSoC5/CyDmac.c **** * nextTd:
 800:./Generated_Source/PSoC5/CyDmac.c **** *   Zero based index of the next Transfer Descriptor in the TD chain.
 801:./Generated_Source/PSoC5/CyDmac.c **** *   Zero is a valid pointer to the next TD, 0xFF is end of chain.
 802:./Generated_Source/PSoC5/CyDmac.c **** *
 803:./Generated_Source/PSoC5/CyDmac.c **** * configuration:
 804:./Generated_Source/PSoC5/CyDmac.c **** *   Bit field with the following meaning.   
 805:./Generated_Source/PSoC5/CyDmac.c **** *   
 806:./Generated_Source/PSoC5/CyDmac.c **** *   bit 7 swap_en 0
 807:./Generated_Source/PSoC5/CyDmac.c **** *   bit 6 swap_size
 808:./Generated_Source/PSoC5/CyDmac.c **** *   bit 5 auto_exec_next
 809:./Generated_Source/PSoC5/CyDmac.c **** *   bit 4 termin_en
 810:./Generated_Source/PSoC5/CyDmac.c **** *   bit 3 termout1_en
 811:./Generated_Source/PSoC5/CyDmac.c **** *   bit 2 termout0_en
 812:./Generated_Source/PSoC5/CyDmac.c **** *   bit 1 inc_dst_adr
 813:./Generated_Source/PSoC5/CyDmac.c **** *   bit 0 inc_src_adr
 814:./Generated_Source/PSoC5/CyDmac.c **** *   
 815:./Generated_Source/PSoC5/CyDmac.c **** *   As defined in ??HeaderFile??
 816:./Generated_Source/PSoC5/CyDmac.c **** *   
 817:./Generated_Source/PSoC5/CyDmac.c **** *
 818:./Generated_Source/PSoC5/CyDmac.c **** * Return:
 819:./Generated_Source/PSoC5/CyDmac.c **** *   0 in successful or CYRET_BAD_PARAM.
 820:./Generated_Source/PSoC5/CyDmac.c **** *
 821:./Generated_Source/PSoC5/CyDmac.c **** *
 822:./Generated_Source/PSoC5/CyDmac.c **** *******************************************************************************/
 823:./Generated_Source/PSoC5/CyDmac.c **** cystatus CyDmaTdSetConfiguration(uint8 tdHandle, uint16 transferCount, uint8 nextTd, uint8 configur
 824:./Generated_Source/PSoC5/CyDmac.c **** {
 1209              		cmp	r3, #0
 1210              		bne	.L130
 1211              		.loc 1 831 0
 1212              		ldrb	r3, [r7, #7]	@ zero_extendqisi2
 1213 0000 90B4     		lsl	r3, r3, #3
 1214              		add	r3, r3, #1073741824
 1215 0002 84B0     		add	r3, r3, #30720
 1216              		mov	r2, r3
 1217 0004 00AF     		ldrh	r3, [r7, #4]	@ movhi
 1218              		strh	r3, [r2, #0]	@ movhi
 1219              		.loc 1 834 0
 1220 0006 1C46     		ldrb	r3, [r7, #7]	@ zero_extendqisi2
 1221 0008 0346     		lsl	r3, r3, #3
 1222 000a FB71     		add	r3, r3, #1073741824
 1223 000c 0B46     		add	r3, r3, #30720
 1224 000e BB80     		ldrb	r2, [r7, #3]
ARM GAS  C:\Users\blinky\AppData\Local\Temp/ccaubaaa.s 			page 37


 1225 0010 1346     		strb	r2, [r3, #2]
 1226 0012 FB70     		.loc 1 837 0
 1227 0014 2346     		ldrb	r3, [r7, #7]	@ zero_extendqisi2
 1228 0016 BB70     		lsl	r3, r3, #3
 825:./Generated_Source/PSoC5/CyDmac.c ****     cystatus status;
 826:./Generated_Source/PSoC5/CyDmac.c **** 
 827:./Generated_Source/PSoC5/CyDmac.c **** 
 828:./Generated_Source/PSoC5/CyDmac.c ****     if(tdHandle < NUMBEROF_TDS && !(0xF000u & transferCount))
 1229              	1824
 1230 0018 FB79     		add	r3, r3, #30720
 1231 001a 5BB2     		ldrb	r2, [r7, #2]
 1232 001c 002B     		strb	r2, [r3, #3]
 1233 001e 24DB     		.loc 1 839 0
 1234 0020 BB88     		mov	r3, #0
 1235 0022 03F47043 		str	r3, [r7, #12]
 1236 0026 002B     		.loc 1 828 0
 1237 0028 1FD1     		b	.L133
 829:./Generated_Source/PSoC5/CyDmac.c ****     {
 830:./Generated_Source/PSoC5/CyDmac.c ****         /* Set 12 bits transfer count. */
 831:./Generated_Source/PSoC5/CyDmac.c ****         CY_SET_REG16((reg16 *) &DMAC_TDMEM[tdHandle].TD0[0], transferCount);
 1238              	loc 1 843 0
 1239 002a FB79     		mov	r3, #1
 1240 002c 4FEAC303 		str	r3, [r7, #12]
 1241 0030 03F18043 	.L133:
 1242 0034 03F5F043 		.loc 1 846 0
 1243 0038 1A46     		ldr	r3, [r7, #12]
 1244 003a BB88     		.loc 1 847 0
 1245 003c 1380     		mov	r0, r3
 832:./Generated_Source/PSoC5/CyDmac.c **** 
 833:./Generated_Source/PSoC5/CyDmac.c ****         /* Set Next TD pointer. */
 834:./Generated_Source/PSoC5/CyDmac.c ****         DMAC_TDMEM[tdHandle].TD0[2] = nextTd;
 1246              	 r7, #16
 1247 003e FB79     		mov	sp, r7
 1248 0040 4FEAC303 		pop	{r4, r7}
 1249 0044 03F18043 		bx	lr
 1250 0048 03F5F043 	.LFE22:
 1251 004c FA78     		.size	CyDmaTdSetConfiguration, .-CyDmaTdSetConfiguration
 1252 004e 9A70     		.section	.text.CyDmaTdGetConfiguration,"ax",%progbits
 835:./Generated_Source/PSoC5/CyDmac.c **** 
 836:./Generated_Source/PSoC5/CyDmac.c ****         /* Configure the TD */
 837:./Generated_Source/PSoC5/CyDmac.c ****         DMAC_TDMEM[tdHandle].TD0[3] = configuration;
 1253              		2
 1254 0050 FB79     		.global	CyDmaTdGetConfiguration
 1255 0052 4FEAC303 		.thumb
 1256 0056 03F18043 		.thumb_func
 1257 005a 03F5F043 		.type	CyDmaTdGetConfiguration, %function
 1258 005e BA78     	CyDmaTdGetConfiguration:
 1259 0060 DA70     	.LFB23:
 838:./Generated_Source/PSoC5/CyDmac.c **** 
 839:./Generated_Source/PSoC5/CyDmac.c ****         status = CYRET_SUCCESS;
 1260              	 893 0
 1261 0062 4FF00003 		@ args = 0, pretend = 0, frame = 32
 1262 0066 FB60     		@ frame_needed = 1, uses_anonymous_args = 0
 1263              		@ link register save eliminated.
 1264 0068 02E0     		push	{r7}
 1265              	.LCFI59:
 840:./Generated_Source/PSoC5/CyDmac.c ****     }
ARM GAS  C:\Users\blinky\AppData\Local\Temp/ccaubaaa.s 			page 38


 841:./Generated_Source/PSoC5/CyDmac.c ****     else
 842:./Generated_Source/PSoC5/CyDmac.c ****     {
 843:./Generated_Source/PSoC5/CyDmac.c ****         status = CYRET_BAD_PARAM;
 1266              	p, sp, #36
 1267 006a 4FF00103 	.LCFI60:
 1268 006e FB60     		add	r7, sp, #0
 1269              	.LCFI61:
 844:./Generated_Source/PSoC5/CyDmac.c ****     }
 845:./Generated_Source/PSoC5/CyDmac.c **** 
 846:./Generated_Source/PSoC5/CyDmac.c ****     return status;
 1270              	r needed for prologue
 1271 0070 FB68     		str	r1, [r7, #16]
 847:./Generated_Source/PSoC5/CyDmac.c **** }
 1272              	tr	r2, [r7, #12]
 1273 0072 1846     		str	r3, [r7, #8]
 1274 0074 07F11007 		mov	r3, r0
 1275 0078 BD46     		strb	r3, [r7, #23]
 1276 007a 90BC     		.loc 1 897 0
 1277 007c 7047     		ldrb	r3, [r7, #23]	@ zero_extendqisi2
 1278              		sxtb	r3, r3
 1279              		cmp	r3, #0
 1280 007e C046     		blt	.L136
 1281              		.loc 1 900 0
 1282              		ldr	r3, [r7, #16]
 1283              		cmp	r3, #0
 1284              		beq	.L138
 1285              		.loc 1 903 0
 1286              		ldrb	r3, [r7, #23]	@ zero_extendqisi2
 1287              		lsl	r3, r3, #3
 848:./Generated_Source/PSoC5/CyDmac.c **** 
 849:./Generated_Source/PSoC5/CyDmac.c **** 
 850:./Generated_Source/PSoC5/CyDmac.c **** /*******************************************************************************
 851:./Generated_Source/PSoC5/CyDmac.c **** * Function Name: CyDmaTdGetConfiguration
 852:./Generated_Source/PSoC5/CyDmac.c **** ********************************************************************************
 853:./Generated_Source/PSoC5/CyDmac.c **** * Summary:
 854:./Generated_Source/PSoC5/CyDmac.c **** * Gets the configuration for the Configures.
 855:./Generated_Source/PSoC5/CyDmac.c **** *
 856:./Generated_Source/PSoC5/CyDmac.c **** *   if NULL is passed for a pointer parameter, that value will be
 857:./Generated_Source/PSoC5/CyDmac.c **** *   skipped. The user can requestion only the values they are
 858:./Generated_Source/PSoC5/CyDmac.c **** *   interested in.
 859:./Generated_Source/PSoC5/CyDmac.c **** *
 860:./Generated_Source/PSoC5/CyDmac.c **** * Parameters:
 861:./Generated_Source/PSoC5/CyDmac.c **** * tdHandle:
 862:./Generated_Source/PSoC5/CyDmac.c **** *   Handle to the TD.
 863:./Generated_Source/PSoC5/CyDmac.c **** *
 864:./Generated_Source/PSoC5/CyDmac.c **** * transferCount:
 865:./Generated_Source/PSoC5/CyDmac.c **** *   Address to store the Size of the data transfer (in bytes) for
 866:./Generated_Source/PSoC5/CyDmac.c **** *   this Transfer Descriptor.
 867:./Generated_Source/PSoC5/CyDmac.c **** *
 868:./Generated_Source/PSoC5/CyDmac.c **** * nextTd:
 869:./Generated_Source/PSoC5/CyDmac.c **** *   Address to store the Zero based index of the next Transfer
 870:./Generated_Source/PSoC5/CyDmac.c **** *   Descriptor in the TD chain.
 871:./Generated_Source/PSoC5/CyDmac.c **** *
 872:./Generated_Source/PSoC5/CyDmac.c **** * configurattion:
 873:./Generated_Source/PSoC5/CyDmac.c **** *   Address to store the Bit field of configuration bits.
 874:./Generated_Source/PSoC5/CyDmac.c **** *   
 875:./Generated_Source/PSoC5/CyDmac.c **** *   bit 7 swap_en 0
ARM GAS  C:\Users\blinky\AppData\Local\Temp/ccaubaaa.s 			page 39


 876:./Generated_Source/PSoC5/CyDmac.c **** *   bit 6 swap_size
 877:./Generated_Source/PSoC5/CyDmac.c **** *   bit 5 auto_exec_next
 878:./Generated_Source/PSoC5/CyDmac.c **** *   bit 4 termin_en
 879:./Generated_Source/PSoC5/CyDmac.c **** *   bit 3 termout1_en
 880:./Generated_Source/PSoC5/CyDmac.c **** *   bit 2 termout0_en
 881:./Generated_Source/PSoC5/CyDmac.c **** *   bit 1 inc_dst_adr
 882:./Generated_Source/PSoC5/CyDmac.c **** *   bit 0 inc_src_adr
 883:./Generated_Source/PSoC5/CyDmac.c **** *   
 884:./Generated_Source/PSoC5/CyDmac.c **** *   As defined in ??HeaderFile??
 885:./Generated_Source/PSoC5/CyDmac.c **** *   
 886:./Generated_Source/PSoC5/CyDmac.c **** *
 887:./Generated_Source/PSoC5/CyDmac.c **** * Return:
 888:./Generated_Source/PSoC5/CyDmac.c **** *   0 in successful or CYRET_BAD_PARAM.
 889:./Generated_Source/PSoC5/CyDmac.c **** *
 890:./Generated_Source/PSoC5/CyDmac.c **** *
 891:./Generated_Source/PSoC5/CyDmac.c **** *******************************************************************************/
 892:./Generated_Source/PSoC5/CyDmac.c **** cystatus CyDmaTdGetConfiguration(uint8 tdHandle, uint16 * transferCount, uint8 * nextTd, uint8 * co
 893:./Generated_Source/PSoC5/CyDmac.c **** {
 1288              	73741824
 1289              		add	r3, r3, #30720
 1290              		ldrh	r3, [r3, #0]	@ movhi
 1291              		uxth	r3, r3
 1292 0000 80B4     		str	r3, [r7, #4]
 1293              		ldr	r1, [r7, #4]
 1294 0002 89B0     		lsl	r3, r1, #20
 1295              		lsr	r3, r3, #20
 1296 0004 00AF     		str	r3, [r7, #4]
 1297              		ldr	r2, [r7, #16]
 1298              		ldr	r1, [r7, #4]
 1299 0006 3961     		mov	r3, r1	@ movhi
 1300 0008 FA60     		strh	r3, [r2, #0]	@ movhi
 1301 000a BB60     	.L138:
 1302 000c 0346     		.loc 1 907 0
 1303 000e FB75     		ldr	r3, [r7, #12]
 894:./Generated_Source/PSoC5/CyDmac.c ****     cystatus status;
 895:./Generated_Source/PSoC5/CyDmac.c **** 
 896:./Generated_Source/PSoC5/CyDmac.c **** 
 897:./Generated_Source/PSoC5/CyDmac.c ****     if(tdHandle < NUMBEROF_TDS)
 1304              		.L140
 1305 0010 FB7D     		.loc 1 910 0
 1306 0012 5BB2     		ldrb	r3, [r7, #23]	@ zero_extendqisi2
 1307 0014 002B     		lsl	r3, r3, #3
 1308 0016 34DB     		add	r3, r3, #1073741824
 898:./Generated_Source/PSoC5/CyDmac.c ****     {
 899:./Generated_Source/PSoC5/CyDmac.c ****         /* If we have a pointer. */
 900:./Generated_Source/PSoC5/CyDmac.c ****         if(transferCount)
 1309              	r3, r3, #30720
 1310 0018 3B69     		ldrb	r3, [r3, #2]	@ zero_extendqisi2
 1311 001a 002B     		ldr	r2, [r7, #12]
 1312 001c 13D0     		strb	r3, [r2, #0]
 901:./Generated_Source/PSoC5/CyDmac.c ****         {
 902:./Generated_Source/PSoC5/CyDmac.c ****             /* Get the 12 bitss of the transfer count. */
 903:./Generated_Source/PSoC5/CyDmac.c ****             *transferCount = 0x0FFFu & CY_GET_REG16((reg16 *) &DMAC_TDMEM[tdHandle].TD0[0]);
 1313              	0:
 1314 001e FB7D     		.loc 1 914 0
 1315 0020 4FEAC303 		ldr	r3, [r7, #8]
 1316 0024 03F18043 		cmp	r3, #0
ARM GAS  C:\Users\blinky\AppData\Local\Temp/ccaubaaa.s 			page 40


 1317 0028 03F5F043 		beq	.L142
 1318 002c 1B88     		.loc 1 917 0
 1319 002e 9BB2     		ldrb	r3, [r7, #23]	@ zero_extendqisi2
 1320 0030 7B60     		lsl	r3, r3, #3
 1321 0032 7968     		add	r3, r3, #1073741824
 1322 0034 4FEA0153 		add	r3, r3, #30720
 1323 0038 4FEA1353 		ldrb	r3, [r3, #3]	@ zero_extendqisi2
 1324 003c 7B60     		ldr	r2, [r7, #8]
 1325 003e 3A69     		strb	r3, [r2, #0]
 1326 0040 7968     	.L142:
 1327 0042 0B46     		.loc 1 920 0
 1328 0044 1380     		mov	r3, #0
 1329              		str	r3, [r7, #28]
 904:./Generated_Source/PSoC5/CyDmac.c ****         }
 905:./Generated_Source/PSoC5/CyDmac.c **** 
 906:./Generated_Source/PSoC5/CyDmac.c ****         /* If we have a pointer. */
 907:./Generated_Source/PSoC5/CyDmac.c ****         if(nextTd)
 1330              	.loc 1 924 0
 1331 0046 FB68     		mov	r3, #1
 1332 0048 002B     		str	r3, [r7, #28]
 1333 004a 09D0     	.L144:
 908:./Generated_Source/PSoC5/CyDmac.c ****         {
 909:./Generated_Source/PSoC5/CyDmac.c ****             /* Get the Next TD pointer. */
 910:./Generated_Source/PSoC5/CyDmac.c ****             *nextTd = DMAC_TDMEM[tdHandle].TD0[2];
 1334              	c 1 927 0
 1335 004c FB7D     		ldr	r3, [r7, #28]
 1336 004e 4FEAC303 		.loc 1 928 0
 1337 0052 03F18043 		mov	r0, r3
 1338 0056 03F5F043 		add	r7, r7, #36
 1339 005a 9B78     		mov	sp, r7
 1340 005c FA68     		pop	{r7}
 1341 005e 1370     		bx	lr
 1342              	.LFE23:
 911:./Generated_Source/PSoC5/CyDmac.c ****         }
 912:./Generated_Source/PSoC5/CyDmac.c **** 
 913:./Generated_Source/PSoC5/CyDmac.c ****         /* If we have a pointer. */
 914:./Generated_Source/PSoC5/CyDmac.c ****         if(configuration)
 1343              	DmaTdGetConfiguration, .-CyDmaTdGetConfiguration
 1344 0060 BB68     		.section	.text.CyDmaTdSetAddress,"ax",%progbits
 1345 0062 002B     		.align	2
 1346 0064 09D0     		.global	CyDmaTdSetAddress
 915:./Generated_Source/PSoC5/CyDmac.c ****         {
 916:./Generated_Source/PSoC5/CyDmac.c ****             /* Get the configuration the TD */
 917:./Generated_Source/PSoC5/CyDmac.c ****             *configuration = DMAC_TDMEM[tdHandle].TD0[3];
 1347              	umb
 1348 0066 FB7D     		.thumb_func
 1349 0068 4FEAC303 		.type	CyDmaTdSetAddress, %function
 1350 006c 03F18043 	CyDmaTdSetAddress:
 1351 0070 03F5F043 	.LFB24:
 1352 0074 DB78     		.loc 1 955 0
 1353 0076 BA68     		@ args = 0, pretend = 0, frame = 16
 1354 0078 1370     		@ frame_needed = 1, uses_anonymous_args = 0
 1355              		@ link register save eliminated.
 918:./Generated_Source/PSoC5/CyDmac.c ****         }
 919:./Generated_Source/PSoC5/CyDmac.c **** 
 920:./Generated_Source/PSoC5/CyDmac.c ****         status = CYRET_SUCCESS;
 1356              	}
ARM GAS  C:\Users\blinky\AppData\Local\Temp/ccaubaaa.s 			page 41


 1357 007a 4FF00003 	.LCFI62:
 1358 007e FB61     		sub	sp, sp, #20
 1359 0080 02E0     	.LCFI63:
 1360              		add	r7, sp, #0
 921:./Generated_Source/PSoC5/CyDmac.c ****     }
 922:./Generated_Source/PSoC5/CyDmac.c ****     else
 923:./Generated_Source/PSoC5/CyDmac.c ****     {
 924:./Generated_Source/PSoC5/CyDmac.c ****         status = CYRET_BAD_PARAM;
 1361              	64:
 1362 0082 4FF00103 		@ lr needed for prologue
 1363 0086 FB61     		mov	r3, r0
 1364              		strb	r3, [r7, #7]
 925:./Generated_Source/PSoC5/CyDmac.c ****     }
 926:./Generated_Source/PSoC5/CyDmac.c **** 
 927:./Generated_Source/PSoC5/CyDmac.c ****     return status;
 1365              		r3, r1	@ movhi
 1366 0088 FB69     		strh	r3, [r7, #4]	@ movhi
 928:./Generated_Source/PSoC5/CyDmac.c **** }
 1367              	ov	r3, r2	@ movhi
 1368 008a 1846     		strh	r3, [r7, #2]	@ movhi
 1369 008c 07F12407 		.loc 1 959 0
 1370 0090 BD46     		ldrb	r3, [r7, #7]	@ zero_extendqisi2
 1371 0092 80BC     		sxtb	r3, r3
 1372 0094 7047     		cmp	r3, #0
 1373              		blt	.L147
 1374              		.loc 1 962 0
 1375 0096 C046     		ldrb	r3, [r7, #7]	@ zero_extendqisi2
 1376              		lsl	r3, r3, #3
 1377              		add	r3, r3, #1073741824
 1378              		add	r3, r3, #30720
 1379              		add	r3, r3, #4
 1380              		mov	r2, r3
 1381              		ldrh	r3, [r7, #4]	@ movhi
 1382              		strh	r3, [r2, #0]	@ movhi
 929:./Generated_Source/PSoC5/CyDmac.c **** 
 930:./Generated_Source/PSoC5/CyDmac.c **** 
 931:./Generated_Source/PSoC5/CyDmac.c **** /*******************************************************************************
 932:./Generated_Source/PSoC5/CyDmac.c **** * Function Name: CyDmaTdSetAddress
 933:./Generated_Source/PSoC5/CyDmac.c **** ********************************************************************************
 934:./Generated_Source/PSoC5/CyDmac.c **** * Summary:
 935:./Generated_Source/PSoC5/CyDmac.c **** *   Sets the lower 16 bits of the source and destination addresses
 936:./Generated_Source/PSoC5/CyDmac.c **** *   for this TD only.
 937:./Generated_Source/PSoC5/CyDmac.c **** *
 938:./Generated_Source/PSoC5/CyDmac.c **** * Parameters:
 939:./Generated_Source/PSoC5/CyDmac.c **** * tdHandle:
 940:./Generated_Source/PSoC5/CyDmac.c **** *   Handle to the TD.
 941:./Generated_Source/PSoC5/CyDmac.c **** *
 942:./Generated_Source/PSoC5/CyDmac.c **** * source:
 943:./Generated_Source/PSoC5/CyDmac.c **** *   lower 16 address bits of the Source of the data transfer.
 944:./Generated_Source/PSoC5/CyDmac.c **** *
 945:./Generated_Source/PSoC5/CyDmac.c **** * destination:
 946:./Generated_Source/PSoC5/CyDmac.c **** *   lower 16 address bits of the Destination of the data transfer.
 947:./Generated_Source/PSoC5/CyDmac.c **** *
 948:./Generated_Source/PSoC5/CyDmac.c **** *
 949:./Generated_Source/PSoC5/CyDmac.c **** * Return:
 950:./Generated_Source/PSoC5/CyDmac.c **** *   0 in successful or CYRET_BAD_PARAM.
 951:./Generated_Source/PSoC5/CyDmac.c **** *
ARM GAS  C:\Users\blinky\AppData\Local\Temp/ccaubaaa.s 			page 42


 952:./Generated_Source/PSoC5/CyDmac.c **** *
 953:./Generated_Source/PSoC5/CyDmac.c **** *******************************************************************************/
 954:./Generated_Source/PSoC5/CyDmac.c **** cystatus CyDmaTdSetAddress(uint8 tdHandle, uint16 source, uint16 destination)
 955:./Generated_Source/PSoC5/CyDmac.c **** {
 1383              	drb	r3, [r7, #7]	@ zero_extendqisi2
 1384              		lsl	r3, r3, #3
 1385              		add	r3, r3, #1073741824
 1386              		add	r3, r3, #30720
 1387 0000 80B4     		add	r3, r3, #4
 1388              		add	r3, r3, #2
 1389 0002 85B0     		mov	r2, r3
 1390              		ldrh	r3, [r7, #2]	@ movhi
 1391 0004 00AF     		strh	r3, [r2, #0]	@ movhi
 1392              		.loc 1 967 0
 1393              		mov	r3, #0
 1394 0006 0346     		str	r3, [r7, #12]
 1395 0008 FB71     		b	.L149
 1396 000a 0B46     	.L147:
 1397 000c BB80     		.loc 1 971 0
 1398 000e 1346     		mov	r3, #1
 1399 0010 7B80     		str	r3, [r7, #12]
 956:./Generated_Source/PSoC5/CyDmac.c ****     cystatus status;
 957:./Generated_Source/PSoC5/CyDmac.c **** 
 958:./Generated_Source/PSoC5/CyDmac.c **** 
 959:./Generated_Source/PSoC5/CyDmac.c ****     if(tdHandle < NUMBEROF_TDS)
 1400              	4 0
 1401 0012 FB79     		ldr	r3, [r7, #12]
 1402 0014 5BB2     		.loc 1 975 0
 1403 0016 002B     		mov	r0, r3
 1404 0018 1DDB     		add	r7, r7, #20
 960:./Generated_Source/PSoC5/CyDmac.c ****     {
 961:./Generated_Source/PSoC5/CyDmac.c ****         /* Set Source address. */
 962:./Generated_Source/PSoC5/CyDmac.c ****         CY_SET_REG16((reg16 *) &DMAC_TDMEM[tdHandle].TD1[0], source);
 1405              	sp, r7
 1406 001a FB79     		pop	{r7}
 1407 001c 4FEAC303 		bx	lr
 1408 0020 03F18043 	.LFE24:
 1409 0024 03F5F043 		.size	CyDmaTdSetAddress, .-CyDmaTdSetAddress
 1410 0028 03F10403 		.section	.text.CyDmaTdGetAddress,"ax",%progbits
 1411 002c 1A46     		.align	2
 1412 002e BB88     		.global	CyDmaTdGetAddress
 1413 0030 1380     		.thumb
 963:./Generated_Source/PSoC5/CyDmac.c **** 
 964:./Generated_Source/PSoC5/CyDmac.c ****         /* Set Destination address. */
 965:./Generated_Source/PSoC5/CyDmac.c ****         CY_SET_REG16((reg16 *) &DMAC_TDMEM[tdHandle].TD1[2], destination);
 1414              	unc
 1415 0032 FB79     		.type	CyDmaTdGetAddress, %function
 1416 0034 4FEAC303 	CyDmaTdGetAddress:
 1417 0038 03F18043 	.LFB25:
 1418 003c 03F5F043 		.loc 1 1008 0
 1419 0040 03F10403 		@ args = 0, pretend = 0, frame = 24
 1420 0044 03F10203 		@ frame_needed = 1, uses_anonymous_args = 0
 1421 0048 1A46     		@ link register save eliminated.
 1422 004a 7B88     		push	{r7}
 1423 004c 1380     	.LCFI65:
 966:./Generated_Source/PSoC5/CyDmac.c **** 
 967:./Generated_Source/PSoC5/CyDmac.c ****         status = CYRET_SUCCESS;
ARM GAS  C:\Users\blinky\AppData\Local\Temp/ccaubaaa.s 			page 43


 1424              	p, #28
 1425 004e 4FF00003 	.LCFI66:
 1426 0052 FB60     		add	r7, sp, #0
 1427 0054 02E0     	.LCFI67:
 1428              		@ lr needed for prologue
 968:./Generated_Source/PSoC5/CyDmac.c ****     }
 969:./Generated_Source/PSoC5/CyDmac.c ****     else
 970:./Generated_Source/PSoC5/CyDmac.c ****     {
 971:./Generated_Source/PSoC5/CyDmac.c ****         status = CYRET_BAD_PARAM;
 1429              	r3, r0
 1430 0056 4FF00103 		str	r1, [r7, #8]
 1431 005a FB60     		str	r2, [r7, #4]
 1432              		strb	r3, [r7, #15]
 972:./Generated_Source/PSoC5/CyDmac.c ****     }
 973:./Generated_Source/PSoC5/CyDmac.c **** 
 974:./Generated_Source/PSoC5/CyDmac.c ****     return status;
 1433              	c 1 1012 0
 1434 005c FB68     		ldrb	r3, [r7, #15]	@ zero_extendqisi2
 975:./Generated_Source/PSoC5/CyDmac.c **** }
 1435              	xtb	r3, r3
 1436 005e 1846     		cmp	r3, #0
 1437 0060 07F11407 		blt	.L152
 1438 0064 BD46     		.loc 1 1015 0
 1439 0066 80BC     		ldr	r3, [r7, #8]
 1440 0068 7047     		cmp	r3, #0
 1441              		beq	.L154
 1442              		.loc 1 1018 0
 1443 006a C046     		ldrb	r3, [r7, #15]	@ zero_extendqisi2
 1444              		lsl	r3, r3, #3
 1445              		add	r3, r3, #1073741824
 1446              		add	r3, r3, #30720
 1447              		add	r3, r3, #4
 1448              		ldrh	r3, [r3, #0]	@ movhi
 1449              		uxth	r3, r3
 1450              		ldr	r2, [r7, #8]
 976:./Generated_Source/PSoC5/CyDmac.c **** 
 977:./Generated_Source/PSoC5/CyDmac.c **** 
 978:./Generated_Source/PSoC5/CyDmac.c **** /*******************************************************************************
 979:./Generated_Source/PSoC5/CyDmac.c **** * Function Name: CyDmaTdGetAddress
 980:./Generated_Source/PSoC5/CyDmac.c **** ********************************************************************************
 981:./Generated_Source/PSoC5/CyDmac.c **** * Summary:
 982:./Generated_Source/PSoC5/CyDmac.c **** *   Gets the lower 16 bits of the source and/or destination addresses
 983:./Generated_Source/PSoC5/CyDmac.c **** *   for this TD only.
 984:./Generated_Source/PSoC5/CyDmac.c **** *
 985:./Generated_Source/PSoC5/CyDmac.c **** *   if NULL is passed for a pointer parameter, that value will be
 986:./Generated_Source/PSoC5/CyDmac.c **** *   skipped. The user can requestion only the values they are
 987:./Generated_Source/PSoC5/CyDmac.c **** *   interested in.
 988:./Generated_Source/PSoC5/CyDmac.c **** *
 989:./Generated_Source/PSoC5/CyDmac.c **** * Parameters:
 990:./Generated_Source/PSoC5/CyDmac.c **** * tdHandle:
 991:./Generated_Source/PSoC5/CyDmac.c **** *   Handle to the TD.
 992:./Generated_Source/PSoC5/CyDmac.c **** *
 993:./Generated_Source/PSoC5/CyDmac.c **** * source:
 994:./Generated_Source/PSoC5/CyDmac.c **** *   Address to store the lower 16 address bits of the Source of the
 995:./Generated_Source/PSoC5/CyDmac.c **** *   data transfer.
 996:./Generated_Source/PSoC5/CyDmac.c **** *
 997:./Generated_Source/PSoC5/CyDmac.c **** * destination:
ARM GAS  C:\Users\blinky\AppData\Local\Temp/ccaubaaa.s 			page 44


 998:./Generated_Source/PSoC5/CyDmac.c **** *   Address to store the lower 16 address bits of the Destination of
 999:./Generated_Source/PSoC5/CyDmac.c **** *   the data transfer.
1000:./Generated_Source/PSoC5/CyDmac.c **** *
1001:./Generated_Source/PSoC5/CyDmac.c **** *
1002:./Generated_Source/PSoC5/CyDmac.c **** * Return:
1003:./Generated_Source/PSoC5/CyDmac.c **** *   0 in successful or CYRET_BAD_PARAM.
1004:./Generated_Source/PSoC5/CyDmac.c **** *
1005:./Generated_Source/PSoC5/CyDmac.c **** *
1006:./Generated_Source/PSoC5/CyDmac.c **** *******************************************************************************/
1007:./Generated_Source/PSoC5/CyDmac.c **** cystatus CyDmaTdGetAddress(uint8 tdHandle, uint16 * source, uint16 * destination)
1008:./Generated_Source/PSoC5/CyDmac.c **** {
 1451              	0]	@ movhi
 1452              	.L154:
 1453              		.loc 1 1022 0
 1454              		ldr	r3, [r7, #4]
 1455 0000 80B4     		cmp	r3, #0
 1456              		beq	.L156
 1457 0002 87B0     		.loc 1 1025 0
 1458              		ldrb	r3, [r7, #15]	@ zero_extendqisi2
 1459 0004 00AF     		lsl	r3, r3, #3
 1460              		add	r3, r3, #1073741824
 1461              		add	r3, r3, #30720
 1462 0006 0346     		add	r3, r3, #4
 1463 0008 B960     		add	r3, r3, #2
 1464 000a 7A60     		ldrh	r3, [r3, #0]	@ movhi
 1465 000c FB73     		uxth	r3, r3
1009:./Generated_Source/PSoC5/CyDmac.c ****     cystatus status;
1010:./Generated_Source/PSoC5/CyDmac.c **** 
1011:./Generated_Source/PSoC5/CyDmac.c **** 
1012:./Generated_Source/PSoC5/CyDmac.c ****     if(tdHandle < NUMBEROF_TDS)
 1466              	4]
 1467 000e FB7B     		strh	r3, [r2, #0]	@ movhi
 1468 0010 5BB2     	.L156:
 1469 0012 002B     		.loc 1 1028 0
 1470 0014 25DB     		mov	r3, #0
1013:./Generated_Source/PSoC5/CyDmac.c ****     {
1014:./Generated_Source/PSoC5/CyDmac.c ****         /* If we have a pointer. */
1015:./Generated_Source/PSoC5/CyDmac.c ****         if(source)
 1471              	r3, [r7, #20]
 1472 0016 BB68     		b	.L158
 1473 0018 002B     	.L152:
 1474 001a 0CD0     		.loc 1 1032 0
1016:./Generated_Source/PSoC5/CyDmac.c ****         {
1017:./Generated_Source/PSoC5/CyDmac.c ****             /* Get Source address. */
1018:./Generated_Source/PSoC5/CyDmac.c ****             *source = CY_GET_REG16((reg16 *) &DMAC_TDMEM[tdHandle].TD1[0]);
 1475              		r3, #1
 1476 001c FB7B     		str	r3, [r7, #20]
 1477 001e 4FEAC303 	.L158:
 1478 0022 03F18043 		.loc 1 1035 0
 1479 0026 03F5F043 		ldr	r3, [r7, #20]
 1480 002a 03F10403 		.loc 1 1036 0
 1481 002e 1B88     		mov	r0, r3
 1482 0030 9BB2     		add	r7, r7, #28
 1483 0032 BA68     		mov	sp, r7
 1484 0034 1380     		pop	{r7}
 1485              		bx	lr
1019:./Generated_Source/PSoC5/CyDmac.c ****         }
ARM GAS  C:\Users\blinky\AppData\Local\Temp/ccaubaaa.s 			page 45


1020:./Generated_Source/PSoC5/CyDmac.c **** 
1021:./Generated_Source/PSoC5/CyDmac.c ****         /* If we have a pointer. */
1022:./Generated_Source/PSoC5/CyDmac.c ****         if(destination)
 1486              	ize	CyDmaTdGetAddress, .-CyDmaTdGetAddress
 1487 0036 7B68     		.bss
 1488 0038 002B     	CyDmaTdCurrentNumber:
 1489 003a 0ED0     		.space	1
1023:./Generated_Source/PSoC5/CyDmac.c ****         {
1024:./Generated_Source/PSoC5/CyDmac.c ****             /* Get Destination address. */
1025:./Generated_Source/PSoC5/CyDmac.c ****             *destination = CY_GET_REG16((reg16 *) &DMAC_TDMEM[tdHandle].TD1[2]);
 1490              	aTdFreeIndex:
 1491 003c FB7B     		.space	1
 1492 003e 4FEAC303 		.section	.debug_frame,"",%progbits
 1493 0042 03F18043 	.Lframe0:
 1494 0046 03F5F043 		.4byte	.LECIE0-.LSCIE0
 1495 004a 03F10403 	.LSCIE0:
 1496 004e 03F10203 		.4byte	0xffffffff
 1497 0052 1B88     		.byte	0x1
 1498 0054 9BB2     		.ascii	"\000"
 1499 0056 7A68     		.uleb128 0x1
 1500 0058 1380     		.sleb128 -4
 1501              		.byte	0xe
1026:./Generated_Source/PSoC5/CyDmac.c ****         }
1027:./Generated_Source/PSoC5/CyDmac.c **** 
1028:./Generated_Source/PSoC5/CyDmac.c ****         status = CYRET_SUCCESS;
 1502              	.uleb128 0xd
 1503 005a 4FF00003 		.uleb128 0x0
 1504 005e 7B61     		.align	2
 1505 0060 02E0     	.LECIE0:
 1506              	.LSFDE0:
1029:./Generated_Source/PSoC5/CyDmac.c ****     }
1030:./Generated_Source/PSoC5/CyDmac.c ****     else
1031:./Generated_Source/PSoC5/CyDmac.c ****     {
1032:./Generated_Source/PSoC5/CyDmac.c ****         status = CYRET_BAD_PARAM;
 1507              	te	.LEFDE0-.LASFDE0
 1508 0062 4FF00103 	.LASFDE0:
 1509 0066 7B61     		.4byte	.Lframe0
 1510              		.4byte	.LFB2
1033:./Generated_Source/PSoC5/CyDmac.c ****     }
1034:./Generated_Source/PSoC5/CyDmac.c **** 
1035:./Generated_Source/PSoC5/CyDmac.c ****     return status;
 1511              	yte	.LFE2-.LFB2
 1512 0068 7B69     		.byte	0x4
1036:./Generated_Source/PSoC5/CyDmac.c **** }
 1513              	4byte	.LCFI0-.LFB2
 1514 006a 1846     		.byte	0xe
 1515 006c 07F11C07 		.uleb128 0x4
 1516 0070 BD46     		.byte	0x87
 1517 0072 80BC     		.uleb128 0x1
 1518 0074 7047     		.byte	0x4
 1519              		.4byte	.LCFI1-.LCFI0
 1520              		.byte	0xd
 1521 0076 C046     		.uleb128 0x7
 1522              		.align	2
 1523 0004 00       	.LEFDE0:
 1524              	.LSFDE2:
 1525 0005 00       		.4byte	.LEFDE2-.LASFDE2
ARM GAS  C:\Users\blinky\AppData\Local\Temp/ccaubaaa.s 			page 46


 1526 0006 0000     	.LASFDE2:
 1527              		.4byte	.Lframe0
 1528 0000 0C000000 		.4byte	.LFB3
 1529              		.4byte	.LFE3-.LFB3
 1530 0004 FFFFFFFF 		.byte	0x4
 1531 0008 01       		.4byte	.LCFI2-.LFB3
 1532 0009 00       		.byte	0xe
 1533 000a 01       		.uleb128 0x4
 1534 000b 7C       		.byte	0x87
 1535 000c 0E       		.uleb128 0x1
 1536 000d 0C       		.byte	0x4
 1537 000e 0D       		.4byte	.LCFI3-.LCFI2
 1538 000f 00       		.byte	0xd
 1539              		.uleb128 0x7
 1540              		.align	2
 1541              	.LEFDE2:
 1542 0010 14000000 	.LSFDE4:
 1543              		.4byte	.LEFDE4-.LASFDE4
 1544 0014 00000000 	.LASFDE4:
 1545 0018 00000000 		.4byte	.Lframe0
 1546 001c 0A000000 		.4byte	.LFB4
 1547 0020 42       		.4byte	.LFE4-.LFB4
 1548              		.byte	0x4
 1549 0021 0E       		.4byte	.LCFI4-.LFB4
 1550 0022 04       		.byte	0xe
 1551 0023 87       		.uleb128 0x4
 1552 0024 01       		.byte	0x4
 1553 0025 42       		.4byte	.LCFI5-.LCFI4
 1554              		.byte	0xe
 1555 0026 0D       		.uleb128 0x10
 1556 0027 07       		.byte	0x87
 1557              		.uleb128 0x1
 1558              		.byte	0x4
 1559              		.4byte	.LCFI6-.LCFI5
 1560 0028 14000000 		.byte	0xd
 1561              		.uleb128 0x7
 1562 002c 00000000 		.align	2
 1563 0030 00000000 	.LEFDE4:
 1564 0034 0A000000 	.LSFDE6:
 1565 0038 42       		.4byte	.LEFDE6-.LASFDE6
 1566              	.LASFDE6:
 1567 0039 0E       		.4byte	.Lframe0
 1568 003a 04       		.4byte	.LFB5
 1569 003b 87       		.4byte	.LFE5-.LFB5
 1570 003c 01       		.byte	0x4
 1571 003d 42       		.4byte	.LCFI7-.LFB5
 1572              		.byte	0xe
 1573 003e 0D       		.uleb128 0x4
 1574 003f 07       		.byte	0x87
 1575              		.uleb128 0x1
 1576              		.byte	0x4
 1577              		.4byte	.LCFI8-.LCFI7
 1578 0040 18000000 		.byte	0xd
 1579              		.uleb128 0x7
 1580 0044 00000000 		.align	2
 1581 0048 00000000 	.LEFDE6:
 1582 004c 6C000000 	.LSFDE8:
ARM GAS  C:\Users\blinky\AppData\Local\Temp/ccaubaaa.s 			page 47


 1583 0050 42       		.4byte	.LEFDE8-.LASFDE8
 1584              	.LASFDE8:
 1585 0051 0E       		.4byte	.Lframe0
 1586 0052 04       		.4byte	.LFB6
 1587 0053 42       		.4byte	.LFE6-.LFB6
 1588              		.byte	0x4
 1589 0054 0E       		.4byte	.LCFI9-.LFB6
 1590 0055 10       		.byte	0xe
 1591 0056 87       		.uleb128 0x4
 1592 0057 01       		.byte	0x4
 1593 0058 42       		.4byte	.LCFI10-.LCFI9
 1594              		.byte	0xe
 1595 0059 0D       		.uleb128 0x10
 1596 005a 07       		.byte	0x87
 1597 005b 00       		.uleb128 0x1
 1598              		.byte	0x4
 1599              		.4byte	.LCFI11-.LCFI10
 1600 005c 14000000 		.byte	0xd
 1601              		.uleb128 0x7
 1602 0060 00000000 		.align	2
 1603 0064 00000000 	.LEFDE8:
 1604 0068 1C000000 	.LSFDE10:
 1605 006c 42       		.4byte	.LEFDE10-.LASFDE10
 1606              	.LASFDE10:
 1607 006d 0E       		.4byte	.Lframe0
 1608 006e 04       		.4byte	.LFB7
 1609 006f 87       		.4byte	.LFE7-.LFB7
 1610 0070 01       		.byte	0x4
 1611 0071 42       		.4byte	.LCFI12-.LFB7
 1612              		.byte	0xe
 1613 0072 0D       		.uleb128 0x4
 1614 0073 07       		.byte	0x87
 1615              		.uleb128 0x1
 1616              		.byte	0x4
 1617              		.4byte	.LCFI13-.LCFI12
 1618 0074 18000000 		.byte	0xd
 1619              		.uleb128 0x7
 1620 0078 00000000 		.align	2
 1621 007c 00000000 	.LEFDE10:
 1622 0080 24000000 	.LSFDE12:
 1623 0084 42       		.4byte	.LEFDE12-.LASFDE12
 1624              	.LASFDE12:
 1625 0085 0E       		.4byte	.Lframe0
 1626 0086 04       		.4byte	.LFB8
 1627 0087 42       		.4byte	.LFE8-.LFB8
 1628              		.byte	0x4
 1629 0088 0E       		.4byte	.LCFI14-.LFB8
 1630 0089 10       		.byte	0xe
 1631 008a 87       		.uleb128 0x8
 1632 008b 01       		.byte	0x4
 1633 008c 42       		.4byte	.LCFI15-.LCFI14
 1634              		.byte	0xe
 1635 008d 0D       		.uleb128 0x10
 1636 008e 07       		.byte	0x8e
 1637 008f 00       		.uleb128 0x1
 1638              		.byte	0x87
 1639              		.uleb128 0x2
ARM GAS  C:\Users\blinky\AppData\Local\Temp/ccaubaaa.s 			page 48


 1640 0090 14000000 		.byte	0x4
 1641              		.4byte	.LCFI16-.LCFI15
 1642 0094 00000000 		.byte	0xd
 1643 0098 00000000 		.uleb128 0x7
 1644 009c 14000000 		.align	2
 1645 00a0 42       	.LEFDE12:
 1646              	.LSFDE14:
 1647 00a1 0E       		.4byte	.LEFDE14-.LASFDE14
 1648 00a2 04       	.LASFDE14:
 1649 00a3 87       		.4byte	.Lframe0
 1650 00a4 01       		.4byte	.LFB9
 1651 00a5 42       		.4byte	.LFE9-.LFB9
 1652              		.byte	0x4
 1653 00a6 0D       		.4byte	.LCFI17-.LFB9
 1654 00a7 07       		.byte	0xe
 1655              		.uleb128 0x8
 1656              		.byte	0x4
 1657              		.4byte	.LCFI18-.LCFI17
 1658 00a8 1C000000 		.byte	0xe
 1659              		.uleb128 0x18
 1660 00ac 00000000 		.byte	0x8e
 1661 00b0 00000000 		.uleb128 0x1
 1662 00b4 6C000000 		.byte	0x87
 1663 00b8 42       		.uleb128 0x2
 1664              		.byte	0x4
 1665 00b9 0E       		.4byte	.LCFI19-.LCFI18
 1666 00ba 08       		.byte	0xd
 1667 00bb 42       		.uleb128 0x7
 1668              		.align	2
 1669 00bc 0E       	.LEFDE14:
 1670 00bd 10       	.LSFDE16:
 1671 00be 8E       		.4byte	.LEFDE16-.LASFDE16
 1672 00bf 01       	.LASFDE16:
 1673 00c0 87       		.4byte	.Lframe0
 1674 00c1 02       		.4byte	.LFB10
 1675 00c2 42       		.4byte	.LFE10-.LFB10
 1676              		.byte	0x4
 1677 00c3 0D       		.4byte	.LCFI20-.LFB10
 1678 00c4 07       		.byte	0xe
 1679 00c5 000000   		.uleb128 0x4
 1680              		.byte	0x4
 1681              		.4byte	.LCFI21-.LCFI20
 1682 00c8 1C000000 		.byte	0xe
 1683              		.uleb128 0x20
 1684 00cc 00000000 		.byte	0x87
 1685 00d0 00000000 		.uleb128 0x1
 1686 00d4 54000000 		.byte	0x4
 1687 00d8 42       		.4byte	.LCFI22-.LCFI21
 1688              		.byte	0xd
 1689 00d9 0E       		.uleb128 0x7
 1690 00da 08       		.align	2
 1691 00db 42       	.LEFDE16:
 1692              	.LSFDE18:
 1693 00dc 0E       		.4byte	.LEFDE18-.LASFDE18
 1694 00dd 18       	.LASFDE18:
 1695 00de 8E       		.4byte	.Lframe0
 1696 00df 01       		.4byte	.LFB11
ARM GAS  C:\Users\blinky\AppData\Local\Temp/ccaubaaa.s 			page 49


 1697 00e0 87       		.4byte	.LFE11-.LFB11
 1698 00e1 02       		.byte	0x4
 1699 00e2 42       		.4byte	.LCFI23-.LFB11
 1700              		.byte	0xe
 1701 00e3 0D       		.uleb128 0x4
 1702 00e4 07       		.byte	0x4
 1703 00e5 000000   		.4byte	.LCFI24-.LCFI23
 1704              		.byte	0xe
 1705              		.uleb128 0x18
 1706 00e8 18000000 		.byte	0x87
 1707              		.uleb128 0x1
 1708 00ec 00000000 		.byte	0x4
 1709 00f0 00000000 		.4byte	.LCFI25-.LCFI24
 1710 00f4 80000000 		.byte	0xd
 1711 00f8 42       		.uleb128 0x7
 1712              		.align	2
 1713 00f9 0E       	.LEFDE18:
 1714 00fa 04       	.LSFDE20:
 1715 00fb 42       		.4byte	.LEFDE20-.LASFDE20
 1716              	.LASFDE20:
 1717 00fc 0E       		.4byte	.Lframe0
 1718 00fd 20       		.4byte	.LFB12
 1719 00fe 87       		.4byte	.LFE12-.LFB12
 1720 00ff 01       		.byte	0x4
 1721 0100 42       		.4byte	.LCFI26-.LFB12
 1722              		.byte	0xe
 1723 0101 0D       		.uleb128 0x4
 1724 0102 07       		.byte	0x4
 1725 0103 00       		.4byte	.LCFI27-.LCFI26
 1726              		.byte	0xe
 1727              		.uleb128 0x18
 1728 0104 18000000 		.byte	0x87
 1729              		.uleb128 0x1
 1730 0108 00000000 		.byte	0x4
 1731 010c 00000000 		.4byte	.LCFI28-.LCFI27
 1732 0110 50000000 		.byte	0xd
 1733 0114 42       		.uleb128 0x7
 1734              		.align	2
 1735 0115 0E       	.LEFDE20:
 1736 0116 04       	.LSFDE22:
 1737 0117 42       		.4byte	.LEFDE22-.LASFDE22
 1738              	.LASFDE22:
 1739 0118 0E       		.4byte	.Lframe0
 1740 0119 18       		.4byte	.LFB13
 1741 011a 87       		.4byte	.LFE13-.LFB13
 1742 011b 01       		.byte	0x4
 1743 011c 42       		.4byte	.LCFI29-.LFB13
 1744              		.byte	0xe
 1745 011d 0D       		.uleb128 0x4
 1746 011e 07       		.byte	0x4
 1747 011f 00       		.4byte	.LCFI30-.LCFI29
 1748              		.byte	0xe
 1749              		.uleb128 0x18
 1750 0120 18000000 		.byte	0x87
 1751              		.uleb128 0x1
 1752 0124 00000000 		.byte	0x4
 1753 0128 00000000 		.4byte	.LCFI31-.LCFI30
ARM GAS  C:\Users\blinky\AppData\Local\Temp/ccaubaaa.s 			page 50


 1754 012c 6C000000 		.byte	0xd
 1755 0130 42       		.uleb128 0x7
 1756              		.align	2
 1757 0131 0E       	.LEFDE22:
 1758 0132 04       	.LSFDE24:
 1759 0133 42       		.4byte	.LEFDE24-.LASFDE24
 1760              	.LASFDE24:
 1761 0134 0E       		.4byte	.Lframe0
 1762 0135 18       		.4byte	.LFB14
 1763 0136 87       		.4byte	.LFE14-.LFB14
 1764 0137 01       		.byte	0x4
 1765 0138 42       		.4byte	.LCFI32-.LFB14
 1766              		.byte	0xe
 1767 0139 0D       		.uleb128 0x4
 1768 013a 07       		.byte	0x4
 1769 013b 00       		.4byte	.LCFI33-.LCFI32
 1770              		.byte	0xe
 1771              		.uleb128 0x18
 1772 013c 18000000 		.byte	0x87
 1773              		.uleb128 0x1
 1774 0140 00000000 		.byte	0x4
 1775 0144 00000000 		.4byte	.LCFI34-.LCFI33
 1776 0148 88000000 		.byte	0xd
 1777 014c 42       		.uleb128 0x7
 1778              		.align	2
 1779 014d 0E       	.LEFDE24:
 1780 014e 04       	.LSFDE26:
 1781 014f 42       		.4byte	.LEFDE26-.LASFDE26
 1782              	.LASFDE26:
 1783 0150 0E       		.4byte	.Lframe0
 1784 0151 18       		.4byte	.LFB15
 1785 0152 87       		.4byte	.LFE15-.LFB15
 1786 0153 01       		.byte	0x4
 1787 0154 42       		.4byte	.LCFI35-.LFB15
 1788              		.byte	0xe
 1789 0155 0D       		.uleb128 0x4
 1790 0156 07       		.byte	0x4
 1791 0157 00       		.4byte	.LCFI36-.LCFI35
 1792              		.byte	0xe
 1793              		.uleb128 0x18
 1794 0158 18000000 		.byte	0x87
 1795              		.uleb128 0x1
 1796 015c 00000000 		.byte	0x4
 1797 0160 00000000 		.4byte	.LCFI37-.LCFI36
 1798 0164 48000000 		.byte	0xd
 1799 0168 42       		.uleb128 0x7
 1800              		.align	2
 1801 0169 0E       	.LEFDE26:
 1802 016a 04       	.LSFDE28:
 1803 016b 42       		.4byte	.LEFDE28-.LASFDE28
 1804              	.LASFDE28:
 1805 016c 0E       		.4byte	.Lframe0
 1806 016d 18       		.4byte	.LFB16
 1807 016e 87       		.4byte	.LFE16-.LFB16
 1808 016f 01       		.byte	0x4
 1809 0170 42       		.4byte	.LCFI38-.LFB16
 1810              		.byte	0xe
ARM GAS  C:\Users\blinky\AppData\Local\Temp/ccaubaaa.s 			page 51


 1811 0171 0D       		.uleb128 0x4
 1812 0172 07       		.byte	0x4
 1813 0173 00       		.4byte	.LCFI39-.LCFI38
 1814              		.byte	0xe
 1815              		.uleb128 0x18
 1816 0174 18000000 		.byte	0x87
 1817              		.uleb128 0x1
 1818 0178 00000000 		.byte	0x4
 1819 017c 00000000 		.4byte	.LCFI40-.LCFI39
 1820 0180 58000000 		.byte	0xd
 1821 0184 42       		.uleb128 0x7
 1822              		.align	2
 1823 0185 0E       	.LEFDE28:
 1824 0186 04       	.LSFDE30:
 1825 0187 42       		.4byte	.LEFDE30-.LASFDE30
 1826              	.LASFDE30:
 1827 0188 0E       		.4byte	.Lframe0
 1828 0189 18       		.4byte	.LFB17
 1829 018a 87       		.4byte	.LFE17-.LFB17
 1830 018b 01       		.byte	0x4
 1831 018c 42       		.4byte	.LCFI41-.LFB17
 1832              		.byte	0xe
 1833 018d 0D       		.uleb128 0x4
 1834 018e 07       		.byte	0x4
 1835 018f 00       		.4byte	.LCFI42-.LCFI41
 1836              		.byte	0xe
 1837              		.uleb128 0x20
 1838 0190 18000000 		.byte	0x87
 1839              		.uleb128 0x1
 1840 0194 00000000 		.byte	0x4
 1841 0198 00000000 		.4byte	.LCFI43-.LCFI42
 1842 019c 40000000 		.byte	0xd
 1843 01a0 42       		.uleb128 0x7
 1844              		.align	2
 1845 01a1 0E       	.LEFDE30:
 1846 01a2 04       	.LSFDE32:
 1847 01a3 42       		.4byte	.LEFDE32-.LASFDE32
 1848              	.LASFDE32:
 1849 01a4 0E       		.4byte	.Lframe0
 1850 01a5 18       		.4byte	.LFB18
 1851 01a6 87       		.4byte	.LFE18-.LFB18
 1852 01a7 01       		.byte	0x4
 1853 01a8 42       		.4byte	.LCFI44-.LFB18
 1854              		.byte	0xe
 1855 01a9 0D       		.uleb128 0x8
 1856 01aa 07       		.byte	0x4
 1857 01ab 00       		.4byte	.LCFI45-.LCFI44
 1858              		.byte	0xe
 1859              		.uleb128 0x18
 1860 01ac 18000000 		.byte	0x87
 1861              		.uleb128 0x1
 1862 01b0 00000000 		.byte	0x84
 1863 01b4 00000000 		.uleb128 0x2
 1864 01b8 68000000 		.byte	0x4
 1865 01bc 42       		.4byte	.LCFI46-.LCFI45
 1866              		.byte	0xd
 1867 01bd 0E       		.uleb128 0x7
ARM GAS  C:\Users\blinky\AppData\Local\Temp/ccaubaaa.s 			page 52


 1868 01be 04       		.align	2
 1869 01bf 42       	.LEFDE32:
 1870              	.LSFDE34:
 1871 01c0 0E       		.4byte	.LEFDE34-.LASFDE34
 1872 01c1 20       	.LASFDE34:
 1873 01c2 87       		.4byte	.Lframe0
 1874 01c3 01       		.4byte	.LFB19
 1875 01c4 42       		.4byte	.LFE19-.LFB19
 1876              		.byte	0x4
 1877 01c5 0D       		.4byte	.LCFI47-.LFB19
 1878 01c6 07       		.byte	0xe
 1879 01c7 00       		.uleb128 0x8
 1880              		.byte	0x4
 1881              		.4byte	.LCFI48-.LCFI47
 1882 01c8 1C000000 		.byte	0xe
 1883              		.uleb128 0x10
 1884 01cc 00000000 		.byte	0x8e
 1885 01d0 00000000 		.uleb128 0x1
 1886 01d4 B0000000 		.byte	0x87
 1887 01d8 42       		.uleb128 0x2
 1888              		.byte	0x4
 1889 01d9 0E       		.4byte	.LCFI49-.LCFI48
 1890 01da 08       		.byte	0xd
 1891 01db 42       		.uleb128 0x7
 1892              		.align	2
 1893 01dc 0E       	.LEFDE34:
 1894 01dd 18       	.LSFDE36:
 1895 01de 87       		.4byte	.LEFDE36-.LASFDE36
 1896 01df 01       	.LASFDE36:
 1897 01e0 84       		.4byte	.Lframe0
 1898 01e1 02       		.4byte	.LFB20
 1899 01e2 42       		.4byte	.LFE20-.LFB20
 1900              		.byte	0x4
 1901 01e3 0D       		.4byte	.LCFI50-.LFB20
 1902 01e4 07       		.byte	0xe
 1903 01e5 000000   		.uleb128 0x8
 1904              		.byte	0x4
 1905              		.4byte	.LCFI51-.LCFI50
 1906 01e8 1C000000 		.byte	0xe
 1907              		.uleb128 0x10
 1908 01ec 00000000 		.byte	0x8e
 1909 01f0 00000000 		.uleb128 0x1
 1910 01f4 5C000000 		.byte	0x87
 1911 01f8 42       		.uleb128 0x2
 1912              		.byte	0x4
 1913 01f9 0E       		.4byte	.LCFI52-.LCFI51
 1914 01fa 08       		.byte	0xd
 1915 01fb 42       		.uleb128 0x7
 1916              		.align	2
 1917 01fc 0E       	.LEFDE36:
 1918 01fd 10       	.LSFDE38:
 1919 01fe 8E       		.4byte	.LEFDE38-.LASFDE38
 1920 01ff 01       	.LASFDE38:
 1921 0200 87       		.4byte	.Lframe0
 1922 0201 02       		.4byte	.LFB21
 1923 0202 42       		.4byte	.LFE21-.LFB21
 1924              		.byte	0x4
ARM GAS  C:\Users\blinky\AppData\Local\Temp/ccaubaaa.s 			page 53


 1925 0203 0D       		.4byte	.LCFI53-.LFB21
 1926 0204 07       		.byte	0xe
 1927 0205 000000   		.uleb128 0x4
 1928              		.byte	0x4
 1929              		.4byte	.LCFI54-.LCFI53
 1930 0208 1C000000 		.byte	0xe
 1931              		.uleb128 0x10
 1932 020c 00000000 		.byte	0x87
 1933 0210 00000000 		.uleb128 0x1
 1934 0214 54000000 		.byte	0x4
 1935 0218 42       		.4byte	.LCFI55-.LCFI54
 1936              		.byte	0xd
 1937 0219 0E       		.uleb128 0x7
 1938 021a 08       		.align	2
 1939 021b 42       	.LEFDE38:
 1940              	.LSFDE40:
 1941 021c 0E       		.4byte	.LEFDE40-.LASFDE40
 1942 021d 10       	.LASFDE40:
 1943 021e 8E       		.4byte	.Lframe0
 1944 021f 01       		.4byte	.LFB22
 1945 0220 87       		.4byte	.LFE22-.LFB22
 1946 0221 02       		.byte	0x4
 1947 0222 42       		.4byte	.LCFI56-.LFB22
 1948              		.byte	0xe
 1949 0223 0D       		.uleb128 0x8
 1950 0224 07       		.byte	0x4
 1951 0225 000000   		.4byte	.LCFI57-.LCFI56
 1952              		.byte	0xe
 1953              		.uleb128 0x18
 1954 0228 18000000 		.byte	0x87
 1955              		.uleb128 0x1
 1956 022c 00000000 		.byte	0x84
 1957 0230 00000000 		.uleb128 0x2
 1958 0234 20000000 		.byte	0x4
 1959 0238 42       		.4byte	.LCFI58-.LCFI57
 1960              		.byte	0xd
 1961 0239 0E       		.uleb128 0x7
 1962 023a 04       		.align	2
 1963 023b 42       	.LEFDE40:
 1964              	.LSFDE42:
 1965 023c 0E       		.4byte	.LEFDE42-.LASFDE42
 1966 023d 10       	.LASFDE42:
 1967 023e 87       		.4byte	.Lframe0
 1968 023f 01       		.4byte	.LFB23
 1969 0240 42       		.4byte	.LFE23-.LFB23
 1970              		.byte	0x4
 1971 0241 0D       		.4byte	.LCFI59-.LFB23
 1972 0242 07       		.byte	0xe
 1973 0243 00       		.uleb128 0x4
 1974              		.byte	0x4
 1975              		.4byte	.LCFI60-.LCFI59
 1976 0244 1C000000 		.byte	0xe
 1977              		.uleb128 0x28
 1978 0248 00000000 		.byte	0x87
 1979 024c 00000000 		.uleb128 0x1
 1980 0250 7E000000 		.byte	0x4
 1981 0254 42       		.4byte	.LCFI61-.LCFI60
ARM GAS  C:\Users\blinky\AppData\Local\Temp/ccaubaaa.s 			page 54


 1982              		.byte	0xd
 1983 0255 0E       		.uleb128 0x7
 1984 0256 08       		.align	2
 1985 0257 42       	.LEFDE42:
 1986              	.LSFDE44:
 1987 0258 0E       		.4byte	.LEFDE44-.LASFDE44
 1988 0259 18       	.LASFDE44:
 1989 025a 87       		.4byte	.Lframe0
 1990 025b 01       		.4byte	.LFB24
 1991 025c 84       		.4byte	.LFE24-.LFB24
 1992 025d 02       		.byte	0x4
 1993 025e 42       		.4byte	.LCFI62-.LFB24
 1994              		.byte	0xe
 1995 025f 0D       		.uleb128 0x4
 1996 0260 07       		.byte	0x4
 1997 0261 000000   		.4byte	.LCFI63-.LCFI62
 1998              		.byte	0xe
 1999              		.uleb128 0x18
 2000 0264 18000000 		.byte	0x87
 2001              		.uleb128 0x1
 2002 0268 00000000 		.byte	0x4
 2003 026c 00000000 		.4byte	.LCFI64-.LCFI63
 2004 0270 96000000 		.byte	0xd
 2005 0274 42       		.uleb128 0x7
 2006              		.align	2
 2007 0275 0E       	.LEFDE44:
 2008 0276 04       	.LSFDE46:
 2009 0277 42       		.4byte	.LEFDE46-.LASFDE46
 2010              	.LASFDE46:
 2011 0278 0E       		.4byte	.Lframe0
 2012 0279 28       		.4byte	.LFB25
 2013 027a 87       		.4byte	.LFE25-.LFB25
 2014 027b 01       		.byte	0x4
 2015 027c 42       		.4byte	.LCFI65-.LFB25
 2016              		.byte	0xe
 2017 027d 0D       		.uleb128 0x4
 2018 027e 07       		.byte	0x4
 2019 027f 00       		.4byte	.LCFI66-.LCFI65
 2020              		.byte	0xe
 2021              		.uleb128 0x20
 2022 0280 18000000 		.byte	0x87
 2023              		.uleb128 0x1
 2024 0284 00000000 		.byte	0x4
 2025 0288 00000000 		.4byte	.LCFI67-.LCFI66
 2026 028c 6A000000 		.byte	0xd
 2027 0290 42       		.uleb128 0x7
 2028              		.align	2
 2029 0291 0E       	.LEFDE46:
 2030 0292 04       		.text
 2031 0293 42       	.Letext0: