ARM GAS  C:\Users\blinky\AppData\Local\Temp/cckHbaaa.s 			page 1


   1              		.syntax unified
   2              		.cpu cortex-m3
   3              		.fpu softvfp
   4              		.eabi_attribute 20, 1
   5              		.eabi_attribute 21, 1
   6              		.eabi_attribute 23, 3
   7              		.eabi_attribute 24, 1
   8              		.eabi_attribute 25, 1
   9              		.eabi_attribute 26, 1
  10              		.eabi_attribute 30, 6
  11              		.eabi_attribute 18, 4
  12              		.thumb
  13              		.file	"CyFlash.c"
  20 0000 04010000 		.text
  20      02004600 
  20      00000201 
  20      FB0E0D00 
  20      01010101 
  21              	.Ltext0:
  22              		.bss
  23              		.align	2
  24              	rowBuffer:
  25 0000 00000000 		.space	4
  26              		.section	.text.CySetTemp,"ax",%progbits
  27              		.align	2
  28              		.global	CySetTemp
  29              		.thumb
  30              		.thumb_func
  31              		.type	CySetTemp, %function
  32              	CySetTemp:
  33              	.LFB2:
  34              		.file 1 "./Generated_Source/PSoC5/CyFlash.c"
   1:./Generated_Source/PSoC5/CyFlash.c **** /*******************************************************************************
   2:./Generated_Source/PSoC5/CyFlash.c **** * File Name: CyFlash.c  
   3:./Generated_Source/PSoC5/CyFlash.c **** * Version 1.40
   4:./Generated_Source/PSoC5/CyFlash.c **** *
   5:./Generated_Source/PSoC5/CyFlash.c **** *  Description:
   6:./Generated_Source/PSoC5/CyFlash.c **** *   Provides an API for the FLASH/EEPROM.
   7:./Generated_Source/PSoC5/CyFlash.c **** *
   8:./Generated_Source/PSoC5/CyFlash.c **** *  Note:
   9:./Generated_Source/PSoC5/CyFlash.c **** *   This code is endian agnostic.
  10:./Generated_Source/PSoC5/CyFlash.c **** *
  11:./Generated_Source/PSoC5/CyFlash.c **** *  Note: 
  12:./Generated_Source/PSoC5/CyFlash.c **** *   Documentation of the API's in this file is located in the
  13:./Generated_Source/PSoC5/CyFlash.c **** *   System Reference Guide provided with PSoC Creator.
  14:./Generated_Source/PSoC5/CyFlash.c **** *
  15:./Generated_Source/PSoC5/CyFlash.c **** *******************************************************************************
  16:./Generated_Source/PSoC5/CyFlash.c **** * Copyright 2008-2009, Cypress Semiconductor Corporation.  All rights reserved.
  17:./Generated_Source/PSoC5/CyFlash.c **** * You may use this file only in accordance with the license, terms, conditions, 
  18:./Generated_Source/PSoC5/CyFlash.c **** * disclaimers, and limitations in the end user license agreement accompanying 
  19:./Generated_Source/PSoC5/CyFlash.c **** * the software package with which this file was provided.
ARM GAS  C:\Users\blinky\AppData\Local\Temp/cckHbaaa.s 			page 2


  20:./Generated_Source/PSoC5/CyFlash.c **** ********************************************************************************/
  21:./Generated_Source/PSoC5/CyFlash.c **** 
  22:./Generated_Source/PSoC5/CyFlash.c **** 
  23:./Generated_Source/PSoC5/CyFlash.c **** 
  24:./Generated_Source/PSoC5/CyFlash.c **** #include <Cydevice_trm.h>
  25:./Generated_Source/PSoC5/CyFlash.c **** #include "CYFLASH.H"
  26:./Generated_Source/PSoC5/CyFlash.c **** 
  27:./Generated_Source/PSoC5/CyFlash.c **** 
  28:./Generated_Source/PSoC5/CyFlash.c **** #if !defined(CYDEV_FLS_BASE)
  29:./Generated_Source/PSoC5/CyFlash.c **** 
  30:./Generated_Source/PSoC5/CyFlash.c **** #define CYDEV_FLS_BASE          0
  31:./Generated_Source/PSoC5/CyFlash.c **** 
  32:./Generated_Source/PSoC5/CyFlash.c **** #endif
  33:./Generated_Source/PSoC5/CyFlash.c **** 
  34:./Generated_Source/PSoC5/CyFlash.c **** #define ECC_ADDR                0x80u
  35:./Generated_Source/PSoC5/CyFlash.c **** #define PM_ACT_EEFLASH          ((reg8 *) CYDEV_PM_ACT_CFG0)
  36:./Generated_Source/PSoC5/CyFlash.c **** #define PM_STBY_EEFLASH         ((reg8 *) CYDEV_PM_STBY_CFG0)
  37:./Generated_Source/PSoC5/CyFlash.c **** #define PM_FLASH_EE_MASK        0x80u
  38:./Generated_Source/PSoC5/CyFlash.c **** 
  39:./Generated_Source/PSoC5/CyFlash.c **** /* Default values for getting temperature. */
  40:./Generated_Source/PSoC5/CyFlash.c **** #define TEMP_NUMBER_OF_SAMPLES  0x1u
  41:./Generated_Source/PSoC5/CyFlash.c **** #define TEMP_TIMER_PERIOD       0xFFFu
  42:./Generated_Source/PSoC5/CyFlash.c **** #define TEMP_CLK_DIV_SELECT     0x4u
  43:./Generated_Source/PSoC5/CyFlash.c **** #define NUM_SAMPLES             (1 << (TEMP_NUMBER_OF_SAMPLES))
  44:./Generated_Source/PSoC5/CyFlash.c **** #define SPC_CLK_PERIOD          120 /* nano sec. */
  45:./Generated_Source/PSoC5/CyFlash.c **** #define CY_SYS_ns_PER_TICK      1000
  46:./Generated_Source/PSoC5/CyFlash.c **** #define FRM_EXEC_TIME           (1000) /* In nano seconds. */
  47:./Generated_Source/PSoC5/CyFlash.c **** #define GET_TEMP_TIME           (1 << (NUM_SAMPLES + 1)) * \
  48:./Generated_Source/PSoC5/CyFlash.c ****                                 (SPC_CLK_PERIOD * TEMP_CLK_DIV_SELECT) * \
  49:./Generated_Source/PSoC5/CyFlash.c ****                                 TEMP_TIMER_PERIOD + \
  50:./Generated_Source/PSoC5/CyFlash.c ****                                 FRM_EXEC_TIME
  51:./Generated_Source/PSoC5/CyFlash.c **** #define TEMP_MAX_WAIT           ((GET_TEMP_TIME  ) / CY_SYS_ns_PER_TICK) /* In system ticks. */
  52:./Generated_Source/PSoC5/CyFlash.c **** #define WHILE_TEST(t)           {register uint8 timeOut; for(timeOut = 0xFF; (t) && timeOut; timeOu
  53:./Generated_Source/PSoC5/CyFlash.c **** 
  54:./Generated_Source/PSoC5/CyFlash.c **** 
  55:./Generated_Source/PSoC5/CyFlash.c **** uint8 dieTemperature[2];
  56:./Generated_Source/PSoC5/CyFlash.c **** 
  57:./Generated_Source/PSoC5/CyFlash.c **** #if (CYDEV_ECC_ENABLE == 0)
  58:./Generated_Source/PSoC5/CyFlash.c ****     static uint8 * rowBuffer = 0;
  59:./Generated_Source/PSoC5/CyFlash.c **** #endif
  60:./Generated_Source/PSoC5/CyFlash.c **** 
  61:./Generated_Source/PSoC5/CyFlash.c **** /*******************************************************************************
  62:./Generated_Source/PSoC5/CyFlash.c **** * Function Name: CySetTemp
  63:./Generated_Source/PSoC5/CyFlash.c **** ********************************************************************************
  64:./Generated_Source/PSoC5/CyFlash.c **** * Summary:
  65:./Generated_Source/PSoC5/CyFlash.c **** *   Sends a command to the SPC to read the die temperature. Sets a global value
  66:./Generated_Source/PSoC5/CyFlash.c **** *   used by the Write functions.
  67:./Generated_Source/PSoC5/CyFlash.c **** *
  68:./Generated_Source/PSoC5/CyFlash.c **** *
  69:./Generated_Source/PSoC5/CyFlash.c **** * Parameters:
  70:./Generated_Source/PSoC5/CyFlash.c **** *   void:
  71:./Generated_Source/PSoC5/CyFlash.c **** *
  72:./Generated_Source/PSoC5/CyFlash.c **** *   
  73:./Generated_Source/PSoC5/CyFlash.c **** * Return:
  74:./Generated_Source/PSoC5/CyFlash.c **** *   CYRET_UNKNOWN if there was an SPC error.
  75:./Generated_Source/PSoC5/CyFlash.c **** *   The first byte is the sign of the temperature (0 = negative, 1 = positive).
  76:./Generated_Source/PSoC5/CyFlash.c **** *   The second byte is the magnitude.
ARM GAS  C:\Users\blinky\AppData\Local\Temp/cckHbaaa.s 			page 3


  77:./Generated_Source/PSoC5/CyFlash.c **** *
  78:./Generated_Source/PSoC5/CyFlash.c **** *******************************************************************************/
  79:./Generated_Source/PSoC5/CyFlash.c **** cystatus CySetTemp(void)
  80:./Generated_Source/PSoC5/CyFlash.c **** {
  35              	= 0, frame = 8
  36              		@ frame_needed = 1, uses_anonymous_args = 0
  37              		push	{r7, lr}
  38 0000 80B5     	.LCFI0:
  39              		sub	sp, sp, #8
  40 0002 82B0     	.LCFI1:
  41              		add	r7, sp, #0
  42 0004 00AF     	.LCFI2:
  43              		.loc 1 86 0
  81:./Generated_Source/PSoC5/CyFlash.c ****     uint8 ticks;
  82:./Generated_Source/PSoC5/CyFlash.c ****     cystatus status;
  83:./Generated_Source/PSoC5/CyFlash.c **** 
  84:./Generated_Source/PSoC5/CyFlash.c **** 
  85:./Generated_Source/PSoC5/CyFlash.c ****     /* Make sure SPC is powerd. */
  86:./Generated_Source/PSoC5/CyFlash.c ****     CySpcActivePower(1);
  44              	#1
  45 0006 4FF00100 		bl	CySpcActivePower
  46 000a FFF7FEFF 		.loc 1 89 0
  87:./Generated_Source/PSoC5/CyFlash.c **** 
  88:./Generated_Source/PSoC5/CyFlash.c ****     /* Plan for failure. */
  89:./Generated_Source/PSoC5/CyFlash.c ****     status = CYRET_UNKNOWN;
  47              	v	r3, #-1
  48 000e 4FF0FF33 		str	r3, [r7, #4]
  49 0012 7B60     		.loc 1 92 0
  90:./Generated_Source/PSoC5/CyFlash.c **** 
  91:./Generated_Source/PSoC5/CyFlash.c ****     /* See if we can get the SPC. */
  92:./Generated_Source/PSoC5/CyFlash.c ****     if(CySpcLock() == CYRET_SUCCESS)
  50              		CySpcLock
  51 0014 FFF7FEFF 		mov	r3, r0
  52 0018 0346     		cmp	r3, #0
  53 001a 002B     		bne	.L2
  54 001c 37D1     		.loc 1 95 0
  93:./Generated_Source/PSoC5/CyFlash.c ****     {
  94:./Generated_Source/PSoC5/CyFlash.c ****         /* Create the command. */
  95:./Generated_Source/PSoC5/CyFlash.c ****         if(CySpcCreateCmdGetTemp(TEMP_NUMBER_OF_SAMPLES, TEMP_TIMER_PERIOD, TEMP_CLK_DIV_SELECT) ==
  55              	r0, #1
  56 001e 4FF00100 		movw	r1, #4095
  57 0022 40F6FF71 		mov	r2, #4
  58 0026 4FF00402 		bl	CySpcCreateCmdGetTemp
  59 002a FFF7FEFF 		mov	r3, r0
  60 002e 0346     		cmp	r3, #0
  61 0030 002B     		bne	.L4
  62 0032 29D1     		.loc 1 98 0
  96:./Generated_Source/PSoC5/CyFlash.c ****         {
  97:./Generated_Source/PSoC5/CyFlash.c ****             /* Write the command. */
  98:./Generated_Source/PSoC5/CyFlash.c ****             if(CySpcWriteCommand(0, 0) == CYRET_STARTED)
  63              	 #0
  64 0034 4FF00000 		mov	r1, #0
  65 0038 4FF00001 		bl	CySpcWriteCommand
  66 003c FFF7FEFF 		mov	r3, r0
  67 0040 0346     		cmp	r3, #7
  68 0042 072B     		bne	.L4
  69 0044 20D1     		.loc 1 100 0
ARM GAS  C:\Users\blinky\AppData\Local\Temp/cckHbaaa.s 			page 4


  99:./Generated_Source/PSoC5/CyFlash.c ****             {
 100:./Generated_Source/PSoC5/CyFlash.c ****                 ticks = (uint8) TEMP_MAX_WAIT;
  70              	, #109
  71 0046 4FF06D03 		strb	r3, [r7, #3]
  72 004a FB70     	.L7:
  73              		.loc 1 104 0
 101:./Generated_Source/PSoC5/CyFlash.c **** 
 102:./Generated_Source/PSoC5/CyFlash.c ****                 do
 103:./Generated_Source/PSoC5/CyFlash.c ****                 {
 104:./Generated_Source/PSoC5/CyFlash.c ****                     if(CySpcReadData(dieTemperature, 2) == 2)
  74              		r0, .L13
  75 004c 1448     		mov	r1, #2
  76 004e 4FF00201 		bl	CySpcReadData
  77 0052 FFF7FEFF 		mov	r3, r0
  78 0056 0346     		cmp	r3, #2
  79 0058 022B     		bne	.L8
  80 005a 03D1     		.loc 1 106 0
 105:./Generated_Source/PSoC5/CyFlash.c ****                     {
 106:./Generated_Source/PSoC5/CyFlash.c ****                         status = CYRET_SUCCESS;
  81              	, #0
  82 005c 4FF00003 		str	r3, [r7, #4]
  83 0060 7B60     		.loc 1 107 0
 107:./Generated_Source/PSoC5/CyFlash.c ****                         break;
  84              	.L4
  85 0062 11E0     	.L8:
  86              		.loc 1 111 0
 108:./Generated_Source/PSoC5/CyFlash.c ****                     }
 109:./Generated_Source/PSoC5/CyFlash.c ****                     
 110:./Generated_Source/PSoC5/CyFlash.c ****                     /* Wait for the reading to come in. */
 111:./Generated_Source/PSoC5/CyFlash.c ****                     CyDelay(1);
  87              	v	r0, #1
  88 0064 4FF00100 		bl	CyDelay
  89 0068 FFF7FEFF 		.loc 1 112 0
 112:./Generated_Source/PSoC5/CyFlash.c ****                     ticks--;
  90              	rb	r3, [r7, #3]
  91 006c FB78     		add	r3, r3, #-1
  92 006e 03F1FF33 		strb	r3, [r7, #3]
  93 0072 FB70     		.loc 1 114 0
 113:./Generated_Source/PSoC5/CyFlash.c **** 
 114:./Generated_Source/PSoC5/CyFlash.c ****                 } while(ticks && !(*SPC_STATUS & SPC_SPC_IDLE));
  94              	b	r3, [r7, #3]	@ zero_extendqisi2
  95 0074 FB78     		cmp	r3, #0
  96 0076 002B     		beq	.L4
  97 0078 06D0     		ldr	r3, .L13+4
  98 007a 0A4B     		ldrb	r3, [r3, #0]
  99 007c 1B78     		uxtb	r3, r3
 100 007e DBB2     		and	r3, r3, #2
 101 0080 03F00203 		cmp	r3, #0
 102 0084 002B     		beq	.L7
 103 0086 E1D0     	.L4:
 104              		.loc 1 119 0
 115:./Generated_Source/PSoC5/CyFlash.c ****             }
 116:./Generated_Source/PSoC5/CyFlash.c ****         }
 117:./Generated_Source/PSoC5/CyFlash.c **** 
 118:./Generated_Source/PSoC5/CyFlash.c ****         /* Unlock the SPC so someone else can use it. */
 119:./Generated_Source/PSoC5/CyFlash.c ****         CySpcUnlock();
 105              	lock
ARM GAS  C:\Users\blinky\AppData\Local\Temp/cckHbaaa.s 			page 5


 106 0088 FFF7FEFF 		b	.L11
 107 008c 02E0     	.L2:
 108              		.loc 1 123 0
 120:./Generated_Source/PSoC5/CyFlash.c ****     }
 121:./Generated_Source/PSoC5/CyFlash.c ****     else
 122:./Generated_Source/PSoC5/CyFlash.c ****     {
 123:./Generated_Source/PSoC5/CyFlash.c ****         status = CYRET_LOCKED;
 109              		r3, #4
 110 008e 4FF00403 		str	r3, [r7, #4]
 111 0092 7B60     	.L11:
 112              		.loc 1 126 0
 124:./Generated_Source/PSoC5/CyFlash.c ****     }
 125:./Generated_Source/PSoC5/CyFlash.c **** 
 126:./Generated_Source/PSoC5/CyFlash.c ****     return status;
 113              		r3, [r7, #4]
 114 0094 7B68     		.loc 1 127 0
 127:./Generated_Source/PSoC5/CyFlash.c **** }
 115              	ov	r0, r3
 116 0096 1846     		add	r7, r7, #8
 117 0098 07F10807 		mov	sp, r7
 118 009c BD46     		pop	{r7, pc}
 119 009e 80BD     	.L14:
 120              		.align	2
 121              	.L13:
 122              		.word	dieTemperature
 123 00a0 00000000 		.word	1073760034
 124 00a4 22470040 	.LFE2:
 125              		.size	CySetTemp, .-CySetTemp
 126              		.section	.text.CySetFlashEEBuffer,"ax",%progbits
 127              		.align	2
 128              		.global	CySetFlashEEBuffer
 129              		.thumb
 130              		.thumb_func
 131              		.type	CySetFlashEEBuffer, %function
 132              	CySetFlashEEBuffer:
 133              	.LFB3:
 134              		.loc 1 150 0
 128:./Generated_Source/PSoC5/CyFlash.c **** 
 129:./Generated_Source/PSoC5/CyFlash.c **** 
 130:./Generated_Source/PSoC5/CyFlash.c **** /*******************************************************************************
 131:./Generated_Source/PSoC5/CyFlash.c **** * Function Name: CySetFlashEEBuffer
 132:./Generated_Source/PSoC5/CyFlash.c **** ********************************************************************************
 133:./Generated_Source/PSoC5/CyFlash.c **** * Summary:
 134:./Generated_Source/PSoC5/CyFlash.c **** *   Sets the user supplied temporary buffer to store SPC data while performing
 135:./Generated_Source/PSoC5/CyFlash.c **** *   flash and EEPROM commands.
 136:./Generated_Source/PSoC5/CyFlash.c **** *
 137:./Generated_Source/PSoC5/CyFlash.c **** *
 138:./Generated_Source/PSoC5/CyFlash.c **** * Parameters:
 139:./Generated_Source/PSoC5/CyFlash.c **** *   buffer:
 140:./Generated_Source/PSoC5/CyFlash.c **** *       Address of block of memory to store temporary memory. The size of the
 141:./Generated_Source/PSoC5/CyFlash.c **** *       block of memory is SIZEOF_FLASH_ROW + SIZEOF_ECC_ROW.
 142:./Generated_Source/PSoC5/CyFlash.c **** *   
 143:./Generated_Source/PSoC5/CyFlash.c **** * Return:
 144:./Generated_Source/PSoC5/CyFlash.c **** *   CYRET_SUCCESS if successful.
 145:./Generated_Source/PSoC5/CyFlash.c **** *   CYRET_LOCKED if the SPC is already in use.
 146:./Generated_Source/PSoC5/CyFlash.c **** *   CYRET_BAD_PARAM if the buffer is 0.
 147:./Generated_Source/PSoC5/CyFlash.c **** *
ARM GAS  C:\Users\blinky\AppData\Local\Temp/cckHbaaa.s 			page 6


 148:./Generated_Source/PSoC5/CyFlash.c **** *******************************************************************************/
 149:./Generated_Source/PSoC5/CyFlash.c **** cystatus CySetFlashEEBuffer(uint8 * buffer)
 150:./Generated_Source/PSoC5/CyFlash.c **** {
 135              	 = 0, frame = 16
 136              		@ frame_needed = 1, uses_anonymous_args = 0
 137              		push	{r7, lr}
 138 0000 80B5     	.LCFI3:
 139              		sub	sp, sp, #16
 140 0002 84B0     	.LCFI4:
 141              		add	r7, sp, #0
 142 0004 00AF     	.LCFI5:
 143              		str	r0, [r7, #4]
 144 0006 7860     		.loc 1 155 0
 151:./Generated_Source/PSoC5/CyFlash.c ****     cystatus status;
 152:./Generated_Source/PSoC5/CyFlash.c **** 
 153:./Generated_Source/PSoC5/CyFlash.c **** 
 154:./Generated_Source/PSoC5/CyFlash.c ****     /* Make sure SPC is powerd. */
 155:./Generated_Source/PSoC5/CyFlash.c ****     CySpcActivePower(1);
 145              	1
 146 0008 4FF00100 		bl	CySpcActivePower
 147 000c FFF7FEFF 		.loc 1 157 0
 156:./Generated_Source/PSoC5/CyFlash.c **** 
 157:./Generated_Source/PSoC5/CyFlash.c ****     if(!buffer)
 148              	r	r3, [r7, #4]
 149 0010 7B68     		cmp	r3, #0
 150 0012 002B     		bne	.L16
 151 0014 03D1     		.loc 1 159 0
 158:./Generated_Source/PSoC5/CyFlash.c ****     {
 159:./Generated_Source/PSoC5/CyFlash.c ****         status = CYRET_BAD_PARAM;
 152              		r3, #1
 153 0016 4FF00103 		str	r3, [r7, #12]
 154 001a FB60     		b	.L18
 155 001c 10E0     	.L16:
 156              		.loc 1 162 0
 160:./Generated_Source/PSoC5/CyFlash.c ****     }
 161:./Generated_Source/PSoC5/CyFlash.c ****     /* See if we can get the SPC. */
 162:./Generated_Source/PSoC5/CyFlash.c ****     else if(CySpcLock() != CYRET_SUCCESS)
 157              	ySpcLock
 158 001e FFF7FEFF 		mov	r3, r0
 159 0022 0346     		cmp	r3, #0
 160 0024 002B     		beq	.L19
 161 0026 03D0     		.loc 1 164 0
 163:./Generated_Source/PSoC5/CyFlash.c ****     {
 164:./Generated_Source/PSoC5/CyFlash.c ****         status = CYRET_LOCKED;
 162              	r3, #4
 163 0028 4FF00403 		str	r3, [r7, #12]
 164 002c FB60     		b	.L18
 165 002e 07E0     	.L19:
 166              		.loc 1 169 0
 165:./Generated_Source/PSoC5/CyFlash.c ****     }
 166:./Generated_Source/PSoC5/CyFlash.c ****     else
 167:./Generated_Source/PSoC5/CyFlash.c ****     {
 168:./Generated_Source/PSoC5/CyFlash.c **** 		#if (CYDEV_ECC_ENABLE == 0)
 169:./Generated_Source/PSoC5/CyFlash.c ****             rowBuffer = buffer;
 167              	r3, .L22
 168 0030 064B     		ldr	r2, [r7, #4]
 169 0032 7A68     		str	r2, [r3, #0]
ARM GAS  C:\Users\blinky\AppData\Local\Temp/cckHbaaa.s 			page 7


 170 0034 1A60     		.loc 1 171 0
 170:./Generated_Source/PSoC5/CyFlash.c ****         #endif
 171:./Generated_Source/PSoC5/CyFlash.c ****         status = CYRET_SUCCESS;
 171              		r3, #0
 172 0036 4FF00003 		str	r3, [r7, #12]
 173 003a FB60     		.loc 1 174 0
 172:./Generated_Source/PSoC5/CyFlash.c **** 
 173:./Generated_Source/PSoC5/CyFlash.c ****         /* Unlock the SPC so someone else can use it. */
 174:./Generated_Source/PSoC5/CyFlash.c ****         CySpcUnlock();
 174              		CySpcUnlock
 175 003c FFF7FEFF 	.L18:
 176              		.loc 1 177 0
 175:./Generated_Source/PSoC5/CyFlash.c ****     }
 176:./Generated_Source/PSoC5/CyFlash.c **** 
 177:./Generated_Source/PSoC5/CyFlash.c ****     return status;
 177              	r	r3, [r7, #12]
 178 0040 FB68     		.loc 1 178 0
 178:./Generated_Source/PSoC5/CyFlash.c **** }
 179              	ov	r0, r3
 180 0042 1846     		add	r7, r7, #16
 181 0044 07F11007 		mov	sp, r7
 182 0048 BD46     		pop	{r7, pc}
 183 004a 80BD     	.L23:
 184              		.align	2
 185              	.L22:
 186              		.word	rowBuffer
 187 004c 00000000 	.LFE3:
 188              		.size	CySetFlashEEBuffer, .-CySetFlashEEBuffer
 189              		.section	.text.CyWriteRowData,"ax",%progbits
 190              		.align	2
 191              		.global	CyWriteRowData
 192              		.thumb
 193              		.thumb_func
 194              		.type	CyWriteRowData, %function
 195              	CyWriteRowData:
 196              	.LFB4:
 197              		.loc 1 281 0
 179:./Generated_Source/PSoC5/CyFlash.c ****                       
 180:./Generated_Source/PSoC5/CyFlash.c **** #if (CYDEV_ECC_ENABLE == 1)
 181:./Generated_Source/PSoC5/CyFlash.c **** 
 182:./Generated_Source/PSoC5/CyFlash.c **** /*******************************************************************************
 183:./Generated_Source/PSoC5/CyFlash.c **** * Function Name: CyWriteRowData
 184:./Generated_Source/PSoC5/CyFlash.c **** ********************************************************************************
 185:./Generated_Source/PSoC5/CyFlash.c **** * Summary:
 186:./Generated_Source/PSoC5/CyFlash.c **** *   Sends a command to the SPC to load and program a row of data in flash.
 187:./Generated_Source/PSoC5/CyFlash.c **** *
 188:./Generated_Source/PSoC5/CyFlash.c **** *
 189:./Generated_Source/PSoC5/CyFlash.c **** * Parameters:
 190:./Generated_Source/PSoC5/CyFlash.c **** *   rowAddress:
 191:./Generated_Source/PSoC5/CyFlash.c **** *       rowAddress of flash row to program.
 192:./Generated_Source/PSoC5/CyFlash.c **** *
 193:./Generated_Source/PSoC5/CyFlash.c **** *   
 194:./Generated_Source/PSoC5/CyFlash.c **** * Return:
 195:./Generated_Source/PSoC5/CyFlash.c **** *   CYRET_SUCCESS if successful.
 196:./Generated_Source/PSoC5/CyFlash.c **** *   CYRET_LOCKED if the SPC is already in use.
 197:./Generated_Source/PSoC5/CyFlash.c **** *   CYRET_UNKNOWN if there was an SPC error.
 198:./Generated_Source/PSoC5/CyFlash.c **** *
ARM GAS  C:\Users\blinky\AppData\Local\Temp/cckHbaaa.s 			page 8


 199:./Generated_Source/PSoC5/CyFlash.c **** *
 200:./Generated_Source/PSoC5/CyFlash.c **** *******************************************************************************/
 201:./Generated_Source/PSoC5/CyFlash.c **** cystatus CyWriteRowData(uint8 arrayId, uint16 rowAddress, uint8 * rowData)
 202:./Generated_Source/PSoC5/CyFlash.c **** {
 203:./Generated_Source/PSoC5/CyFlash.c ****     uint16 rowSize;
 204:./Generated_Source/PSoC5/CyFlash.c ****     cystatus status;
 205:./Generated_Source/PSoC5/CyFlash.c **** 
 206:./Generated_Source/PSoC5/CyFlash.c **** 
 207:./Generated_Source/PSoC5/CyFlash.c ****     rowSize = (arrayId > LAST_FLASH_ARRAYID) ? SIZEOF_EEPROM_ROW : SIZEOF_FLASH_ROW;
 208:./Generated_Source/PSoC5/CyFlash.c **** 
 209:./Generated_Source/PSoC5/CyFlash.c ****     /* See if we can get the SPC. */
 210:./Generated_Source/PSoC5/CyFlash.c ****     if(CySpcLock() == CYRET_SUCCESS)
 211:./Generated_Source/PSoC5/CyFlash.c ****     {
 212:./Generated_Source/PSoC5/CyFlash.c ****         /* Create the command. */
 213:./Generated_Source/PSoC5/CyFlash.c ****         status = CySpcCreateCmdLoadRow(arrayId);
 214:./Generated_Source/PSoC5/CyFlash.c ****         if(status == CYRET_SUCCESS)
 215:./Generated_Source/PSoC5/CyFlash.c ****         {
 216:./Generated_Source/PSoC5/CyFlash.c ****             /* Write the command. */
 217:./Generated_Source/PSoC5/CyFlash.c ****             status = CySpcWriteCommand(rowData, rowSize);
 218:./Generated_Source/PSoC5/CyFlash.c ****             if(status == CYRET_STARTED)
 219:./Generated_Source/PSoC5/CyFlash.c ****             {
 220:./Generated_Source/PSoC5/CyFlash.c ****                 /* Spin until completion. */
 221:./Generated_Source/PSoC5/CyFlash.c ****                 WHILE_TEST(!(*SPC_STATUS & SPC_SPC_IDLE));
 222:./Generated_Source/PSoC5/CyFlash.c **** 
 223:./Generated_Source/PSoC5/CyFlash.c ****                 /* See if we were successful. */
 224:./Generated_Source/PSoC5/CyFlash.c ****                 status = CySpcReadStatus;
 225:./Generated_Source/PSoC5/CyFlash.c ****             }
 226:./Generated_Source/PSoC5/CyFlash.c ****         }
 227:./Generated_Source/PSoC5/CyFlash.c **** 
 228:./Generated_Source/PSoC5/CyFlash.c ****         /* Create the command. */
 229:./Generated_Source/PSoC5/CyFlash.c ****         if(status == CYRET_SUCCESS)
 230:./Generated_Source/PSoC5/CyFlash.c ****         {
 231:./Generated_Source/PSoC5/CyFlash.c ****             status = CySpcCreateCmdWriteRow(arrayId, rowAddress, dieTemperature[0], dieTemperature[
 232:./Generated_Source/PSoC5/CyFlash.c ****             if(status == CYRET_SUCCESS)
 233:./Generated_Source/PSoC5/CyFlash.c ****             {
 234:./Generated_Source/PSoC5/CyFlash.c ****                 /* Write the command. */
 235:./Generated_Source/PSoC5/CyFlash.c ****                 if(CySpcWriteCommand(0, 0) == CYRET_STARTED)
 236:./Generated_Source/PSoC5/CyFlash.c ****                 {
 237:./Generated_Source/PSoC5/CyFlash.c ****                     /* Spin until completion. */
 238:./Generated_Source/PSoC5/CyFlash.c ****                     WHILE_TEST(!(*SPC_STATUS & SPC_SPC_IDLE));
 239:./Generated_Source/PSoC5/CyFlash.c **** 
 240:./Generated_Source/PSoC5/CyFlash.c ****                     /* See if we were successful. */
 241:./Generated_Source/PSoC5/CyFlash.c ****                     status = CySpcReadStatus;
 242:./Generated_Source/PSoC5/CyFlash.c ****                 }
 243:./Generated_Source/PSoC5/CyFlash.c ****             }
 244:./Generated_Source/PSoC5/CyFlash.c ****         }
 245:./Generated_Source/PSoC5/CyFlash.c **** 
 246:./Generated_Source/PSoC5/CyFlash.c ****         /* Unlock the SPC so someone else can use it. */
 247:./Generated_Source/PSoC5/CyFlash.c ****         CySpcUnlock();
 248:./Generated_Source/PSoC5/CyFlash.c ****     }
 249:./Generated_Source/PSoC5/CyFlash.c ****     else
 250:./Generated_Source/PSoC5/CyFlash.c ****     {
 251:./Generated_Source/PSoC5/CyFlash.c ****         status = CYRET_LOCKED;
 252:./Generated_Source/PSoC5/CyFlash.c ****     }
 253:./Generated_Source/PSoC5/CyFlash.c **** 
 254:./Generated_Source/PSoC5/CyFlash.c ****     return status;
 255:./Generated_Source/PSoC5/CyFlash.c **** }
ARM GAS  C:\Users\blinky\AppData\Local\Temp/cckHbaaa.s 			page 9


 256:./Generated_Source/PSoC5/CyFlash.c **** 
 257:./Generated_Source/PSoC5/CyFlash.c **** #else
 258:./Generated_Source/PSoC5/CyFlash.c **** /* CYDEV_ECC_ENABLE == 0 */
 259:./Generated_Source/PSoC5/CyFlash.c **** 
 260:./Generated_Source/PSoC5/CyFlash.c **** 
 261:./Generated_Source/PSoC5/CyFlash.c **** /*******************************************************************************
 262:./Generated_Source/PSoC5/CyFlash.c **** * Function Name: CyWriteRowData
 263:./Generated_Source/PSoC5/CyFlash.c **** ********************************************************************************
 264:./Generated_Source/PSoC5/CyFlash.c **** * Summary:
 265:./Generated_Source/PSoC5/CyFlash.c **** *   Sends a command to the SPC to load and program a row of data in flash.
 266:./Generated_Source/PSoC5/CyFlash.c **** *
 267:./Generated_Source/PSoC5/CyFlash.c **** *
 268:./Generated_Source/PSoC5/CyFlash.c **** * Parameters:
 269:./Generated_Source/PSoC5/CyFlash.c **** *   rowAddress:
 270:./Generated_Source/PSoC5/CyFlash.c **** *       rowAddress of flash row to program.
 271:./Generated_Source/PSoC5/CyFlash.c **** *
 272:./Generated_Source/PSoC5/CyFlash.c **** *   
 273:./Generated_Source/PSoC5/CyFlash.c **** * Return:
 274:./Generated_Source/PSoC5/CyFlash.c **** *   CYRET_SUCCESS if successful.
 275:./Generated_Source/PSoC5/CyFlash.c **** *   CYRET_LOCKED if the SPC is already in use.
 276:./Generated_Source/PSoC5/CyFlash.c **** *   CYRET_UNKNOWN if there was an SPC error.
 277:./Generated_Source/PSoC5/CyFlash.c **** *
 278:./Generated_Source/PSoC5/CyFlash.c **** *
 279:./Generated_Source/PSoC5/CyFlash.c **** *******************************************************************************/
 280:./Generated_Source/PSoC5/CyFlash.c **** cystatus CyWriteRowData(uint8 arrayId, uint16 rowAddress, uint8 * rowData)
 281:./Generated_Source/PSoC5/CyFlash.c **** {
 198              	d = 0, frame = 40
 199              		@ frame_needed = 1, uses_anonymous_args = 0
 200              		push	{r4, r5, r7, lr}
 201 0000 B0B5     	.LCFI6:
 202              		sub	sp, sp, #40
 203 0002 8AB0     	.LCFI7:
 204              		add	r7, sp, #0
 205 0004 00AF     	.LCFI8:
 206              		mov	r3, r0
 207 0006 0346     		str	r2, [r7, #16]
 208 0008 3A61     		strb	r3, [r7, #23]
 209 000a FB75     		mov	r3, r1	@ movhi
 210 000c 0B46     		strh	r3, [r7, #20]	@ movhi
 211 000e BB82     		.loc 1 288 0
 282:./Generated_Source/PSoC5/CyFlash.c ****     uint8 Index;
 283:./Generated_Source/PSoC5/CyFlash.c ****     uint32 Offset;
 284:./Generated_Source/PSoC5/CyFlash.c ****     uint16 rowSize;
 285:./Generated_Source/PSoC5/CyFlash.c ****     cystatus status;
 286:./Generated_Source/PSoC5/CyFlash.c **** 
 287:./Generated_Source/PSoC5/CyFlash.c **** 
 288:./Generated_Source/PSoC5/CyFlash.c ****     rowSize = (arrayId > LAST_FLASH_ARRAYID) ? SIZEOF_EEPROM_ROW : SIZEOF_FLASH_ROW;
 212              	 #23]	@ zero_extendqisi2
 213 0010 FB7D     		cmp	r3, #63
 214 0012 3F2B     		bls	.L25
 215 0014 03D9     		mov	r2, #16
 216 0016 4FF01002 		str	r2, [r7, #4]
 217 001a 7A60     		b	.L27
 218 001c 02E0     	.L25:
 219              		mov	r3, #256
 220 001e 4FF48073 		str	r3, [r7, #4]
 221 0022 7B60     	.L27:
ARM GAS  C:\Users\blinky\AppData\Local\Temp/cckHbaaa.s 			page 10


 222              		ldr	r2, [r7, #4]
 223 0024 7A68     		mov	r3, r2	@ movhi
 224 0026 1346     		strh	r3, [r7, #34]	@ movhi
 225 0028 7B84     		.loc 1 291 0
 289:./Generated_Source/PSoC5/CyFlash.c **** 
 290:./Generated_Source/PSoC5/CyFlash.c ****     /* See if we can get the SPC. */
 291:./Generated_Source/PSoC5/CyFlash.c ****     if(CySpcLock() == CYRET_SUCCESS)
 226              		mov	r3, r0
 227 002a FFF7FEFF 		cmp	r3, #0
 228 002e 0346     		bne	.L28
 229 0030 002B     		.loc 1 293 0
 230 0032 40F09C80 		ldrh	r3, [r7, #34]
 292:./Generated_Source/PSoC5/CyFlash.c ****     {
 293:./Generated_Source/PSoC5/CyFlash.c ****         if(rowSize != SIZEOF_EEPROM_ROW)
 231              	r3, #16
 232 0036 7B8C     		beq	.L30
 233 0038 102B     		.loc 1 296 0
 234 003a 1DD0     		ldrh	r3, [r7, #20]
 294:./Generated_Source/PSoC5/CyFlash.c ****         {
 295:./Generated_Source/PSoC5/CyFlash.c ****             /* Save the ECC area. */
 296:./Generated_Source/PSoC5/CyFlash.c ****             Offset = CYDEV_ECC_BASE + ((uint32) rowAddress * SIZEOF_ECC_ROW);
 235              		r3, r3, #5
 236 003c BB8A     		add	r3, r3, #1207959552
 237 003e 4FEA4313 		str	r3, [r7, #28]
 238 0042 03F19043 		.loc 1 297 0
 239 0046 FB61     		mov	r3, #0
 297:./Generated_Source/PSoC5/CyFlash.c ****             for(Index = 0; Index < SIZEOF_ECC_ROW; Index++)
 240              		r3, [r7, #27]
 241 0048 4FF00003 		b	.L32
 242 004c FB76     	.L33:
 243 004e 10E0     		.loc 1 299 0
 244              		ldr	r3, .L53
 298:./Generated_Source/PSoC5/CyFlash.c ****             {
 299:./Generated_Source/PSoC5/CyFlash.c ****                 rowBuffer[SIZEOF_FLASH_ROW + Index] = CY_GET_XTND_REG8(Offset + Index);
 245              	r3, [r3, #0]
 246 0050 4B4B     		add	r2, r3, #256
 247 0052 1B68     		ldrb	r3, [r7, #27]	@ zero_extendqisi2
 248 0054 03F58072 		add	r1, r2, r3
 249 0058 FB7E     		ldrb	r2, [r7, #27]	@ zero_extendqisi2
 250 005a 02EB0301 		ldr	r3, [r7, #28]
 251 005e FA7E     		add	r3, r2, r3
 252 0060 FB69     		ldrb	r3, [r3, #0]
 253 0062 1344     		uxtb	r3, r3
 254 0064 1B78     		strb	r3, [r1, #0]
 255 0066 DBB2     		.loc 1 297 0
 256 0068 0B70     		ldrb	r3, [r7, #27]
 257              		add	r3, r3, #1
 258 006a FB7E     		strb	r3, [r7, #27]
 259 006c 03F10103 	.L32:
 260 0070 FB76     		ldrb	r3, [r7, #27]	@ zero_extendqisi2
 261              		cmp	r3, #31
 262 0072 FB7E     		bls	.L33
 263 0074 1F2B     	.L30:
 264 0076 EBD9     		.loc 1 305 0
 265              		ldr	r3, .L53
 300:./Generated_Source/PSoC5/CyFlash.c ****             }
 301:./Generated_Source/PSoC5/CyFlash.c **** 
ARM GAS  C:\Users\blinky\AppData\Local\Temp/cckHbaaa.s 			page 11


 302:./Generated_Source/PSoC5/CyFlash.c ****         }
 303:./Generated_Source/PSoC5/CyFlash.c **** 
 304:./Generated_Source/PSoC5/CyFlash.c ****         /* Copy the rowdata to the temporary buffer. */
 305:./Generated_Source/PSoC5/CyFlash.c ****         cymemcpy(rowBuffer, rowData, SIZEOF_FLASH_ROW);
 266              	v	r0, r3
 267 0078 414B     		ldr	r1, [r7, #16]
 268 007a 1B68     		mov	r2, #256
 269 007c 1846     		bl	cymemcpy
 270 007e 3969     		.loc 1 308 0
 271 0080 4FF48072 		ldrb	r3, [r7, #23]	@ zero_extendqisi2
 272 0084 FFF7FEFF 		mov	r0, r3
 306:./Generated_Source/PSoC5/CyFlash.c **** 
 307:./Generated_Source/PSoC5/CyFlash.c ****         /* Create the command. */
 308:./Generated_Source/PSoC5/CyFlash.c ****         status = CySpcCreateCmdLoadRow(arrayId);
 273              	pcCreateCmdLoadRow
 274 0088 FB7D     		mov	r3, r0
 275 008a 1846     		str	r3, [r7, #36]
 276 008c FFF7FEFF 		.loc 1 309 0
 277 0090 0346     		ldr	r3, [r7, #36]
 278 0092 7B62     		cmp	r3, #0
 309:./Generated_Source/PSoC5/CyFlash.c ****         if(status == CYRET_SUCCESS)
 279              	L34
 280 0094 7B6A     		.loc 1 311 0
 281 0096 002B     		ldrh	r3, [r7, #34]
 282 0098 2DD1     		cmp	r3, #256
 310:./Generated_Source/PSoC5/CyFlash.c ****         {
 311:./Generated_Source/PSoC5/CyFlash.c ****             if(rowSize == SIZEOF_FLASH_ROW)
 283              		.L36
 284 009a 7B8C     		.loc 1 314 0
 285 009c B3F5807F 		ldrh	r3, [r7, #34]	@ movhi
 286 00a0 03D1     		add	r3, r3, #32
 312:./Generated_Source/PSoC5/CyFlash.c ****             {
 313:./Generated_Source/PSoC5/CyFlash.c ****                 /* If we are writing to flash add the ecc size. */
 314:./Generated_Source/PSoC5/CyFlash.c ****                 rowSize += SIZEOF_ECC_ROW;
 287              	h	r3, [r7, #34]	@ movhi
 288 00a2 7B8C     	.L36:
 289 00a4 03F12003 		.loc 1 318 0
 290 00a8 7B84     		ldr	r3, .L53
 291              		ldr	r3, [r3, #0]
 315:./Generated_Source/PSoC5/CyFlash.c ****             }
 316:./Generated_Source/PSoC5/CyFlash.c **** 
 317:./Generated_Source/PSoC5/CyFlash.c ****             /* Write the command. */
 318:./Generated_Source/PSoC5/CyFlash.c ****             status = CySpcWriteCommand(rowBuffer, rowSize);
 292              		r2, [r7, #34]
 293 00aa 354B     		mov	r0, r3
 294 00ac 1B68     		mov	r1, r2
 295 00ae 7A8C     		bl	CySpcWriteCommand
 296 00b0 1846     		mov	r3, r0
 297 00b2 1146     		str	r3, [r7, #36]
 298 00b4 FFF7FEFF 		.loc 1 319 0
 299 00b8 0346     		ldr	r3, [r7, #36]
 300 00ba 7B62     		cmp	r3, #7
 319:./Generated_Source/PSoC5/CyFlash.c ****             if(status == CYRET_STARTED)
 301              	
 302 00bc 7B6A     	.LBB2:
 303 00be 072B     		.loc 1 322 0
 304 00c0 19D1     		mov	r3, #255
ARM GAS  C:\Users\blinky\AppData\Local\Temp/cckHbaaa.s 			page 12


 305              		str	r3, [r7, #8]
 320:./Generated_Source/PSoC5/CyFlash.c ****             {
 321:./Generated_Source/PSoC5/CyFlash.c ****                 /* Spin until completion. */
 322:./Generated_Source/PSoC5/CyFlash.c ****                 WHILE_TEST(!(*SPC_STATUS & SPC_SPC_IDLE));
 306              	L39
 307 00c2 4FF0FF03 	.L40:
 308 00c6 BB60     		ldr	r2, [r7, #8]
 309 00c8 04E0     		add	r3, r2, #-1
 310              		uxtb	r3, r3
 311 00ca BA68     		str	r3, [r7, #8]
 312 00cc 02F1FF33 	.L39:
 313 00d0 DBB2     		ldr	r3, .L53+4
 314 00d2 BB60     		ldrb	r3, [r3, #0]
 315              		uxtb	r3, r3
 316 00d4 2B4B     		and	r3, r3, #2
 317 00d6 1B78     		cmp	r3, #0
 318 00d8 DBB2     		bne	.L41
 319 00da 03F00203 		ldr	r3, [r7, #8]
 320 00de 002B     		cmp	r3, #0
 321 00e0 02D1     		bne	.L40
 322 00e2 BB68     	.L41:
 323 00e4 002B     	.LBE2:
 324 00e6 F0D1     		.loc 1 326 0
 325              		ldr	r3, .L53+4
 326              		ldrb	r3, [r3, #0]
 323:./Generated_Source/PSoC5/CyFlash.c **** 
 324:./Generated_Source/PSoC5/CyFlash.c **** 
 325:./Generated_Source/PSoC5/CyFlash.c ****                 /* See if we were successful. */
 326:./Generated_Source/PSoC5/CyFlash.c ****                 status = CySpcReadStatus;
 327              	 r3, #2
 328 00e8 264B     		uxtb	r3, r3
 329 00ea 1B78     		str	r3, [r7, #36]
 330 00ec DBB2     	.L34:
 331 00ee 4FEA9303 		.loc 1 331 0
 332 00f2 DBB2     		ldr	r3, [r7, #36]
 333 00f4 7B62     		cmp	r3, #0
 334              		bne	.L43
 327:./Generated_Source/PSoC5/CyFlash.c ****             }
 328:./Generated_Source/PSoC5/CyFlash.c ****         }
 329:./Generated_Source/PSoC5/CyFlash.c **** 
 330:./Generated_Source/PSoC5/CyFlash.c ****         /* Create the command. */
 331:./Generated_Source/PSoC5/CyFlash.c ****         if(status == CYRET_SUCCESS)
 335              	333 0
 336 00f6 7B6A     		ldr	r3, .L53+8
 337 00f8 002B     		ldrb	r4, [r3, #0]	@ zero_extendqisi2
 338 00fa 35D1     		ldr	r3, .L53+8
 332:./Generated_Source/PSoC5/CyFlash.c ****         {
 333:./Generated_Source/PSoC5/CyFlash.c ****             status = CySpcCreateCmdWriteRow(arrayId, rowAddress, dieTemperature[0], dieTemperature[
 339              	b	r5, [r3, #1]	@ zero_extendqisi2
 340 00fc 224B     		ldrb	r3, [r7, #23]	@ zero_extendqisi2
 341 00fe 1C78     		ldrh	r2, [r7, #20]
 342 0100 214B     		mov	r0, r3
 343 0102 5D78     		mov	r1, r2
 344 0104 FB7D     		mov	r2, r4
 345 0106 BA8A     		mov	r3, r5
 346 0108 1846     		bl	CySpcCreateCmdWriteRow
 347 010a 1146     		mov	r3, r0
ARM GAS  C:\Users\blinky\AppData\Local\Temp/cckHbaaa.s 			page 13


 348 010c 2246     		str	r3, [r7, #36]
 349 010e 2B46     		.loc 1 334 0
 350 0110 FFF7FEFF 		ldr	r3, [r7, #36]
 351 0114 0346     		cmp	r3, #0
 352 0116 7B62     		bne	.L43
 334:./Generated_Source/PSoC5/CyFlash.c ****             if(status == CYRET_SUCCESS)
 353              		mov	r0, #0
 354 0118 7B6A     		mov	r1, #0
 355 011a 002B     		bl	CySpcWriteCommand
 356 011c 24D1     		mov	r3, r0
 335:./Generated_Source/PSoC5/CyFlash.c ****             {
 336:./Generated_Source/PSoC5/CyFlash.c ****                 /* Write the command. */
 337:./Generated_Source/PSoC5/CyFlash.c ****                 status = CySpcWriteCommand(0, 0);
 357              		r3, [r7, #36]
 358 011e 4FF00000 		.loc 1 338 0
 359 0122 4FF00001 		ldr	r3, [r7, #36]
 360 0126 FFF7FEFF 		cmp	r3, #7
 361 012a 0346     		bne	.L43
 362 012c 7B62     	.LBB3:
 338:./Generated_Source/PSoC5/CyFlash.c ****                 if(status == CYRET_STARTED)
 363              	1 341 0
 364 012e 7B6A     		mov	r2, #255
 365 0130 072B     		str	r2, [r7, #12]
 366 0132 19D1     		b	.L47
 367              	.L48:
 339:./Generated_Source/PSoC5/CyFlash.c ****                 {
 340:./Generated_Source/PSoC5/CyFlash.c ****                     /* Spin until completion. */
 341:./Generated_Source/PSoC5/CyFlash.c ****                     WHILE_TEST(!(*SPC_STATUS & SPC_SPC_IDLE));
 368              	r2, [r7, #12]
 369 0134 4FF0FF02 		add	r3, r2, #-1
 370 0138 FA60     		uxtb	r3, r3
 371 013a 04E0     		str	r3, [r7, #12]
 372              	.L47:
 373 013c FA68     		ldr	r3, .L53+4
 374 013e 02F1FF33 		ldrb	r3, [r3, #0]
 375 0142 DBB2     		uxtb	r3, r3
 376 0144 FB60     		and	r3, r3, #2
 377              		cmp	r3, #0
 378 0146 0F4B     		bne	.L49
 379 0148 1B78     		ldr	r3, [r7, #12]
 380 014a DBB2     		cmp	r3, #0
 381 014c 03F00203 		bne	.L48
 382 0150 002B     	.L49:
 383 0152 02D1     	.LBE3:
 384 0154 FB68     		.loc 1 344 0
 385 0156 002B     		ldr	r3, .L53+4
 386 0158 F0D1     		ldrb	r3, [r3, #0]
 387              		uxtb	r3, r3
 388              		lsr	r3, r3, #2
 342:./Generated_Source/PSoC5/CyFlash.c **** 
 343:./Generated_Source/PSoC5/CyFlash.c ****                     /* See if we were successful. */
 344:./Generated_Source/PSoC5/CyFlash.c ****                     status = CySpcReadStatus;
 389              	 [r7, #36]
 390 015a 0A4B     	.L43:
 391 015c 1B78     		.loc 1 350 0
 392 015e DBB2     		bl	CySpcUnlock
 393 0160 4FEA9303 		b	.L51
ARM GAS  C:\Users\blinky\AppData\Local\Temp/cckHbaaa.s 			page 14


 394 0164 DBB2     	.L28:
 395 0166 7B62     		.loc 1 354 0
 396              		mov	r3, #4
 345:./Generated_Source/PSoC5/CyFlash.c ****                 }
 346:./Generated_Source/PSoC5/CyFlash.c ****             }
 347:./Generated_Source/PSoC5/CyFlash.c ****         }
 348:./Generated_Source/PSoC5/CyFlash.c **** 
 349:./Generated_Source/PSoC5/CyFlash.c ****         /* Unlock the SPC so someone else can use it. */
 350:./Generated_Source/PSoC5/CyFlash.c ****         CySpcUnlock();
 397              	 [r7, #36]
 398 0168 FFF7FEFF 	.L51:
 399 016c 02E0     		.loc 1 357 0
 400              		ldr	r3, [r7, #36]
 351:./Generated_Source/PSoC5/CyFlash.c ****     }
 352:./Generated_Source/PSoC5/CyFlash.c ****     else
 353:./Generated_Source/PSoC5/CyFlash.c ****     {
 354:./Generated_Source/PSoC5/CyFlash.c ****         status = CYRET_LOCKED;
 401              	c 1 358 0
 402 016e 4FF00403 		mov	r0, r3
 403 0172 7B62     		add	r7, r7, #40
 404              		mov	sp, r7
 355:./Generated_Source/PSoC5/CyFlash.c ****     }
 356:./Generated_Source/PSoC5/CyFlash.c **** 
 357:./Generated_Source/PSoC5/CyFlash.c ****     return status;
 405              		{r4, r5, r7, pc}
 406 0174 7B6A     	.L54:
 358:./Generated_Source/PSoC5/CyFlash.c **** }
 407              	align	2
 408 0176 1846     	.L53:
 409 0178 07F12807 		.word	rowBuffer
 410 017c BD46     		.word	1073760034
 411 017e B0BD     		.word	dieTemperature
 412              	.LFE4:
 413              		.size	CyWriteRowData, .-CyWriteRowData
 414              		.section	.text.CyWriteRowConfig,"ax",%progbits
 415 0180 00000000 		.align	2
 416 0184 22470040 		.global	CyWriteRowConfig
 417 0188 00000000 		.thumb
 418              		.thumb_func
 419              		.type	CyWriteRowConfig, %function
 420              	CyWriteRowConfig:
 421              	.LFB5:
 422              		.loc 1 387 0
 423              		@ args = 0, pretend = 0, frame = 32
 424              		@ frame_needed = 1, uses_anonymous_args = 0
 425              		push	{r4, r5, r7, lr}
 426              	.LCFI9:
 427              		sub	sp, sp, #32
 359:./Generated_Source/PSoC5/CyFlash.c **** 
 360:./Generated_Source/PSoC5/CyFlash.c **** /* CYDEV_ECC_ENABLE == 0 */
 361:./Generated_Source/PSoC5/CyFlash.c **** #endif
 362:./Generated_Source/PSoC5/CyFlash.c **** 
 363:./Generated_Source/PSoC5/CyFlash.c **** 
 364:./Generated_Source/PSoC5/CyFlash.c **** 
 365:./Generated_Source/PSoC5/CyFlash.c **** #if (CYDEV_ECC_ENABLE == 0 && CYDEV_CONFIGURATION_ECC == 0)
 366:./Generated_Source/PSoC5/CyFlash.c **** 
 367:./Generated_Source/PSoC5/CyFlash.c **** /*******************************************************************************
ARM GAS  C:\Users\blinky\AppData\Local\Temp/cckHbaaa.s 			page 15


 368:./Generated_Source/PSoC5/CyFlash.c **** * Function Name: CyWriteRowConfig
 369:./Generated_Source/PSoC5/CyFlash.c **** ********************************************************************************
 370:./Generated_Source/PSoC5/CyFlash.c **** * Summary:
 371:./Generated_Source/PSoC5/CyFlash.c **** *   Sends a command to the SPC to load and program a row of config data in flash.
 372:./Generated_Source/PSoC5/CyFlash.c **** *
 373:./Generated_Source/PSoC5/CyFlash.c **** *
 374:./Generated_Source/PSoC5/CyFlash.c **** * Parameters:
 375:./Generated_Source/PSoC5/CyFlash.c **** *   address:
 376:./Generated_Source/PSoC5/CyFlash.c **** *       Address of the sector to erase.
 377:./Generated_Source/PSoC5/CyFlash.c **** *
 378:./Generated_Source/PSoC5/CyFlash.c **** *   
 379:./Generated_Source/PSoC5/CyFlash.c **** * Return:
 380:./Generated_Source/PSoC5/CyFlash.c **** *   CYRET_SUCCESS if successful.
 381:./Generated_Source/PSoC5/CyFlash.c **** *   CYRET_LOCKED if the SPC is already in use.
 382:./Generated_Source/PSoC5/CyFlash.c **** *   CYRET_UNKNOWN if there was an SPC error.
 383:./Generated_Source/PSoC5/CyFlash.c **** *
 384:./Generated_Source/PSoC5/CyFlash.c **** *
 385:./Generated_Source/PSoC5/CyFlash.c **** *******************************************************************************/
 386:./Generated_Source/PSoC5/CyFlash.c **** cystatus CyWriteRowConfig(uint8 arrayId, uint16 rowAddress, uint8 * rowECC)
 387:./Generated_Source/PSoC5/CyFlash.c **** {
 428              	 #0
 429              	.LCFI11:
 430              		mov	r3, r0
 431 0000 B0B5     		str	r2, [r7, #8]
 432              		strb	r3, [r7, #15]
 433 0002 88B0     		mov	r3, r1	@ movhi
 434              		strh	r3, [r7, #12]	@ movhi
 435 0004 00AF     		.loc 1 394 0
 436              		bl	CySpcLock
 437 0006 0346     		mov	r3, r0
 438 0008 BA60     		cmp	r3, #0
 439 000a FB73     		bne	.L56
 440 000c 0B46     		.loc 1 397 0
 441 000e BB81     		mov	r3, #-1
 388:./Generated_Source/PSoC5/CyFlash.c ****     uint32 Offset;
 389:./Generated_Source/PSoC5/CyFlash.c ****     uint16 Index;
 390:./Generated_Source/PSoC5/CyFlash.c ****     cystatus status;
 391:./Generated_Source/PSoC5/CyFlash.c **** 
 392:./Generated_Source/PSoC5/CyFlash.c **** 
 393:./Generated_Source/PSoC5/CyFlash.c ****     /* See if we can get the SPC. */
 394:./Generated_Source/PSoC5/CyFlash.c ****     if(CySpcLock() == CYRET_SUCCESS)
 442              	#28]
 443 0010 FFF7FEFF 		.loc 1 399 0
 444 0014 0346     		mov	r3, #0
 445 0016 002B     		str	r3, [r7, #28]
 446 0018 40F09280 		.loc 1 402 0
 395:./Generated_Source/PSoC5/CyFlash.c ****     {
 396:./Generated_Source/PSoC5/CyFlash.c ****         /* Plan for failure. */
 397:./Generated_Source/PSoC5/CyFlash.c ****         status = CYRET_UNKNOWN;
 447              		r3, [r7, #12]
 448 001c 4FF0FF33 		lsl	r3, r3, #8
 449 0020 FB61     		str	r3, [r7, #20]
 398:./Generated_Source/PSoC5/CyFlash.c **** 
 399:./Generated_Source/PSoC5/CyFlash.c ****         status = CYRET_SUCCESS;
 450              	oc 1 403 0
 451 0022 4FF00003 		mov	r3, #0
 452 0026 FB61     		strh	r3, [r7, #26]	@ movhi
ARM GAS  C:\Users\blinky\AppData\Local\Temp/cckHbaaa.s 			page 16


 400:./Generated_Source/PSoC5/CyFlash.c ****         
 401:./Generated_Source/PSoC5/CyFlash.c ****         /* Read the existing flash data. */
 402:./Generated_Source/PSoC5/CyFlash.c ****         Offset = CYDEV_FLS_BASE + ((uint32) rowAddress * SIZEOF_FLASH_ROW);
 453              	.L58
 454 0028 BB89     	.L59:
 455 002a 4FEA0323 		.loc 1 405 0
 456 002e 7B61     		ldrh	r3, [r7, #26]
 403:./Generated_Source/PSoC5/CyFlash.c ****         for(Index = 0; Index < SIZEOF_FLASH_ROW; Index++)
 457              		r2, r3
 458 0030 4FF00003 		ldr	r3, .L78
 459 0034 7B83     		ldr	r3, [r3, #0]
 460 0036 0FE0     		add	r1, r2, r3
 461              		ldrh	r2, [r7, #26]
 404:./Generated_Source/PSoC5/CyFlash.c ****         {
 405:./Generated_Source/PSoC5/CyFlash.c ****             rowBuffer[Index] = CY_GET_XTND_REG8(Offset + Index);
 462              	r3, [r7, #20]
 463 0038 7B8B     		add	r3, r2, r3
 464 003a 1A46     		ldrb	r3, [r3, #0]
 465 003c 454B     		uxtb	r3, r3
 466 003e 1B68     		strb	r3, [r1, #0]
 467 0040 02EB0301 		.loc 1 403 0
 468 0044 7A8B     		ldrh	r3, [r7, #26]	@ movhi
 469 0046 7B69     		add	r3, r3, #1
 470 0048 1344     		strh	r3, [r7, #26]	@ movhi
 471 004a 1B78     	.L58:
 472 004c DBB2     		ldrh	r3, [r7, #26]
 473 004e 0B70     		cmp	r3, #255
 474              		bls	.L59
 475 0050 7B8B     		.loc 1 409 0
 476 0052 03F10103 		ldr	r3, .L78
 477 0056 7B83     		ldr	r3, [r3, #0]
 478              		add	r3, r3, #256
 479 0058 7B8B     		mov	r0, r3
 480 005a FF2B     		ldr	r1, [r7, #8]
 481 005c ECD9     		mov	r2, #32
 406:./Generated_Source/PSoC5/CyFlash.c ****         }
 407:./Generated_Source/PSoC5/CyFlash.c **** 
 408:./Generated_Source/PSoC5/CyFlash.c ****         /* Copy the rowECC to the temporary buffer. */
 409:./Generated_Source/PSoC5/CyFlash.c ****         cymemcpy(&rowBuffer[SIZEOF_FLASH_ROW], rowECC, SIZEOF_ECC_ROW);
 482              	 412 0
 483 005e 3D4B     		ldrb	r3, [r7, #15]	@ zero_extendqisi2
 484 0060 1B68     		mov	r0, r3
 485 0062 03F58073 		bl	CySpcCreateCmdLoadRow
 486 0066 1846     		mov	r3, r0
 487 0068 B968     		str	r3, [r7, #28]
 488 006a 4FF02002 		.loc 1 413 0
 489 006e FFF7FEFF 		ldr	r3, [r7, #28]
 410:./Generated_Source/PSoC5/CyFlash.c **** 
 411:./Generated_Source/PSoC5/CyFlash.c ****         /* Create the command. */
 412:./Generated_Source/PSoC5/CyFlash.c ****         status = CySpcCreateCmdLoadRow(arrayId);
 490              	 #0
 491 0072 FB7B     		bne	.L61
 492 0074 1846     		.loc 1 416 0
 493 0076 FFF7FEFF 		ldr	r3, .L78
 494 007a 0346     		ldr	r3, [r3, #0]
 495 007c FB61     		mov	r0, r3
 413:./Generated_Source/PSoC5/CyFlash.c ****         if(status == CYRET_SUCCESS)
ARM GAS  C:\Users\blinky\AppData\Local\Temp/cckHbaaa.s 			page 17


 496              	1, #288
 497 007e FB69     		bl	CySpcWriteCommand
 498 0080 002B     		mov	r3, r0
 499 0082 23D1     		cmp	r3, #7
 414:./Generated_Source/PSoC5/CyFlash.c ****         {
 415:./Generated_Source/PSoC5/CyFlash.c ****             /* Write the command. */
 416:./Generated_Source/PSoC5/CyFlash.c ****             if(CySpcWriteCommand(rowBuffer, SIZEOF_FLASH_ROW + SIZEOF_ECC_ROW) == CYRET_STARTED)
 500              		.L61
 501 0084 334B     	.LBB4:
 502 0086 1B68     		.loc 1 419 0
 503 0088 1846     		mov	r2, #255
 504 008a 4FF49071 		str	r2, [r7, #0]
 505 008e FFF7FEFF 		b	.L64
 506 0092 0346     	.L65:
 507 0094 072B     		ldr	r2, [r7, #0]
 508 0096 19D1     		add	r3, r2, #-1
 509              		uxtb	r3, r3
 417:./Generated_Source/PSoC5/CyFlash.c ****             {
 418:./Generated_Source/PSoC5/CyFlash.c ****                 /* Spin until completion. */
 419:./Generated_Source/PSoC5/CyFlash.c ****                 WHILE_TEST(!(*SPC_STATUS & SPC_SPC_IDLE));
 510              	r7, #0]
 511 0098 4FF0FF02 	.L64:
 512 009c 3A60     		ldr	r3, .L78+4
 513 009e 04E0     		ldrb	r3, [r3, #0]
 514              		uxtb	r3, r3
 515 00a0 3A68     		and	r3, r3, #2
 516 00a2 02F1FF33 		cmp	r3, #0
 517 00a6 DBB2     		bne	.L66
 518 00a8 3B60     		ldr	r3, [r7, #0]
 519              		cmp	r3, #0
 520 00aa 2B4B     		bne	.L65
 521 00ac 1B78     	.L66:
 522 00ae DBB2     	.LBE4:
 523 00b0 03F00203 		.loc 1 422 0
 524 00b4 002B     		ldr	r3, .L78+4
 525 00b6 02D1     		ldrb	r3, [r3, #0]
 526 00b8 3B68     		uxtb	r3, r3
 527 00ba 002B     		lsr	r3, r3, #2
 528 00bc F0D1     		uxtb	r3, r3
 529              		str	r3, [r7, #28]
 530              	.L61:
 420:./Generated_Source/PSoC5/CyFlash.c **** 
 421:./Generated_Source/PSoC5/CyFlash.c ****                 /* See if we were successful. */
 422:./Generated_Source/PSoC5/CyFlash.c ****                 status = CySpcReadStatus;
 531              	, [r7, #28]
 532 00be 264B     		cmp	r3, #0
 533 00c0 1B78     		bne	.L68
 534 00c2 DBB2     		.loc 1 429 0
 535 00c4 4FEA9303 		ldr	r3, .L78+8
 536 00c8 DBB2     		ldrb	r4, [r3, #0]	@ zero_extendqisi2
 537 00ca FB61     		ldr	r3, .L78+8
 538              		ldrb	r5, [r3, #1]	@ zero_extendqisi2
 423:./Generated_Source/PSoC5/CyFlash.c ****             }
 424:./Generated_Source/PSoC5/CyFlash.c ****         }
 425:./Generated_Source/PSoC5/CyFlash.c **** 
 426:./Generated_Source/PSoC5/CyFlash.c ****         /* Create the command. */
 427:./Generated_Source/PSoC5/CyFlash.c ****         if(status == CYRET_SUCCESS)
ARM GAS  C:\Users\blinky\AppData\Local\Temp/cckHbaaa.s 			page 18


 539              	, [r7, #15]	@ zero_extendqisi2
 540 00cc FB69     		ldrh	r2, [r7, #12]
 541 00ce 002B     		mov	r0, r3
 542 00d0 33D1     		mov	r1, r2
 428:./Generated_Source/PSoC5/CyFlash.c ****         {
 429:./Generated_Source/PSoC5/CyFlash.c ****             status = CySpcCreateCmdWriteRow(arrayId, rowAddress, dieTemperature[0], dieTemperature[
 543              		r2, r4
 544 00d2 224B     		mov	r3, r5
 545 00d4 1C78     		bl	CySpcCreateCmdWriteRow
 546 00d6 214B     		mov	r3, r0
 547 00d8 5D78     		str	r3, [r7, #28]
 548 00da FB7B     		.loc 1 430 0
 549 00dc BA89     		ldr	r3, [r7, #28]
 550 00de 1846     		cmp	r3, #0
 551 00e0 1146     		bne	.L68
 552 00e2 2246     		.loc 1 433 0
 553 00e4 2B46     		mov	r0, #0
 554 00e6 FFF7FEFF 		mov	r1, #0
 555 00ea 0346     		bl	CySpcWriteCommand
 556 00ec FB61     		mov	r3, r0
 430:./Generated_Source/PSoC5/CyFlash.c ****             if(status == CYRET_SUCCESS)
 557              	ne	.L68
 558 00ee FB69     	.LBB5:
 559 00f0 002B     		.loc 1 436 0
 560 00f2 22D1     		mov	r2, #255
 431:./Generated_Source/PSoC5/CyFlash.c ****             {
 432:./Generated_Source/PSoC5/CyFlash.c ****                 /* Write the command. */
 433:./Generated_Source/PSoC5/CyFlash.c ****                 if(CySpcWriteCommand(0, 0) == CYRET_STARTED)
 561              		r2, [r7, #4]
 562 00f4 4FF00000 		b	.L72
 563 00f8 4FF00001 	.L73:
 564 00fc FFF7FEFF 		ldr	r2, [r7, #4]
 565 0100 0346     		add	r3, r2, #-1
 566 0102 072B     		uxtb	r3, r3
 567 0104 19D1     		str	r3, [r7, #4]
 568              	.L72:
 434:./Generated_Source/PSoC5/CyFlash.c ****                 {
 435:./Generated_Source/PSoC5/CyFlash.c ****                     /* Spin until completion. */
 436:./Generated_Source/PSoC5/CyFlash.c ****                     WHILE_TEST(!(*SPC_STATUS & SPC_SPC_IDLE));
 569              	 .L78+4
 570 0106 4FF0FF02 		ldrb	r3, [r3, #0]
 571 010a 7A60     		uxtb	r3, r3
 572 010c 04E0     		and	r3, r3, #2
 573              		cmp	r3, #0
 574 010e 7A68     		bne	.L74
 575 0110 02F1FF33 		ldr	r3, [r7, #4]
 576 0114 DBB2     		cmp	r3, #0
 577 0116 7B60     		bne	.L73
 578              	.L74:
 579 0118 0F4B     	.LBE5:
 580 011a 1B78     		.loc 1 439 0
 581 011c DBB2     		ldr	r3, .L78+4
 582 011e 03F00203 		ldrb	r3, [r3, #0]
 583 0122 002B     		uxtb	r3, r3
 584 0124 02D1     		lsr	r3, r3, #2
 585 0126 7B68     		uxtb	r3, r3
 586 0128 002B     		str	r3, [r7, #28]
ARM GAS  C:\Users\blinky\AppData\Local\Temp/cckHbaaa.s 			page 19


 587 012a F0D1     	.L68:
 588              		.loc 1 445 0
 589              		bl	CySpcUnlock
 437:./Generated_Source/PSoC5/CyFlash.c **** 
 438:./Generated_Source/PSoC5/CyFlash.c ****                     /* See if we were successful. */
 439:./Generated_Source/PSoC5/CyFlash.c ****                     status = CySpcReadStatus;
 590              	 449 0
 591 012c 0A4B     		mov	r3, #4
 592 012e 1B78     		str	r3, [r7, #28]
 593 0130 DBB2     	.L76:
 594 0132 4FEA9303 		.loc 1 452 0
 595 0136 DBB2     		ldr	r3, [r7, #28]
 596 0138 FB61     		.loc 1 453 0
 597              		mov	r0, r3
 440:./Generated_Source/PSoC5/CyFlash.c ****                 }
 441:./Generated_Source/PSoC5/CyFlash.c ****             }
 442:./Generated_Source/PSoC5/CyFlash.c ****         }
 443:./Generated_Source/PSoC5/CyFlash.c **** 
 444:./Generated_Source/PSoC5/CyFlash.c ****         /* Unlock the SPC so someone else can use it. */
 445:./Generated_Source/PSoC5/CyFlash.c ****         CySpcUnlock();
 598              	 r7, #32
 599 013a FFF7FEFF 		mov	sp, r7
 600 013e 02E0     		pop	{r4, r5, r7, pc}
 601              	.L79:
 446:./Generated_Source/PSoC5/CyFlash.c ****     }
 447:./Generated_Source/PSoC5/CyFlash.c ****     else
 448:./Generated_Source/PSoC5/CyFlash.c ****     {
 449:./Generated_Source/PSoC5/CyFlash.c ****         status = CYRET_LOCKED;
 602              	ign	2
 603 0140 4FF00403 	.L78:
 604 0144 FB61     		.word	rowBuffer
 605              		.word	1073760034
 450:./Generated_Source/PSoC5/CyFlash.c ****     }
 451:./Generated_Source/PSoC5/CyFlash.c **** 
 452:./Generated_Source/PSoC5/CyFlash.c ****     return status;
 606              	rd	dieTemperature
 607 0146 FB69     	.LFE5:
 453:./Generated_Source/PSoC5/CyFlash.c **** }
 608              	size	CyWriteRowConfig, .-CyWriteRowConfig
 609 0148 1846     		.section	.text.CyFlashEEActivePower,"ax",%progbits
 610 014a 07F12007 		.align	2
 611 014e BD46     		.global	CyFlashEEActivePower
 612 0150 B0BD     		.thumb
 613              		.thumb_func
 614 0152 C046     		.type	CyFlashEEActivePower, %function
 615              	CyFlashEEActivePower:
 616 0154 00000000 	.LFB6:
 617 0158 22470040 		.loc 1 476 0
 618 015c 00000000 		@ args = 0, pretend = 0, frame = 8
 619              		@ frame_needed = 1, uses_anonymous_args = 0
 620              		@ link register save eliminated.
 621              		push	{r7}
 622              	.LCFI12:
 623              		sub	sp, sp, #12
 624              	.LCFI13:
 625              		add	r7, sp, #0
 626              	.LCFI14:
ARM GAS  C:\Users\blinky\AppData\Local\Temp/cckHbaaa.s 			page 20


 627              		@ lr needed for prologue
 628              		mov	r3, r0
 454:./Generated_Source/PSoC5/CyFlash.c **** 
 455:./Generated_Source/PSoC5/CyFlash.c **** /* (CYDEV_ECC_ENABLE == 1 && CYDEV_CONFIGURATION_ECC == 0) */
 456:./Generated_Source/PSoC5/CyFlash.c **** #endif
 457:./Generated_Source/PSoC5/CyFlash.c **** 
 458:./Generated_Source/PSoC5/CyFlash.c **** /*******************************************************************************
 459:./Generated_Source/PSoC5/CyFlash.c **** * Function Name: CyFlashEEActivePower
 460:./Generated_Source/PSoC5/CyFlash.c **** ********************************************************************************
 461:./Generated_Source/PSoC5/CyFlash.c **** * Summary:
 462:./Generated_Source/PSoC5/CyFlash.c **** *   Selects the power for active operation mode.
 463:./Generated_Source/PSoC5/CyFlash.c **** *
 464:./Generated_Source/PSoC5/CyFlash.c **** *
 465:./Generated_Source/PSoC5/CyFlash.c **** * Parameters:
 466:./Generated_Source/PSoC5/CyFlash.c **** *   state:
 467:./Generated_Source/PSoC5/CyFlash.c **** *       Active power state. 1 is active, 0 inactive.
 468:./Generated_Source/PSoC5/CyFlash.c **** *
 469:./Generated_Source/PSoC5/CyFlash.c **** *   
 470:./Generated_Source/PSoC5/CyFlash.c **** * Return:
 471:./Generated_Source/PSoC5/CyFlash.c **** *   void.
 472:./Generated_Source/PSoC5/CyFlash.c **** *
 473:./Generated_Source/PSoC5/CyFlash.c **** *
 474:./Generated_Source/PSoC5/CyFlash.c **** *******************************************************************************/
 475:./Generated_Source/PSoC5/CyFlash.c **** void CyFlashEEActivePower(uint8 state)
 476:./Generated_Source/PSoC5/CyFlash.c **** {
 629              	loc 1 477 0
 630              		ldrb	r3, [r7, #7]	@ zero_extendqisi2
 631              		cmp	r3, #0
 632              		bne	.L81
 633 0000 80B4     		.loc 1 479 0
 634              		ldr	r2, .L85
 635 0002 83B0     		ldr	r3, .L85
 636              		ldrb	r3, [r3, #0]
 637 0004 00AF     		uxtb	r3, r3
 638              		and	r3, r3, #127
 639              		strb	r3, [r2, #0]
 640 0006 0346     		b	.L84
 641 0008 FB71     	.L81:
 477:./Generated_Source/PSoC5/CyFlash.c ****     if(state == 0)
 642              	
 643 000a FB79     		ldr	r2, .L85
 644 000c 002B     		ldr	r3, .L85
 645 000e 07D1     		ldrb	r3, [r3, #0]
 478:./Generated_Source/PSoC5/CyFlash.c ****     {
 479:./Generated_Source/PSoC5/CyFlash.c ****         *PM_ACT_EEFLASH &= ~PM_FLASH_EE_MASK;
 646              	tb	r3, r3
 647 0010 0B4A     		mvn	r3, r3, lsl #25
 648 0012 0B4B     		mvn	r3, r3, lsr #25
 649 0014 1B78     		uxtb	r3, r3
 650 0016 DBB2     		strb	r3, [r2, #0]
 651 0018 03F07F03 	.L84:
 652 001c 1370     		.loc 1 485 0
 653 001e 09E0     		add	r7, r7, #12
 654              		mov	sp, r7
 480:./Generated_Source/PSoC5/CyFlash.c ****     }
 481:./Generated_Source/PSoC5/CyFlash.c ****     else
 482:./Generated_Source/PSoC5/CyFlash.c ****     {
ARM GAS  C:\Users\blinky\AppData\Local\Temp/cckHbaaa.s 			page 21


 483:./Generated_Source/PSoC5/CyFlash.c ****         *PM_ACT_EEFLASH |= PM_FLASH_EE_MASK;
 655              	
 656 0020 074A     		bx	lr
 657 0022 074B     	.L86:
 658 0024 1B78     		.align	2
 659 0026 DBB2     	.L85:
 660 0028 6FEA4363 		.word	1073759136
 661 002c 6FEA5363 	.LFE6:
 662 0030 DBB2     		.size	CyFlashEEActivePower, .-CyFlashEEActivePower
 663 0032 1370     		.section	.text.CyFlashEEStandbyPower,"ax",%progbits
 664              		.align	2
 484:./Generated_Source/PSoC5/CyFlash.c ****     }
 485:./Generated_Source/PSoC5/CyFlash.c **** }
 665              	CyFlashEEStandbyPower
 666 0034 07F10C07 		.thumb
 667 0038 BD46     		.thumb_func
 668 003a 80BC     		.type	CyFlashEEStandbyPower, %function
 669 003c 7047     	CyFlashEEStandbyPower:
 670              	.LFB7:
 671 003e C046     		.loc 1 505 0
 672              		@ args = 0, pretend = 0, frame = 8
 673 0040 A0430040 		@ frame_needed = 1, uses_anonymous_args = 0
 674              		@ link register save eliminated.
 675              		push	{r7}
 676              	.LCFI15:
 677              		sub	sp, sp, #12
 678              	.LCFI16:
 679              		add	r7, sp, #0
 680              	.LCFI17:
 681              		@ lr needed for prologue
 682              		mov	r3, r0
 683              		strb	r3, [r7, #7]
 486:./Generated_Source/PSoC5/CyFlash.c **** 
 487:./Generated_Source/PSoC5/CyFlash.c **** /*******************************************************************************
 488:./Generated_Source/PSoC5/CyFlash.c **** * Function Name: CyFlashEEStandbyPower
 489:./Generated_Source/PSoC5/CyFlash.c **** ********************************************************************************
 490:./Generated_Source/PSoC5/CyFlash.c **** * Summary:
 491:./Generated_Source/PSoC5/CyFlash.c **** *   Selects the power for standby operation modes.
 492:./Generated_Source/PSoC5/CyFlash.c **** *
 493:./Generated_Source/PSoC5/CyFlash.c **** *
 494:./Generated_Source/PSoC5/CyFlash.c **** * Parameters:
 495:./Generated_Source/PSoC5/CyFlash.c **** *   state:
 496:./Generated_Source/PSoC5/CyFlash.c **** *       Standby power state. 1 is active, 0 inactive.
 497:./Generated_Source/PSoC5/CyFlash.c **** *
 498:./Generated_Source/PSoC5/CyFlash.c **** *   
 499:./Generated_Source/PSoC5/CyFlash.c **** * Return:
 500:./Generated_Source/PSoC5/CyFlash.c **** *   void.
 501:./Generated_Source/PSoC5/CyFlash.c **** *
 502:./Generated_Source/PSoC5/CyFlash.c **** *
 503:./Generated_Source/PSoC5/CyFlash.c **** *******************************************************************************/
 504:./Generated_Source/PSoC5/CyFlash.c **** void CyFlashEEStandbyPower(uint8 state)
 505:./Generated_Source/PSoC5/CyFlash.c **** {
 684              		r3, [r7, #7]	@ zero_extendqisi2
 685              		cmp	r3, #0
 686              		bne	.L88
 687              		.loc 1 508 0
 688 0000 80B4     		ldr	r2, .L92
ARM GAS  C:\Users\blinky\AppData\Local\Temp/cckHbaaa.s 			page 22


 689              		ldr	r3, .L92
 690 0002 83B0     		ldrb	r3, [r3, #0]
 691              		uxtb	r3, r3
 692 0004 00AF     		and	r3, r3, #127
 693              		strb	r3, [r2, #0]
 694              		b	.L91
 695 0006 0346     	.L88:
 696 0008 FB71     		.loc 1 512 0
 506:./Generated_Source/PSoC5/CyFlash.c ****     if(state == 0)
 697              	
 698 000a FB79     		ldr	r3, .L92
 699 000c 002B     		ldrb	r3, [r3, #0]
 700 000e 07D1     		uxtb	r3, r3
 507:./Generated_Source/PSoC5/CyFlash.c ****     {
 508:./Generated_Source/PSoC5/CyFlash.c ****         *PM_STBY_EEFLASH &= ~PM_FLASH_EE_MASK;
 701              	n	r3, r3, lsl #25
 702 0010 0B4A     		mvn	r3, r3, lsr #25
 703 0012 0B4B     		uxtb	r3, r3
 704 0014 1B78     		strb	r3, [r2, #0]
 705 0016 DBB2     	.L91:
 706 0018 03F07F03 		.loc 1 514 0
 707 001c 1370     		add	r7, r7, #12
 708 001e 09E0     		mov	sp, r7
 709              		pop	{r7}
 509:./Generated_Source/PSoC5/CyFlash.c ****     }
 510:./Generated_Source/PSoC5/CyFlash.c ****     else
 511:./Generated_Source/PSoC5/CyFlash.c ****     {
 512:./Generated_Source/PSoC5/CyFlash.c ****         *PM_STBY_EEFLASH |= PM_FLASH_EE_MASK;
 710              	93:
 711 0020 074A     		.align	2
 712 0022 074B     	.L92:
 713 0024 1B78     		.word	1073759152
 714 0026 DBB2     	.LFE7:
 715 0028 6FEA4363 		.size	CyFlashEEStandbyPower, .-CyFlashEEStandbyPower
 716 002c 6FEA5363 		.comm	dieTemperature,2,1
 717 0030 DBB2     		.section	.debug_frame,"",%progbits
 718 0032 1370     	.Lframe0:
 719              		.4byte	.LECIE0-.LSCIE0
 513:./Generated_Source/PSoC5/CyFlash.c ****     }
 514:./Generated_Source/PSoC5/CyFlash.c **** }
 720              	.4byte	0xffffffff
 721 0034 07F10C07 		.byte	0x1
 722 0038 BD46     		.ascii	"\000"
 723 003a 80BC     		.uleb128 0x1
 724 003c 7047     		.sleb128 -4
 725              		.byte	0xe
 726 003e C046     		.byte	0xc
 727              		.uleb128 0xd
 728 0040 B0430040 		.uleb128 0x0
 729              		.align	2
 730              	.LECIE0:
 731              	.LSFDE0:
 732              		.4byte	.LEFDE0-.LASFDE0
 733              	.LASFDE0:
 734 0000 0C000000 		.4byte	.Lframe0
 735              		.4byte	.LFB2
 736 0004 FFFFFFFF 		.4byte	.LFE2-.LFB2
ARM GAS  C:\Users\blinky\AppData\Local\Temp/cckHbaaa.s 			page 23


 737 0008 01       		.byte	0x4
 738 0009 00       		.4byte	.LCFI0-.LFB2
 739 000a 01       		.byte	0xe
 740 000b 7C       		.uleb128 0x8
 741 000c 0E       		.byte	0x4
 742 000d 0C       		.4byte	.LCFI1-.LCFI0
 743 000e 0D       		.byte	0xe
 744 000f 00       		.uleb128 0x10
 745              		.byte	0x8e
 746              		.uleb128 0x1
 747              		.byte	0x87
 748 0010 1C000000 		.uleb128 0x2
 749              		.byte	0x4
 750 0014 00000000 		.4byte	.LCFI2-.LCFI1
 751 0018 00000000 		.byte	0xd
 752 001c A8000000 		.uleb128 0x7
 753 0020 42       		.align	2
 754              	.LEFDE0:
 755 0021 0E       	.LSFDE2:
 756 0022 08       		.4byte	.LEFDE2-.LASFDE2
 757 0023 42       	.LASFDE2:
 758              		.4byte	.Lframe0
 759 0024 0E       		.4byte	.LFB3
 760 0025 10       		.4byte	.LFE3-.LFB3
 761 0026 8E       		.byte	0x4
 762 0027 01       		.4byte	.LCFI3-.LFB3
 763 0028 87       		.byte	0xe
 764 0029 02       		.uleb128 0x8
 765 002a 42       		.byte	0x4
 766              		.4byte	.LCFI4-.LCFI3
 767 002b 0D       		.byte	0xe
 768 002c 07       		.uleb128 0x18
 769 002d 000000   		.byte	0x8e
 770              		.uleb128 0x1
 771              		.byte	0x87
 772 0030 1C000000 		.uleb128 0x2
 773              		.byte	0x4
 774 0034 00000000 		.4byte	.LCFI5-.LCFI4
 775 0038 00000000 		.byte	0xd
 776 003c 50000000 		.uleb128 0x7
 777 0040 42       		.align	2
 778              	.LEFDE2:
 779 0041 0E       	.LSFDE4:
 780 0042 08       		.4byte	.LEFDE4-.LASFDE4
 781 0043 42       	.LASFDE4:
 782              		.4byte	.Lframe0
 783 0044 0E       		.4byte	.LFB4
 784 0045 18       		.4byte	.LFE4-.LFB4
 785 0046 8E       		.byte	0x4
 786 0047 01       		.4byte	.LCFI6-.LFB4
 787 0048 87       		.byte	0xe
 788 0049 02       		.uleb128 0x10
 789 004a 42       		.byte	0x4
 790              		.4byte	.LCFI7-.LCFI6
 791 004b 0D       		.byte	0xe
 792 004c 07       		.uleb128 0x38
 793 004d 000000   		.byte	0x8e
ARM GAS  C:\Users\blinky\AppData\Local\Temp/cckHbaaa.s 			page 24


 794              		.uleb128 0x1
 795              		.byte	0x87
 796 0050 20000000 		.uleb128 0x2
 797              		.byte	0x85
 798 0054 00000000 		.uleb128 0x3
 799 0058 00000000 		.byte	0x84
 800 005c 8C010000 		.uleb128 0x4
 801 0060 42       		.byte	0x4
 802              		.4byte	.LCFI8-.LCFI7
 803 0061 0E       		.byte	0xd
 804 0062 10       		.uleb128 0x7
 805 0063 42       		.align	2
 806              	.LEFDE4:
 807 0064 0E       	.LSFDE6:
 808 0065 38       		.4byte	.LEFDE6-.LASFDE6
 809 0066 8E       	.LASFDE6:
 810 0067 01       		.4byte	.Lframe0
 811 0068 87       		.4byte	.LFB5
 812 0069 02       		.4byte	.LFE5-.LFB5
 813 006a 85       		.byte	0x4
 814 006b 03       		.4byte	.LCFI9-.LFB5
 815 006c 84       		.byte	0xe
 816 006d 04       		.uleb128 0x10
 817 006e 42       		.byte	0x4
 818              		.4byte	.LCFI10-.LCFI9
 819 006f 0D       		.byte	0xe
 820 0070 07       		.uleb128 0x30
 821 0071 000000   		.byte	0x8e
 822              		.uleb128 0x1
 823              		.byte	0x87
 824 0074 20000000 		.uleb128 0x2
 825              		.byte	0x85
 826 0078 00000000 		.uleb128 0x3
 827 007c 00000000 		.byte	0x84
 828 0080 60010000 		.uleb128 0x4
 829 0084 42       		.byte	0x4
 830              		.4byte	.LCFI11-.LCFI10
 831 0085 0E       		.byte	0xd
 832 0086 10       		.uleb128 0x7
 833 0087 42       		.align	2
 834              	.LEFDE6:
 835 0088 0E       	.LSFDE8:
 836 0089 30       		.4byte	.LEFDE8-.LASFDE8
 837 008a 8E       	.LASFDE8:
 838 008b 01       		.4byte	.Lframe0
 839 008c 87       		.4byte	.LFB6
 840 008d 02       		.4byte	.LFE6-.LFB6
 841 008e 85       		.byte	0x4
 842 008f 03       		.4byte	.LCFI12-.LFB6
 843 0090 84       		.byte	0xe
 844 0091 04       		.uleb128 0x4
 845 0092 42       		.byte	0x4
 846              		.4byte	.LCFI13-.LCFI12
 847 0093 0D       		.byte	0xe
 848 0094 07       		.uleb128 0x10
 849 0095 000000   		.byte	0x87
 850              		.uleb128 0x1
ARM GAS  C:\Users\blinky\AppData\Local\Temp/cckHbaaa.s 			page 25


 851              		.byte	0x4
 852 0098 18000000 		.4byte	.LCFI14-.LCFI13
 853              		.byte	0xd
 854 009c 00000000 		.uleb128 0x7
 855 00a0 00000000 		.align	2
 856 00a4 44000000 	.LEFDE8:
 857 00a8 42       	.LSFDE10:
 858              		.4byte	.LEFDE10-.LASFDE10
 859 00a9 0E       	.LASFDE10:
 860 00aa 04       		.4byte	.Lframe0
 861 00ab 42       		.4byte	.LFB7
 862              		.4byte	.LFE7-.LFB7
 863 00ac 0E       		.byte	0x4
 864 00ad 10       		.4byte	.LCFI15-.LFB7
 865 00ae 87       		.byte	0xe
 866 00af 01       		.uleb128 0x4
 867 00b0 42       		.byte	0x4
 868              		.4byte	.LCFI16-.LCFI15
 869 00b1 0D       		.byte	0xe
 870 00b2 07       		.uleb128 0x10
 871 00b3 00       		.byte	0x87
 872              		.uleb128 0x1
 873              		.byte	0x4
 874 00b4 18000000 		.4byte	.LCFI17-.LCFI16
 875              		.byte	0xd
 876 00b8 00000000 		.uleb128 0x7
 877 00bc 00000000 		.align	2
 878 00c0 44000000 	.LEFDE10:
 879 00c4 42       		.text
 880              	.Letext0: