ARM GAS  C:\Users\blinky\AppData\Local\Temp/ccYRaaaa.s 			page 1


   1              		.syntax unified
   2              		.cpu cortex-m3
   3              		.fpu softvfp
   4              		.eabi_attribute 20, 1
   5              		.eabi_attribute 21, 1
   6              		.eabi_attribute 23, 3
   7              		.eabi_attribute 24, 1
   8              		.eabi_attribute 25, 1
   9              		.eabi_attribute 26, 1
  10              		.eabi_attribute 30, 6
  11              		.eabi_attribute 18, 4
  12              		.thumb
  13              		.file	"CyLibNoOS.c"
  20 0000 AA010000 		.text
  20      02004800 
  20      00000201 
  20      FB0E0D00 
  20      01010101 
  21              	.Ltext0:
  22              		.global	__env
  23              		.bss
  24              		.align	2
  25              		.type	__env, %object
  26              		.size	__env, 4
  27              	__env:
  28 0000 00000000 		.space	4
  29              		.global	environ
  30              		.data
  31              		.align	2
  32              		.type	environ, %object
  33              		.size	environ, 4
  34              	environ:
  35 0000 00000000 		.word	__env
  36              		.align	2
  37              		.type	CyHeap, %object
  38              		.size	CyHeap, 4
  39              	CyHeap:
  40 0004 00000000 		.word	_heap
  41              		.section	.text._sbrk,"ax",%progbits
  42              		.align	2
  43              		.global	_sbrk
  44              		.thumb
  45              		.thumb_func
  46              		.type	_sbrk, %function
  47              	_sbrk:
  48              	.LFB2:
  49              		.file 1 "./Generated_Source/PSoC5/CyLibNoOS.c"
   1:./Generated_Source/PSoC5/CyLibNoOS.c **** /*******************************************************************************
   2:./Generated_Source/PSoC5/CyLibNoOS.c **** * File Name: CyLibNoOS.c  
   3:./Generated_Source/PSoC5/CyLibNoOS.c **** * Version 1.40
   4:./Generated_Source/PSoC5/CyLibNoOS.c **** *
ARM GAS  C:\Users\blinky\AppData\Local\Temp/ccYRaaaa.s 			page 2


   5:./Generated_Source/PSoC5/CyLibNoOS.c **** *  Description:
   6:./Generated_Source/PSoC5/CyLibNoOS.c **** *   Provides standard library support for an Operating System, we have no os
   7:./Generated_Source/PSoC5/CyLibNoOS.c **** *   so the functions are mostly stubs.
   8:./Generated_Source/PSoC5/CyLibNoOS.c **** *
   9:./Generated_Source/PSoC5/CyLibNoOS.c **** *  Note:
  10:./Generated_Source/PSoC5/CyLibNoOS.c **** *
  11:./Generated_Source/PSoC5/CyLibNoOS.c **** *   
  12:./Generated_Source/PSoC5/CyLibNoOS.c **** *
  13:./Generated_Source/PSoC5/CyLibNoOS.c **** *******************************************************************************
  14:./Generated_Source/PSoC5/CyLibNoOS.c **** * Copyright 2008-2009, Cypress Semiconductor Corporation.  All rights reserved.
  15:./Generated_Source/PSoC5/CyLibNoOS.c **** * You may use this file only in accordance with the license, terms, conditions, 
  16:./Generated_Source/PSoC5/CyLibNoOS.c **** * disclaimers, and limitations in the end user license agreement accompanying 
  17:./Generated_Source/PSoC5/CyLibNoOS.c **** * the software package with which this file was provided.
  18:./Generated_Source/PSoC5/CyLibNoOS.c **** ********************************************************************************/
  19:./Generated_Source/PSoC5/CyLibNoOS.c **** 
  20:./Generated_Source/PSoC5/CyLibNoOS.c **** #if (defined(__GNUC__))
  21:./Generated_Source/PSoC5/CyLibNoOS.c **** 
  22:./Generated_Source/PSoC5/CyLibNoOS.c **** 
  23:./Generated_Source/PSoC5/CyLibNoOS.c **** #include <cytypes.h>
  24:./Generated_Source/PSoC5/CyLibNoOS.c **** #include <errno.h>
  25:./Generated_Source/PSoC5/CyLibNoOS.c **** 
  26:./Generated_Source/PSoC5/CyLibNoOS.c **** /* Add user support code between the following #START and #END tags */
  27:./Generated_Source/PSoC5/CyLibNoOS.c **** /* `#START _exit`  */
  28:./Generated_Source/PSoC5/CyLibNoOS.c **** 
  29:./Generated_Source/PSoC5/CyLibNoOS.c **** /* `#END`  */
  30:./Generated_Source/PSoC5/CyLibNoOS.c **** 
  31:./Generated_Source/PSoC5/CyLibNoOS.c **** int errno;
  32:./Generated_Source/PSoC5/CyLibNoOS.c **** char * __env[1] = { 0 }; 
  33:./Generated_Source/PSoC5/CyLibNoOS.c **** char * * environ = __env; 
  34:./Generated_Source/PSoC5/CyLibNoOS.c **** 
  35:./Generated_Source/PSoC5/CyLibNoOS.c **** 
  36:./Generated_Source/PSoC5/CyLibNoOS.c **** /* Defined in the linker descriptor file. */
  37:./Generated_Source/PSoC5/CyLibNoOS.c **** extern unsigned long _heap;
  38:./Generated_Source/PSoC5/CyLibNoOS.c **** static uint8 * CyHeap = (uint8 *) &_heap;
  39:./Generated_Source/PSoC5/CyLibNoOS.c **** register char * stackPointer asm ("sp");
  40:./Generated_Source/PSoC5/CyLibNoOS.c **** 
  41:./Generated_Source/PSoC5/CyLibNoOS.c **** 
  42:./Generated_Source/PSoC5/CyLibNoOS.c **** void * _sbrk(int size)
  43:./Generated_Source/PSoC5/CyLibNoOS.c **** {
  50              	
  51              		@ frame_needed = 1, uses_anonymous_args = 0
  52              		push	{r7, lr}
  53 0000 80B5     	.LCFI0:
  54              		sub	sp, sp, #16
  55 0002 84B0     	.LCFI1:
  56              		add	r7, sp, #0
  57 0004 00AF     	.LCFI2:
  58              		str	r0, [r7, #4]
  59 0006 7860     		.loc 1 52 0
  44:./Generated_Source/PSoC5/CyLibNoOS.c ****     void * memory; 
  45:./Generated_Source/PSoC5/CyLibNoOS.c ****     uint8 * previous;
  46:./Generated_Source/PSoC5/CyLibNoOS.c **** 
  47:./Generated_Source/PSoC5/CyLibNoOS.c ****     /* Add user function code between the following #START and #END tags */
  48:./Generated_Source/PSoC5/CyLibNoOS.c ****     /* `#START _sbrk`  */
  49:./Generated_Source/PSoC5/CyLibNoOS.c **** 
  50:./Generated_Source/PSoC5/CyLibNoOS.c ****   	/* `#END`  */
  51:./Generated_Source/PSoC5/CyLibNoOS.c **** 
ARM GAS  C:\Users\blinky\AppData\Local\Temp/ccYRaaaa.s 			page 3


  52:./Generated_Source/PSoC5/CyLibNoOS.c ****     previous = CyHeap; 
  60              	.L6
  61 0008 104B     		ldr	r3, [r3, #0]
  62 000a 1B68     		str	r3, [r7, #12]
  63 000c FB60     		.loc 1 54 0
  53:./Generated_Source/PSoC5/CyLibNoOS.c **** 
  54:./Generated_Source/PSoC5/CyLibNoOS.c ****     if((uint32) previous + (uint32) size > (uint32) stackPointer)
  64              		r3, [r7, #12]
  65 000e FB68     		mov	r2, r3
  66 0010 1A46     		ldr	r3, [r7, #4]
  67 0012 7B68     		add	r2, r2, r3
  68 0014 1A44     		mov	r3, sp
  69 0016 6B46     		cmp	r2, r3
  70 0018 9A42     		bls	.L2
  71 001a 09D9     		.loc 1 56 0
  55:./Generated_Source/PSoC5/CyLibNoOS.c ****     {
  56:./Generated_Source/PSoC5/CyLibNoOS.c ****          errno = ENOMEM;
  72              	rno
  73 001c FFF7FEFF 		mov	r3, r0
  74 0020 0346     		mov	r2, #12
  75 0022 4FF00C02 		str	r2, [r3, #0]
  76 0026 1A60     		.loc 1 57 0
  57:./Generated_Source/PSoC5/CyLibNoOS.c ****          memory = (void *) -1;
  77              	r3, #-1
  78 0028 4FF0FF33 		str	r3, [r7, #8]
  79 002c BB60     		b	.L4
  80 002e 07E0     	.L2:
  81              		.loc 1 61 0
  58:./Generated_Source/PSoC5/CyLibNoOS.c ****     }
  59:./Generated_Source/PSoC5/CyLibNoOS.c ****     else
  60:./Generated_Source/PSoC5/CyLibNoOS.c ****     {
  61:./Generated_Source/PSoC5/CyLibNoOS.c ****         CyHeap += size;
  82              	r3, .L6
  83 0030 064B     		ldr	r2, [r3, #0]
  84 0032 1A68     		ldr	r3, [r7, #4]
  85 0034 7B68     		add	r2, r2, r3
  86 0036 1A44     		ldr	r3, .L6
  87 0038 044B     		str	r2, [r3, #0]
  88 003a 1A60     		.loc 1 62 0
  62:./Generated_Source/PSoC5/CyLibNoOS.c ****         memory = (void *) previous;
  89              	, [r7, #12]
  90 003c FB68     		str	r3, [r7, #8]
  91 003e BB60     	.L4:
  92              		.loc 1 65 0
  63:./Generated_Source/PSoC5/CyLibNoOS.c ****     }
  64:./Generated_Source/PSoC5/CyLibNoOS.c **** 
  65:./Generated_Source/PSoC5/CyLibNoOS.c ****     return memory; 
  93              		r3, [r7, #8]
  94 0040 BB68     		.loc 1 66 0
  66:./Generated_Source/PSoC5/CyLibNoOS.c **** }
  95              	ov	r0, r3
  96 0042 1846     		add	r7, r7, #16
  97 0044 07F11007 		mov	sp, r7
  98 0048 BD46     		pop	{r7, pc}
  99 004a 80BD     	.L7:
 100              		.align	2
 101              	.L6:
ARM GAS  C:\Users\blinky\AppData\Local\Temp/ccYRaaaa.s 			page 4


 102              		.word	CyHeap
 103 004c 04000000 	.LFE2:
 104              		.size	_sbrk, .-_sbrk
 105              		.section	.text._wait,"ax",%progbits
 106              		.align	2
 107              		.global	_wait
 108              		.thumb
 109              		.thumb_func
 110              		.type	_wait, %function
 111              	_wait:
 112              	.LFB3:
 113              		.loc 1 69 0
  67:./Generated_Source/PSoC5/CyLibNoOS.c **** 
  68:./Generated_Source/PSoC5/CyLibNoOS.c **** int _wait(int * status)
  69:./Generated_Source/PSoC5/CyLibNoOS.c **** {
 114              	d = 0, frame = 8
 115              		@ frame_needed = 1, uses_anonymous_args = 0
 116              		push	{r7, lr}
 117 0000 80B5     	.LCFI3:
 118              		sub	sp, sp, #8
 119 0002 82B0     	.LCFI4:
 120              		add	r7, sp, #0
 121 0004 00AF     	.LCFI5:
 122              		str	r0, [r7, #4]
 123 0006 7860     		.loc 1 75 0
  70:./Generated_Source/PSoC5/CyLibNoOS.c ****     /* Add user function code between the following #START and #END tags */
  71:./Generated_Source/PSoC5/CyLibNoOS.c ****     /* `#START _wait` */
  72:./Generated_Source/PSoC5/CyLibNoOS.c **** 
  73:./Generated_Source/PSoC5/CyLibNoOS.c ****   	/* `#END`  */
  74:./Generated_Source/PSoC5/CyLibNoOS.c **** 
  75:./Generated_Source/PSoC5/CyLibNoOS.c ****     errno = ENOSYS;
 124              	o
 125 0008 FFF7FEFF 		mov	r2, r0
 126 000c 0246     		mov	r3, #88
 127 000e 4FF05803 		str	r3, [r2, #0]
 128 0012 1360     		.loc 1 76 0
  76:./Generated_Source/PSoC5/CyLibNoOS.c ****     return -1;
 129              	r3, #-1
 130 0014 4FF0FF33 		.loc 1 77 0
  77:./Generated_Source/PSoC5/CyLibNoOS.c **** }
 131              	ov	r0, r3
 132 0018 1846     		add	r7, r7, #8
 133 001a 07F10807 		mov	sp, r7
 134 001e BD46     		pop	{r7, pc}
 135 0020 80BD     	.LFE3:
 136              		.size	_wait, .-_wait
 137              		.section	.text._exit,"ax",%progbits
 138 0022 C046     		.align	2
 139              		.global	_exit
 140              		.thumb
 141              		.thumb_func
 142              		.type	_exit, %function
 143              	_exit:
 144              	.LFB4:
 145              		.loc 1 80 0
  78:./Generated_Source/PSoC5/CyLibNoOS.c **** 
  79:./Generated_Source/PSoC5/CyLibNoOS.c **** void _exit(int status)
ARM GAS  C:\Users\blinky\AppData\Local\Temp/ccYRaaaa.s 			page 5


  80:./Generated_Source/PSoC5/CyLibNoOS.c **** {
 146              	etend = 0, frame = 8
 147              		@ frame_needed = 1, uses_anonymous_args = 0
 148              		@ link register save eliminated.
 149              		push	{r7}
 150 0000 80B4     	.LCFI6:
 151              		sub	sp, sp, #12
 152 0002 83B0     	.LCFI7:
 153              		add	r7, sp, #0
 154 0004 00AF     	.LCFI8:
 155              		@ lr needed for prologue
 156              		str	r0, [r7, #4]
 157 0006 7860     	.L11:
 158              		.loc 1 89 0
  81:./Generated_Source/PSoC5/CyLibNoOS.c ****     /* Add user function code between the following #START and #END tags */
  82:./Generated_Source/PSoC5/CyLibNoOS.c ****     /* `#START _exit` */
  83:./Generated_Source/PSoC5/CyLibNoOS.c **** 
  84:./Generated_Source/PSoC5/CyLibNoOS.c ****   	/* `#END`  */
  85:./Generated_Source/PSoC5/CyLibNoOS.c **** 
  86:./Generated_Source/PSoC5/CyLibNoOS.c **** 
  87:./Generated_Source/PSoC5/CyLibNoOS.c ****     /* Don't return. */
  88:./Generated_Source/PSoC5/CyLibNoOS.c ****     while(42)
  89:./Generated_Source/PSoC5/CyLibNoOS.c ****         ;
 159              	:
 160 0008 FEE7     		.size	_exit, .-_exit
 161              		.section	.text._kill,"ax",%progbits
 162              		.align	2
 163 000a C046     		.global	_kill
 164              		.thumb
 165              		.thumb_func
 166              		.type	_kill, %function
 167              	_kill:
 168              	.LFB5:
 169              		.loc 1 94 0
 170              		@ args = 0, pretend = 0, frame = 8
  90:./Generated_Source/PSoC5/CyLibNoOS.c **** }
  91:./Generated_Source/PSoC5/CyLibNoOS.c **** 
  92:./Generated_Source/PSoC5/CyLibNoOS.c **** 
  93:./Generated_Source/PSoC5/CyLibNoOS.c **** int _kill(int pid, int sig)
  94:./Generated_Source/PSoC5/CyLibNoOS.c **** {
 171              	ded = 1, uses_anonymous_args = 0
 172              		push	{r7, lr}
 173              	.LCFI9:
 174 0000 80B5     		sub	sp, sp, #8
 175              	.LCFI10:
 176 0002 82B0     		add	r7, sp, #0
 177              	.LCFI11:
 178 0004 00AF     		str	r0, [r7, #4]
 179              		str	r1, [r7, #0]
 180 0006 7860     		.loc 1 100 0
 181 0008 3960     		bl	__errno
  95:./Generated_Source/PSoC5/CyLibNoOS.c ****     /* Add user function code between the following #START and #END tags */
  96:./Generated_Source/PSoC5/CyLibNoOS.c ****     /* `#START _kill` */
  97:./Generated_Source/PSoC5/CyLibNoOS.c **** 
  98:./Generated_Source/PSoC5/CyLibNoOS.c ****   	/* `#END`  */
  99:./Generated_Source/PSoC5/CyLibNoOS.c **** 
 100:./Generated_Source/PSoC5/CyLibNoOS.c ****     errno = ENOSYS;
ARM GAS  C:\Users\blinky\AppData\Local\Temp/ccYRaaaa.s 			page 6


 182              	
 183 000a FFF7FEFF 		mov	r3, #88
 184 000e 0246     		str	r3, [r2, #0]
 185 0010 4FF05803 		.loc 1 101 0
 186 0014 1360     		mov	r3, #-1
 101:./Generated_Source/PSoC5/CyLibNoOS.c ****     return -1;
 187              	c 1 102 0
 188 0016 4FF0FF33 		mov	r0, r3
 102:./Generated_Source/PSoC5/CyLibNoOS.c **** }
 189              	dd	r7, r7, #8
 190 001a 1846     		mov	sp, r7
 191 001c 07F10807 		pop	{r7, pc}
 192 0020 BD46     	.LFE5:
 193 0022 80BD     		.size	_kill, .-_kill
 194              		.section	.text._link,"ax",%progbits
 195              		.align	2
 196              		.global	_link
 197              		.thumb
 198              		.thumb_func
 199              		.type	_link, %function
 200              	_link:
 201              	.LFB6:
 202              		.loc 1 106 0
 203              		@ args = 0, pretend = 0, frame = 8
 103:./Generated_Source/PSoC5/CyLibNoOS.c **** 
 104:./Generated_Source/PSoC5/CyLibNoOS.c **** 
 105:./Generated_Source/PSoC5/CyLibNoOS.c **** int _link(char * existing, char * new)
 106:./Generated_Source/PSoC5/CyLibNoOS.c **** {
 204              	 = 1, uses_anonymous_args = 0
 205              		push	{r7, lr}
 206              	.LCFI12:
 207 0000 80B5     		sub	sp, sp, #8
 208              	.LCFI13:
 209 0002 82B0     		add	r7, sp, #0
 210              	.LCFI14:
 211 0004 00AF     		str	r0, [r7, #4]
 212              		str	r1, [r7, #0]
 213 0006 7860     		.loc 1 112 0
 214 0008 3960     		bl	__errno
 107:./Generated_Source/PSoC5/CyLibNoOS.c ****     /* Add user function code between the following #START and #END tags */
 108:./Generated_Source/PSoC5/CyLibNoOS.c ****     /* `#START _link` */
 109:./Generated_Source/PSoC5/CyLibNoOS.c **** 
 110:./Generated_Source/PSoC5/CyLibNoOS.c ****   	/* `#END`  */
 111:./Generated_Source/PSoC5/CyLibNoOS.c **** 
 112:./Generated_Source/PSoC5/CyLibNoOS.c ****     errno = ENOSYS;
 215              	
 216 000a FFF7FEFF 		mov	r3, #88
 217 000e 0246     		str	r3, [r2, #0]
 218 0010 4FF05803 		.loc 1 113 0
 219 0014 1360     		mov	r3, #-1
 113:./Generated_Source/PSoC5/CyLibNoOS.c ****     return -1;
 220              	c 1 114 0
 221 0016 4FF0FF33 		mov	r0, r3
 114:./Generated_Source/PSoC5/CyLibNoOS.c **** }
 222              	dd	r7, r7, #8
 223 001a 1846     		mov	sp, r7
 224 001c 07F10807 		pop	{r7, pc}
ARM GAS  C:\Users\blinky\AppData\Local\Temp/ccYRaaaa.s 			page 7


 225 0020 BD46     	.LFE6:
 226 0022 80BD     		.size	_link, .-_link
 227              		.section	.text._unlink,"ax",%progbits
 228              		.align	2
 229              		.global	_unlink
 230              		.thumb
 231              		.thumb_func
 232              		.type	_unlink, %function
 233              	_unlink:
 234              	.LFB7:
 235              		.loc 1 117 0
 236              		@ args = 0, pretend = 0, frame = 8
 115:./Generated_Source/PSoC5/CyLibNoOS.c **** 
 116:./Generated_Source/PSoC5/CyLibNoOS.c **** int _unlink(char * name)
 117:./Generated_Source/PSoC5/CyLibNoOS.c **** {
 237              	 = 1, uses_anonymous_args = 0
 238              		push	{r7, lr}
 239              	.LCFI15:
 240 0000 80B5     		sub	sp, sp, #8
 241              	.LCFI16:
 242 0002 82B0     		add	r7, sp, #0
 243              	.LCFI17:
 244 0004 00AF     		str	r0, [r7, #4]
 245              		.loc 1 123 0
 246 0006 7860     		bl	__errno
 118:./Generated_Source/PSoC5/CyLibNoOS.c ****     /* Add user function code between the following #START and #END tags */
 119:./Generated_Source/PSoC5/CyLibNoOS.c ****     /* `#START _unlink` */
 120:./Generated_Source/PSoC5/CyLibNoOS.c **** 
 121:./Generated_Source/PSoC5/CyLibNoOS.c ****   	/* `#END`  */
 122:./Generated_Source/PSoC5/CyLibNoOS.c **** 
 123:./Generated_Source/PSoC5/CyLibNoOS.c ****     errno = ENOSYS;
 247              	0
 248 0008 FFF7FEFF 		mov	r3, #88
 249 000c 0246     		str	r3, [r2, #0]
 250 000e 4FF05803 		.loc 1 124 0
 251 0012 1360     		mov	r3, #-1
 124:./Generated_Source/PSoC5/CyLibNoOS.c ****     return -1;
 252              	 1 125 0
 253 0014 4FF0FF33 		mov	r0, r3
 125:./Generated_Source/PSoC5/CyLibNoOS.c **** }
 254              	dd	r7, r7, #8
 255 0018 1846     		mov	sp, r7
 256 001a 07F10807 		pop	{r7, pc}
 257 001e BD46     	.LFE7:
 258 0020 80BD     		.size	_unlink, .-_unlink
 259              		.section	.text._symlink,"ax",%progbits
 260              		.align	2
 261 0022 C046     		.global	_symlink
 262              		.thumb
 263              		.thumb_func
 264              		.type	_symlink, %function
 265              	_symlink:
 266              	.LFB8:
 267              		.loc 1 129 0
 268              		@ args = 0, pretend = 0, frame = 8
 126:./Generated_Source/PSoC5/CyLibNoOS.c **** 
 127:./Generated_Source/PSoC5/CyLibNoOS.c **** 
ARM GAS  C:\Users\blinky\AppData\Local\Temp/ccYRaaaa.s 			page 8


 128:./Generated_Source/PSoC5/CyLibNoOS.c **** int _symlink(const char *path1, const char *path2)
 129:./Generated_Source/PSoC5/CyLibNoOS.c **** {
 269              	 = 1, uses_anonymous_args = 0
 270              		push	{r7, lr}
 271              	.LCFI18:
 272 0000 80B5     		sub	sp, sp, #8
 273              	.LCFI19:
 274 0002 82B0     		add	r7, sp, #0
 275              	.LCFI20:
 276 0004 00AF     		str	r0, [r7, #4]
 277              		str	r1, [r7, #0]
 278 0006 7860     		.loc 1 135 0
 279 0008 3960     		bl	__errno
 130:./Generated_Source/PSoC5/CyLibNoOS.c ****     /* Add user function code between the following #START and #END tags */
 131:./Generated_Source/PSoC5/CyLibNoOS.c ****     /* `#START _symlink` */
 132:./Generated_Source/PSoC5/CyLibNoOS.c **** 
 133:./Generated_Source/PSoC5/CyLibNoOS.c ****   	/* `#END`  */
 134:./Generated_Source/PSoC5/CyLibNoOS.c **** 
 135:./Generated_Source/PSoC5/CyLibNoOS.c ****     errno = ENOSYS;
 280              	
 281 000a FFF7FEFF 		mov	r3, #88
 282 000e 0246     		str	r3, [r2, #0]
 283 0010 4FF05803 		.loc 1 136 0
 284 0014 1360     		mov	r3, #-1
 136:./Generated_Source/PSoC5/CyLibNoOS.c ****     return -1;
 285              	c 1 137 0
 286 0016 4FF0FF33 		mov	r0, r3
 137:./Generated_Source/PSoC5/CyLibNoOS.c **** }
 287              	dd	r7, r7, #8
 288 001a 1846     		mov	sp, r7
 289 001c 07F10807 		pop	{r7, pc}
 290 0020 BD46     	.LFE8:
 291 0022 80BD     		.size	_symlink, .-_symlink
 292              		.section	.text._readlink,"ax",%progbits
 293              		.align	2
 294              		.global	_readlink
 295              		.thumb
 296              		.thumb_func
 297              		.type	_readlink, %function
 298              	_readlink:
 299              	.LFB9:
 300              		.loc 1 143 0
 301              		@ args = 0, pretend = 0, frame = 16
 138:./Generated_Source/PSoC5/CyLibNoOS.c **** 
 139:./Generated_Source/PSoC5/CyLibNoOS.c **** 
 140:./Generated_Source/PSoC5/CyLibNoOS.c **** typedef int size_t;
 141:./Generated_Source/PSoC5/CyLibNoOS.c **** 
 142:./Generated_Source/PSoC5/CyLibNoOS.c **** int _readlink(const char * path,  char * buffer,  size_t bufferSize)
 143:./Generated_Source/PSoC5/CyLibNoOS.c **** {
 302              	 = 1, uses_anonymous_args = 0
 303              		push	{r7, lr}
 304              	.LCFI21:
 305 0000 80B5     		sub	sp, sp, #16
 306              	.LCFI22:
 307 0002 84B0     		add	r7, sp, #0
 308              	.LCFI23:
 309 0004 00AF     		str	r0, [r7, #12]
ARM GAS  C:\Users\blinky\AppData\Local\Temp/ccYRaaaa.s 			page 9


 310              		str	r1, [r7, #8]
 311 0006 F860     		str	r2, [r7, #4]
 312 0008 B960     		.loc 1 149 0
 313 000a 7A60     		bl	__errno
 144:./Generated_Source/PSoC5/CyLibNoOS.c ****     /* Add user function code between the following #START and #END tags */
 145:./Generated_Source/PSoC5/CyLibNoOS.c ****     /* `#START _readlink` */
 146:./Generated_Source/PSoC5/CyLibNoOS.c **** 
 147:./Generated_Source/PSoC5/CyLibNoOS.c ****   	/* `#END`  */
 148:./Generated_Source/PSoC5/CyLibNoOS.c **** 
 149:./Generated_Source/PSoC5/CyLibNoOS.c ****     errno = ENOSYS;
 314              		mov	r3, #88
 315 000c FFF7FEFF 		str	r3, [r2, #0]
 316 0010 0246     		.loc 1 150 0
 317 0012 4FF05803 		mov	r3, #-1
 318 0016 1360     		.loc 1 151 0
 150:./Generated_Source/PSoC5/CyLibNoOS.c ****     return -1;
 319              	r0, r3
 320 0018 4FF0FF33 		add	r7, r7, #16
 151:./Generated_Source/PSoC5/CyLibNoOS.c **** }
 321              	ov	sp, r7
 322 001c 1846     		pop	{r7, pc}
 323 001e 07F11007 	.LFE9:
 324 0022 BD46     		.size	_readlink, .-_readlink
 325 0024 80BD     		.section	.text._open,"ax",%progbits
 326              		.align	2
 327              		.global	_open
 328 0026 C046     		.thumb
 329              		.thumb_func
 330              		.type	_open, %function
 331              	_open:
 332              	.LFB10:
 333              		.loc 1 155 0
 334              		@ args = 0, pretend = 0, frame = 16
 335              		@ frame_needed = 1, uses_anonymous_args = 0
 152:./Generated_Source/PSoC5/CyLibNoOS.c **** 
 153:./Generated_Source/PSoC5/CyLibNoOS.c **** 
 154:./Generated_Source/PSoC5/CyLibNoOS.c **** int _open(char * file, int flags, int mode)
 155:./Generated_Source/PSoC5/CyLibNoOS.c **** {
 336              	.LCFI24:
 337              		sub	sp, sp, #16
 338              	.LCFI25:
 339 0000 80B5     		add	r7, sp, #0
 340              	.LCFI26:
 341 0002 84B0     		str	r0, [r7, #12]
 342              		str	r1, [r7, #8]
 343 0004 00AF     		str	r2, [r7, #4]
 344              		.loc 1 161 0
 345 0006 F860     		bl	__errno
 346 0008 B960     		mov	r2, r0
 347 000a 7A60     		mov	r3, #88
 156:./Generated_Source/PSoC5/CyLibNoOS.c ****     /* Add user function code between the following #START and #END tags */
 157:./Generated_Source/PSoC5/CyLibNoOS.c ****     /* `#START _open` */
 158:./Generated_Source/PSoC5/CyLibNoOS.c **** 
 159:./Generated_Source/PSoC5/CyLibNoOS.c ****   	/* `#END`  */
 160:./Generated_Source/PSoC5/CyLibNoOS.c **** 
 161:./Generated_Source/PSoC5/CyLibNoOS.c ****     errno = ENOSYS;
 348              	, #0]
ARM GAS  C:\Users\blinky\AppData\Local\Temp/ccYRaaaa.s 			page 10


 349 000c FFF7FEFF 		.loc 1 162 0
 350 0010 0246     		mov	r3, #-1
 351 0012 4FF05803 		.loc 1 163 0
 352 0016 1360     		mov	r0, r3
 162:./Generated_Source/PSoC5/CyLibNoOS.c ****     return -1;
 353              	r7, r7, #16
 354 0018 4FF0FF33 		mov	sp, r7
 163:./Generated_Source/PSoC5/CyLibNoOS.c **** }
 355              	op	{r7, pc}
 356 001c 1846     	.LFE10:
 357 001e 07F11007 		.size	_open, .-_open
 358 0022 BD46     		.section	.text._close,"ax",%progbits
 359 0024 80BD     		.align	2
 360              		.global	_close
 361              		.thumb
 362 0026 C046     		.thumb_func
 363              		.type	_close, %function
 364              	_close:
 365              	.LFB11:
 366              		.loc 1 167 0
 367              		@ args = 0, pretend = 0, frame = 8
 368              		@ frame_needed = 1, uses_anonymous_args = 0
 369              		push	{r7, lr}
 164:./Generated_Source/PSoC5/CyLibNoOS.c **** 
 165:./Generated_Source/PSoC5/CyLibNoOS.c **** 
 166:./Generated_Source/PSoC5/CyLibNoOS.c **** int _close(int fileDescriptor)
 167:./Generated_Source/PSoC5/CyLibNoOS.c **** {
 370              	p, sp, #8
 371              	.LCFI28:
 372              		add	r7, sp, #0
 373 0000 80B5     	.LCFI29:
 374              		str	r0, [r7, #4]
 375 0002 82B0     		.loc 1 173 0
 376              		bl	__errno
 377 0004 00AF     		mov	r2, r0
 378              		mov	r3, #88
 379 0006 7860     		str	r3, [r2, #0]
 168:./Generated_Source/PSoC5/CyLibNoOS.c ****     /* Add user function code between the following #START and #END tags */
 169:./Generated_Source/PSoC5/CyLibNoOS.c ****     /* `#START _close` */
 170:./Generated_Source/PSoC5/CyLibNoOS.c **** 
 171:./Generated_Source/PSoC5/CyLibNoOS.c ****   	/* `#END`  */
 172:./Generated_Source/PSoC5/CyLibNoOS.c **** 
 173:./Generated_Source/PSoC5/CyLibNoOS.c ****     errno = ENOSYS;
 380              	4 0
 381 0008 FFF7FEFF 		mov	r3, #-1
 382 000c 0246     		.loc 1 175 0
 383 000e 4FF05803 		mov	r0, r3
 384 0012 1360     		add	r7, r7, #8
 174:./Generated_Source/PSoC5/CyLibNoOS.c ****     return -1;
 385              	sp, r7
 386 0014 4FF0FF33 		pop	{r7, pc}
 175:./Generated_Source/PSoC5/CyLibNoOS.c **** }
 387              	FE11:
 388 0018 1846     		.size	_close, .-_close
 389 001a 07F10807 		.section	.text.isatty,"ax",%progbits
 390 001e BD46     		.align	2
 391 0020 80BD     		.global	isatty
ARM GAS  C:\Users\blinky\AppData\Local\Temp/ccYRaaaa.s 			page 11


 392              		.thumb
 393              		.thumb_func
 394 0022 C046     		.type	isatty, %function
 395              	isatty:
 396              	.LFB12:
 397              		.loc 1 178 0
 398              		@ args = 0, pretend = 0, frame = 8
 399              		@ frame_needed = 1, uses_anonymous_args = 0
 400              		push	{r7, lr}
 401              	.LCFI30:
 176:./Generated_Source/PSoC5/CyLibNoOS.c **** 
 177:./Generated_Source/PSoC5/CyLibNoOS.c **** int isatty(int file)
 178:./Generated_Source/PSoC5/CyLibNoOS.c **** {
 402              	
 403              	.LCFI31:
 404              		add	r7, sp, #0
 405 0000 80B5     	.LCFI32:
 406              		str	r0, [r7, #4]
 407 0002 82B0     		.loc 1 184 0
 408              		bl	__errno
 409 0004 00AF     		mov	r2, r0
 410              		mov	r3, #88
 411 0006 7860     		str	r3, [r2, #0]
 179:./Generated_Source/PSoC5/CyLibNoOS.c ****     /* Add user function code between the following #START and #END tags */
 180:./Generated_Source/PSoC5/CyLibNoOS.c ****     /* `#START _isatty` */
 181:./Generated_Source/PSoC5/CyLibNoOS.c **** 
 182:./Generated_Source/PSoC5/CyLibNoOS.c ****   	/* `#END`  */
 183:./Generated_Source/PSoC5/CyLibNoOS.c **** 
 184:./Generated_Source/PSoC5/CyLibNoOS.c ****     errno = ENOSYS;
 412              	85 0
 413 0008 FFF7FEFF 		mov	r3, #0
 414 000c 0246     		.loc 1 186 0
 415 000e 4FF05803 		mov	r0, r3
 416 0012 1360     		add	r7, r7, #8
 185:./Generated_Source/PSoC5/CyLibNoOS.c ****     return 0;
 417              	sp, r7
 418 0014 4FF00003 		pop	{r7, pc}
 186:./Generated_Source/PSoC5/CyLibNoOS.c **** }
 419              	FE12:
 420 0018 1846     		.size	isatty, .-isatty
 421 001a 07F10807 		.section	.text._write,"ax",%progbits
 422 001e BD46     		.align	2
 423 0020 80BD     		.global	_write
 424              		.thumb
 425              		.thumb_func
 426 0022 C046     		.type	_write, %function
 427              	_write:
 428              	.LFB13:
 429              		.loc 1 189 0
 430              		@ args = 0, pretend = 0, frame = 16
 431              		@ frame_needed = 1, uses_anonymous_args = 0
 432              		push	{r7, lr}
 433              	.LCFI33:
 187:./Generated_Source/PSoC5/CyLibNoOS.c **** 
 188:./Generated_Source/PSoC5/CyLibNoOS.c **** int _write(int file, char * pointer, int length)
 189:./Generated_Source/PSoC5/CyLibNoOS.c **** {
 434              	6
ARM GAS  C:\Users\blinky\AppData\Local\Temp/ccYRaaaa.s 			page 12


 435              	.LCFI34:
 436              		add	r7, sp, #0
 437 0000 80B5     	.LCFI35:
 438              		str	r0, [r7, #12]
 439 0002 84B0     		str	r1, [r7, #8]
 440              		str	r2, [r7, #4]
 441 0004 00AF     		.loc 1 195 0
 442              		bl	__errno
 443 0006 F860     		mov	r2, r0
 444 0008 B960     		mov	r3, #88
 445 000a 7A60     		str	r3, [r2, #0]
 190:./Generated_Source/PSoC5/CyLibNoOS.c ****     /* Add user function code between the following #START and #END tags */
 191:./Generated_Source/PSoC5/CyLibNoOS.c ****     /* `#START _write` */
 192:./Generated_Source/PSoC5/CyLibNoOS.c **** 
 193:./Generated_Source/PSoC5/CyLibNoOS.c ****   	/* `#END`  */
 194:./Generated_Source/PSoC5/CyLibNoOS.c **** 
 195:./Generated_Source/PSoC5/CyLibNoOS.c ****     errno = ENOSYS;
 446              	0
 447 000c FFF7FEFF 		mov	r3, #-1
 448 0010 0246     		.loc 1 197 0
 449 0012 4FF05803 		mov	r0, r3
 450 0016 1360     		add	r7, r7, #16
 196:./Generated_Source/PSoC5/CyLibNoOS.c ****     return -1;
 451              	sp, r7
 452 0018 4FF0FF33 		pop	{r7, pc}
 197:./Generated_Source/PSoC5/CyLibNoOS.c **** }
 453              	FE13:
 454 001c 1846     		.size	_write, .-_write
 455 001e 07F11007 		.section	.text._read,"ax",%progbits
 456 0022 BD46     		.align	2
 457 0024 80BD     		.global	_read
 458              		.thumb
 459              		.thumb_func
 460 0026 C046     		.type	_read, %function
 461              	_read:
 462              	.LFB14:
 463              		.loc 1 201 0
 464              		@ args = 0, pretend = 0, frame = 16
 465              		@ frame_needed = 1, uses_anonymous_args = 0
 466              		push	{r7, lr}
 467              	.LCFI36:
 198:./Generated_Source/PSoC5/CyLibNoOS.c **** 
 199:./Generated_Source/PSoC5/CyLibNoOS.c **** 
 200:./Generated_Source/PSoC5/CyLibNoOS.c **** int _read(int file, char *ptr, int length)
 201:./Generated_Source/PSoC5/CyLibNoOS.c **** {
 468              	6
 469              	.LCFI37:
 470              		add	r7, sp, #0
 471 0000 80B5     	.LCFI38:
 472              		str	r0, [r7, #12]
 473 0002 84B0     		str	r1, [r7, #8]
 474              		str	r2, [r7, #4]
 475 0004 00AF     		.loc 1 207 0
 476              		bl	__errno
 477 0006 F860     		mov	r2, r0
 478 0008 B960     		mov	r3, #88
 479 000a 7A60     		str	r3, [r2, #0]
ARM GAS  C:\Users\blinky\AppData\Local\Temp/ccYRaaaa.s 			page 13


 202:./Generated_Source/PSoC5/CyLibNoOS.c ****     /* Add user function code between the following #START and #END tags */
 203:./Generated_Source/PSoC5/CyLibNoOS.c ****     /* `#START _read` */
 204:./Generated_Source/PSoC5/CyLibNoOS.c **** 
 205:./Generated_Source/PSoC5/CyLibNoOS.c ****   	/* `#END`  */
 206:./Generated_Source/PSoC5/CyLibNoOS.c **** 
 207:./Generated_Source/PSoC5/CyLibNoOS.c ****     errno = ENOSYS;
 480              	0
 481 000c FFF7FEFF 		mov	r3, #-1
 482 0010 0246     		.loc 1 209 0
 483 0012 4FF05803 		mov	r0, r3
 484 0016 1360     		add	r7, r7, #16
 208:./Generated_Source/PSoC5/CyLibNoOS.c ****     return -1;
 485              	sp, r7
 486 0018 4FF0FF33 		pop	{r7, pc}
 209:./Generated_Source/PSoC5/CyLibNoOS.c **** }
 487              	FE14:
 488 001c 1846     		.size	_read, .-_read
 489 001e 07F11007 		.section	.text._lseek,"ax",%progbits
 490 0022 BD46     		.align	2
 491 0024 80BD     		.global	_lseek
 492              		.thumb
 493              		.thumb_func
 494 0026 C046     		.type	_lseek, %function
 495              	_lseek:
 496              	.LFB15:
 497              		.loc 1 213 0
 498              		@ args = 0, pretend = 0, frame = 16
 499              		@ frame_needed = 1, uses_anonymous_args = 0
 500              		push	{r7, lr}
 501              	.LCFI39:
 210:./Generated_Source/PSoC5/CyLibNoOS.c **** 
 211:./Generated_Source/PSoC5/CyLibNoOS.c **** 
 212:./Generated_Source/PSoC5/CyLibNoOS.c **** int _lseek(int file, int ptr, int dir)
 213:./Generated_Source/PSoC5/CyLibNoOS.c **** {
 502              	6
 503              	.LCFI40:
 504              		add	r7, sp, #0
 505 0000 80B5     	.LCFI41:
 506              		str	r0, [r7, #12]
 507 0002 84B0     		str	r1, [r7, #8]
 508              		str	r2, [r7, #4]
 509 0004 00AF     		.loc 1 219 0
 510              		bl	__errno
 511 0006 F860     		mov	r2, r0
 512 0008 B960     		mov	r3, #88
 513 000a 7A60     		str	r3, [r2, #0]
 214:./Generated_Source/PSoC5/CyLibNoOS.c ****     /* Add user function code between the following #START and #END tags */
 215:./Generated_Source/PSoC5/CyLibNoOS.c ****     /* `#START _lseek` */
 216:./Generated_Source/PSoC5/CyLibNoOS.c **** 
 217:./Generated_Source/PSoC5/CyLibNoOS.c ****   	/* `#END`  */
 218:./Generated_Source/PSoC5/CyLibNoOS.c **** 
 219:./Generated_Source/PSoC5/CyLibNoOS.c ****     errno = ENOSYS;
 514              	0
 515 000c FFF7FEFF 		mov	r3, #-1
 516 0010 0246     		.loc 1 221 0
 517 0012 4FF05803 		mov	r0, r3
 518 0016 1360     		add	r7, r7, #16
ARM GAS  C:\Users\blinky\AppData\Local\Temp/ccYRaaaa.s 			page 14


 220:./Generated_Source/PSoC5/CyLibNoOS.c ****     return -1;
 519              	sp, r7
 520 0018 4FF0FF33 		pop	{r7, pc}
 221:./Generated_Source/PSoC5/CyLibNoOS.c **** }
 521              	FE15:
 522 001c 1846     		.size	_lseek, .-_lseek
 523 001e 07F11007 		.section	.text._fstat,"ax",%progbits
 524 0022 BD46     		.align	2
 525 0024 80BD     		.global	_fstat
 526              		.thumb
 527              		.thumb_func
 528 0026 C046     		.type	_fstat, %function
 529              	_fstat:
 530              	.LFB16:
 531              		.loc 1 231 0
 532              		@ args = 0, pretend = 0, frame = 8
 533              		@ frame_needed = 1, uses_anonymous_args = 0
 534              		push	{r7, lr}
 535              	.LCFI42:
 222:./Generated_Source/PSoC5/CyLibNoOS.c **** 
 223:./Generated_Source/PSoC5/CyLibNoOS.c **** 
 224:./Generated_Source/PSoC5/CyLibNoOS.c **** /* We don't support this functionality so the struct is only ... */
 225:./Generated_Source/PSoC5/CyLibNoOS.c **** struct stat
 226:./Generated_Source/PSoC5/CyLibNoOS.c **** {
 227:./Generated_Source/PSoC5/CyLibNoOS.c **** 	uint8 useless;
 228:./Generated_Source/PSoC5/CyLibNoOS.c **** };
 229:./Generated_Source/PSoC5/CyLibNoOS.c **** 
 230:./Generated_Source/PSoC5/CyLibNoOS.c **** int _fstat(int fildes, struct stat * buffer)
 231:./Generated_Source/PSoC5/CyLibNoOS.c **** {
 536              	
 537              	.LCFI43:
 538              		add	r7, sp, #0
 539 0000 80B5     	.LCFI44:
 540              		str	r0, [r7, #4]
 541 0002 82B0     		str	r1, [r7, #0]
 542              		.loc 1 237 0
 543 0004 00AF     		bl	__errno
 544              		mov	r2, r0
 545 0006 7860     		mov	r3, #88
 546 0008 3960     		str	r3, [r2, #0]
 232:./Generated_Source/PSoC5/CyLibNoOS.c ****     /* Add user function code between the following #START and #END tags */
 233:./Generated_Source/PSoC5/CyLibNoOS.c ****     /* `#START _fstat` */
 234:./Generated_Source/PSoC5/CyLibNoOS.c **** 
 235:./Generated_Source/PSoC5/CyLibNoOS.c ****   	/* `#END`  */
 236:./Generated_Source/PSoC5/CyLibNoOS.c **** 
 237:./Generated_Source/PSoC5/CyLibNoOS.c ****     errno = ENOSYS;
 547              	8 0
 548 000a FFF7FEFF 		mov	r3, #-1
 549 000e 0246     		.loc 1 239 0
 550 0010 4FF05803 		mov	r0, r3
 551 0014 1360     		add	r7, r7, #8
 238:./Generated_Source/PSoC5/CyLibNoOS.c ****     return -1;
 552              	sp, r7
 553 0016 4FF0FF33 		pop	{r7, pc}
 239:./Generated_Source/PSoC5/CyLibNoOS.c **** }
 554              	FE16:
 555 001a 1846     		.size	_fstat, .-_fstat
ARM GAS  C:\Users\blinky\AppData\Local\Temp/ccYRaaaa.s 			page 15


 556 001c 07F10807 		.section	.text._stat,"ax",%progbits
 557 0020 BD46     		.align	2
 558 0022 80BD     		.global	_stat
 559              		.thumb
 560              		.thumb_func
 561              		.type	_stat, %function
 562              	_stat:
 563              	.LFB17:
 564              		.loc 1 242 0
 565              		@ args = 0, pretend = 0, frame = 8
 566              		@ frame_needed = 1, uses_anonymous_args = 0
 567              		push	{r7, lr}
 568              	.LCFI45:
 240:./Generated_Source/PSoC5/CyLibNoOS.c **** 
 241:./Generated_Source/PSoC5/CyLibNoOS.c **** int _stat(const char * file, struct stat *st)
 242:./Generated_Source/PSoC5/CyLibNoOS.c **** {
 569              	
 570              	.LCFI46:
 571              		add	r7, sp, #0
 572 0000 80B5     	.LCFI47:
 573              		str	r0, [r7, #4]
 574 0002 82B0     		str	r1, [r7, #0]
 575              		.loc 1 248 0
 576 0004 00AF     		bl	__errno
 577              		mov	r2, r0
 578 0006 7860     		mov	r3, #88
 579 0008 3960     		str	r3, [r2, #0]
 243:./Generated_Source/PSoC5/CyLibNoOS.c ****     /* Add user function code between the following #START and #END tags */
 244:./Generated_Source/PSoC5/CyLibNoOS.c ****     /* `#START _stat` */
 245:./Generated_Source/PSoC5/CyLibNoOS.c **** 
 246:./Generated_Source/PSoC5/CyLibNoOS.c ****   	/* `#END`  */
 247:./Generated_Source/PSoC5/CyLibNoOS.c **** 
 248:./Generated_Source/PSoC5/CyLibNoOS.c ****     errno = ENOSYS;
 580              	9 0
 581 000a FFF7FEFF 		mov	r3, #-1
 582 000e 0246     		.loc 1 250 0
 583 0010 4FF05803 		mov	r0, r3
 584 0014 1360     		add	r7, r7, #8
 249:./Generated_Source/PSoC5/CyLibNoOS.c ****     return -1;
 585              	sp, r7
 586 0016 4FF0FF33 		pop	{r7, pc}
 250:./Generated_Source/PSoC5/CyLibNoOS.c **** }
 587              	FE17:
 588 001a 1846     		.size	_stat, .-_stat
 589 001c 07F10807 		.section	.text._getpid,"ax",%progbits
 590 0020 BD46     		.align	2
 591 0022 80BD     		.global	_getpid
 592              		.thumb
 593              		.thumb_func
 594              		.type	_getpid, %function
 595              	_getpid:
 596              	.LFB18:
 597              		.loc 1 253 0
 598              		@ args = 0, pretend = 0, frame = 0
 599              		@ frame_needed = 1, uses_anonymous_args = 0
 600              		push	{r7, lr}
 601              	.LCFI48:
ARM GAS  C:\Users\blinky\AppData\Local\Temp/ccYRaaaa.s 			page 16


 251:./Generated_Source/PSoC5/CyLibNoOS.c **** 
 252:./Generated_Source/PSoC5/CyLibNoOS.c **** int _getpid(void)
 253:./Generated_Source/PSoC5/CyLibNoOS.c **** {
 602              	
 603              	.LCFI49:
 604              		.loc 1 259 0
 605 0000 80B5     		bl	__errno
 606              		mov	r2, r0
 607 0002 00AF     		mov	r3, #88
 608              		str	r3, [r2, #0]
 254:./Generated_Source/PSoC5/CyLibNoOS.c ****     /* Add user function code between the following #START and #END tags */
 255:./Generated_Source/PSoC5/CyLibNoOS.c ****     /* `#START _getpid` */
 256:./Generated_Source/PSoC5/CyLibNoOS.c **** 
 257:./Generated_Source/PSoC5/CyLibNoOS.c ****   	/* `#END`  */
 258:./Generated_Source/PSoC5/CyLibNoOS.c **** 
 259:./Generated_Source/PSoC5/CyLibNoOS.c ****     errno = ENOSYS;
 609              	1 260 0
 610 0004 FFF7FEFF 		mov	r3, #-1
 611 0008 0246     		.loc 1 261 0
 612 000a 4FF05803 		mov	r0, r3
 613 000e 1360     		mov	sp, r7
 260:./Generated_Source/PSoC5/CyLibNoOS.c ****     return -1;
 614              	{r7, pc}
 615 0010 4FF0FF33 	.LFE18:
 261:./Generated_Source/PSoC5/CyLibNoOS.c **** }
 616              	size	_getpid, .-_getpid
 617 0014 1846     		.section	.text._fork,"ax",%progbits
 618 0016 BD46     		.align	2
 619 0018 80BD     		.global	_fork
 620              		.thumb
 621              		.thumb_func
 622 001a C046     		.type	_fork, %function
 623              	_fork:
 624              	.LFB19:
 625              		.loc 1 264 0
 626              		@ args = 0, pretend = 0, frame = 0
 627              		@ frame_needed = 1, uses_anonymous_args = 0
 628              		push	{r7, lr}
 629              	.LCFI50:
 262:./Generated_Source/PSoC5/CyLibNoOS.c **** 
 263:./Generated_Source/PSoC5/CyLibNoOS.c **** int _fork(void)
 264:./Generated_Source/PSoC5/CyLibNoOS.c **** {
 630              	0
 631              	.LCFI51:
 632              		.loc 1 270 0
 633 0000 80B5     		bl	__errno
 634              		mov	r2, r0
 635 0002 00AF     		mov	r3, #88
 636              		str	r3, [r2, #0]
 265:./Generated_Source/PSoC5/CyLibNoOS.c ****     /* Add user function code between the following #START and #END tags */
 266:./Generated_Source/PSoC5/CyLibNoOS.c ****     /* `#START _fork` */
 267:./Generated_Source/PSoC5/CyLibNoOS.c **** 
 268:./Generated_Source/PSoC5/CyLibNoOS.c ****   	/* `#END`  */
 269:./Generated_Source/PSoC5/CyLibNoOS.c **** 
 270:./Generated_Source/PSoC5/CyLibNoOS.c ****     errno = ENOSYS;
 637              	 271 0
 638 0004 FFF7FEFF 		mov	r3, #-1
ARM GAS  C:\Users\blinky\AppData\Local\Temp/ccYRaaaa.s 			page 17


 639 0008 0246     		.loc 1 272 0
 640 000a 4FF05803 		mov	r0, r3
 641 000e 1360     		mov	sp, r7
 271:./Generated_Source/PSoC5/CyLibNoOS.c ****     return -1;
 642              	{r7, pc}
 643 0010 4FF0FF33 	.LFE19:
 272:./Generated_Source/PSoC5/CyLibNoOS.c **** }
 644              	size	_fork, .-_fork
 645 0014 1846     		.section	.debug_frame,"",%progbits
 646 0016 BD46     	.Lframe0:
 647 0018 80BD     		.4byte	.LECIE0-.LSCIE0
 648              	.LSCIE0:
 649              		.4byte	0xffffffff
 650 001a C046     		.byte	0x1
 651              		.ascii	"\000"
 652 0000 0C000000 		.uleb128 0x1
 653              		.sleb128 -4
 654 0004 FFFFFFFF 		.byte	0xe
 655 0008 01       		.byte	0xc
 656 0009 00       		.uleb128 0xd
 657 000a 01       		.uleb128 0x0
 658 000b 7C       		.align	2
 659 000c 0E       	.LECIE0:
 660 000d 0C       	.LSFDE0:
 661 000e 0D       		.4byte	.LEFDE0-.LASFDE0
 662 000f 00       	.LASFDE0:
 663              		.4byte	.Lframe0
 664              		.4byte	.LFB2
 665              		.4byte	.LFE2-.LFB2
 666 0010 1C000000 		.byte	0x4
 667              		.4byte	.LCFI0-.LFB2
 668 0014 00000000 		.byte	0xe
 669 0018 00000000 		.uleb128 0x8
 670 001c 50000000 		.byte	0x4
 671 0020 42       		.4byte	.LCFI1-.LCFI0
 672              		.byte	0xe
 673 0021 0E       		.uleb128 0x18
 674 0022 08       		.byte	0x8e
 675 0023 42       		.uleb128 0x1
 676              		.byte	0x87
 677 0024 0E       		.uleb128 0x2
 678 0025 18       		.byte	0x4
 679 0026 8E       		.4byte	.LCFI2-.LCFI1
 680 0027 01       		.byte	0xd
 681 0028 87       		.uleb128 0x7
 682 0029 02       		.align	2
 683 002a 42       	.LEFDE0:
 684              	.LSFDE2:
 685 002b 0D       		.4byte	.LEFDE2-.LASFDE2
 686 002c 07       	.LASFDE2:
 687 002d 000000   		.4byte	.Lframe0
 688              		.4byte	.LFB3
 689              		.4byte	.LFE3-.LFB3
 690 0030 1C000000 		.byte	0x4
 691              		.4byte	.LCFI3-.LFB3
 692 0034 00000000 		.byte	0xe
 693 0038 00000000 		.uleb128 0x8
ARM GAS  C:\Users\blinky\AppData\Local\Temp/ccYRaaaa.s 			page 18


 694 003c 22000000 		.byte	0x4
 695 0040 42       		.4byte	.LCFI4-.LCFI3
 696              		.byte	0xe
 697 0041 0E       		.uleb128 0x10
 698 0042 08       		.byte	0x8e
 699 0043 42       		.uleb128 0x1
 700              		.byte	0x87
 701 0044 0E       		.uleb128 0x2
 702 0045 10       		.byte	0x4
 703 0046 8E       		.4byte	.LCFI5-.LCFI4
 704 0047 01       		.byte	0xd
 705 0048 87       		.uleb128 0x7
 706 0049 02       		.align	2
 707 004a 42       	.LEFDE2:
 708              	.LSFDE4:
 709 004b 0D       		.4byte	.LEFDE4-.LASFDE4
 710 004c 07       	.LASFDE4:
 711 004d 000000   		.4byte	.Lframe0
 712              		.4byte	.LFB4
 713              		.4byte	.LFE4-.LFB4
 714 0050 18000000 		.byte	0x4
 715              		.4byte	.LCFI6-.LFB4
 716 0054 00000000 		.byte	0xe
 717 0058 00000000 		.uleb128 0x4
 718 005c 0A000000 		.byte	0x4
 719 0060 42       		.4byte	.LCFI7-.LCFI6
 720              		.byte	0xe
 721 0061 0E       		.uleb128 0x10
 722 0062 04       		.byte	0x87
 723 0063 42       		.uleb128 0x1
 724              		.byte	0x4
 725 0064 0E       		.4byte	.LCFI8-.LCFI7
 726 0065 10       		.byte	0xd
 727 0066 87       		.uleb128 0x7
 728 0067 01       		.align	2
 729 0068 42       	.LEFDE4:
 730              	.LSFDE6:
 731 0069 0D       		.4byte	.LEFDE6-.LASFDE6
 732 006a 07       	.LASFDE6:
 733 006b 00       		.4byte	.Lframe0
 734              		.4byte	.LFB5
 735              		.4byte	.LFE5-.LFB5
 736 006c 1C000000 		.byte	0x4
 737              		.4byte	.LCFI9-.LFB5
 738 0070 00000000 		.byte	0xe
 739 0074 00000000 		.uleb128 0x8
 740 0078 24000000 		.byte	0x4
 741 007c 42       		.4byte	.LCFI10-.LCFI9
 742              		.byte	0xe
 743 007d 0E       		.uleb128 0x10
 744 007e 08       		.byte	0x8e
 745 007f 42       		.uleb128 0x1
 746              		.byte	0x87
 747 0080 0E       		.uleb128 0x2
 748 0081 10       		.byte	0x4
 749 0082 8E       		.4byte	.LCFI11-.LCFI10
 750 0083 01       		.byte	0xd
ARM GAS  C:\Users\blinky\AppData\Local\Temp/ccYRaaaa.s 			page 19


 751 0084 87       		.uleb128 0x7
 752 0085 02       		.align	2
 753 0086 42       	.LEFDE6:
 754              	.LSFDE8:
 755 0087 0D       		.4byte	.LEFDE8-.LASFDE8
 756 0088 07       	.LASFDE8:
 757 0089 000000   		.4byte	.Lframe0
 758              		.4byte	.LFB6
 759              		.4byte	.LFE6-.LFB6
 760 008c 1C000000 		.byte	0x4
 761              		.4byte	.LCFI12-.LFB6
 762 0090 00000000 		.byte	0xe
 763 0094 00000000 		.uleb128 0x8
 764 0098 24000000 		.byte	0x4
 765 009c 42       		.4byte	.LCFI13-.LCFI12
 766              		.byte	0xe
 767 009d 0E       		.uleb128 0x10
 768 009e 08       		.byte	0x8e
 769 009f 42       		.uleb128 0x1
 770              		.byte	0x87
 771 00a0 0E       		.uleb128 0x2
 772 00a1 10       		.byte	0x4
 773 00a2 8E       		.4byte	.LCFI14-.LCFI13
 774 00a3 01       		.byte	0xd
 775 00a4 87       		.uleb128 0x7
 776 00a5 02       		.align	2
 777 00a6 42       	.LEFDE8:
 778              	.LSFDE10:
 779 00a7 0D       		.4byte	.LEFDE10-.LASFDE10
 780 00a8 07       	.LASFDE10:
 781 00a9 000000   		.4byte	.Lframe0
 782              		.4byte	.LFB7
 783              		.4byte	.LFE7-.LFB7
 784 00ac 1C000000 		.byte	0x4
 785              		.4byte	.LCFI15-.LFB7
 786 00b0 00000000 		.byte	0xe
 787 00b4 00000000 		.uleb128 0x8
 788 00b8 22000000 		.byte	0x4
 789 00bc 42       		.4byte	.LCFI16-.LCFI15
 790              		.byte	0xe
 791 00bd 0E       		.uleb128 0x10
 792 00be 08       		.byte	0x8e
 793 00bf 42       		.uleb128 0x1
 794              		.byte	0x87
 795 00c0 0E       		.uleb128 0x2
 796 00c1 10       		.byte	0x4
 797 00c2 8E       		.4byte	.LCFI17-.LCFI16
 798 00c3 01       		.byte	0xd
 799 00c4 87       		.uleb128 0x7
 800 00c5 02       		.align	2
 801 00c6 42       	.LEFDE10:
 802              	.LSFDE12:
 803 00c7 0D       		.4byte	.LEFDE12-.LASFDE12
 804 00c8 07       	.LASFDE12:
 805 00c9 000000   		.4byte	.Lframe0
 806              		.4byte	.LFB8
 807              		.4byte	.LFE8-.LFB8
ARM GAS  C:\Users\blinky\AppData\Local\Temp/ccYRaaaa.s 			page 20


 808 00cc 1C000000 		.byte	0x4
 809              		.4byte	.LCFI18-.LFB8
 810 00d0 00000000 		.byte	0xe
 811 00d4 00000000 		.uleb128 0x8
 812 00d8 24000000 		.byte	0x4
 813 00dc 42       		.4byte	.LCFI19-.LCFI18
 814              		.byte	0xe
 815 00dd 0E       		.uleb128 0x10
 816 00de 08       		.byte	0x8e
 817 00df 42       		.uleb128 0x1
 818              		.byte	0x87
 819 00e0 0E       		.uleb128 0x2
 820 00e1 10       		.byte	0x4
 821 00e2 8E       		.4byte	.LCFI20-.LCFI19
 822 00e3 01       		.byte	0xd
 823 00e4 87       		.uleb128 0x7
 824 00e5 02       		.align	2
 825 00e6 42       	.LEFDE12:
 826              	.LSFDE14:
 827 00e7 0D       		.4byte	.LEFDE14-.LASFDE14
 828 00e8 07       	.LASFDE14:
 829 00e9 000000   		.4byte	.Lframe0
 830              		.4byte	.LFB9
 831              		.4byte	.LFE9-.LFB9
 832 00ec 1C000000 		.byte	0x4
 833              		.4byte	.LCFI21-.LFB9
 834 00f0 00000000 		.byte	0xe
 835 00f4 00000000 		.uleb128 0x8
 836 00f8 26000000 		.byte	0x4
 837 00fc 42       		.4byte	.LCFI22-.LCFI21
 838              		.byte	0xe
 839 00fd 0E       		.uleb128 0x18
 840 00fe 08       		.byte	0x8e
 841 00ff 42       		.uleb128 0x1
 842              		.byte	0x87
 843 0100 0E       		.uleb128 0x2
 844 0101 18       		.byte	0x4
 845 0102 8E       		.4byte	.LCFI23-.LCFI22
 846 0103 01       		.byte	0xd
 847 0104 87       		.uleb128 0x7
 848 0105 02       		.align	2
 849 0106 42       	.LEFDE14:
 850              	.LSFDE16:
 851 0107 0D       		.4byte	.LEFDE16-.LASFDE16
 852 0108 07       	.LASFDE16:
 853 0109 000000   		.4byte	.Lframe0
 854              		.4byte	.LFB10
 855              		.4byte	.LFE10-.LFB10
 856 010c 1C000000 		.byte	0x4
 857              		.4byte	.LCFI24-.LFB10
 858 0110 00000000 		.byte	0xe
 859 0114 00000000 		.uleb128 0x8
 860 0118 26000000 		.byte	0x4
 861 011c 42       		.4byte	.LCFI25-.LCFI24
 862              		.byte	0xe
 863 011d 0E       		.uleb128 0x18
 864 011e 08       		.byte	0x8e
ARM GAS  C:\Users\blinky\AppData\Local\Temp/ccYRaaaa.s 			page 21


 865 011f 42       		.uleb128 0x1
 866              		.byte	0x87
 867 0120 0E       		.uleb128 0x2
 868 0121 18       		.byte	0x4
 869 0122 8E       		.4byte	.LCFI26-.LCFI25
 870 0123 01       		.byte	0xd
 871 0124 87       		.uleb128 0x7
 872 0125 02       		.align	2
 873 0126 42       	.LEFDE16:
 874              	.LSFDE18:
 875 0127 0D       		.4byte	.LEFDE18-.LASFDE18
 876 0128 07       	.LASFDE18:
 877 0129 000000   		.4byte	.Lframe0
 878              		.4byte	.LFB11
 879              		.4byte	.LFE11-.LFB11
 880 012c 1C000000 		.byte	0x4
 881              		.4byte	.LCFI27-.LFB11
 882 0130 00000000 		.byte	0xe
 883 0134 00000000 		.uleb128 0x8
 884 0138 22000000 		.byte	0x4
 885 013c 42       		.4byte	.LCFI28-.LCFI27
 886              		.byte	0xe
 887 013d 0E       		.uleb128 0x10
 888 013e 08       		.byte	0x8e
 889 013f 42       		.uleb128 0x1
 890              		.byte	0x87
 891 0140 0E       		.uleb128 0x2
 892 0141 10       		.byte	0x4
 893 0142 8E       		.4byte	.LCFI29-.LCFI28
 894 0143 01       		.byte	0xd
 895 0144 87       		.uleb128 0x7
 896 0145 02       		.align	2
 897 0146 42       	.LEFDE18:
 898              	.LSFDE20:
 899 0147 0D       		.4byte	.LEFDE20-.LASFDE20
 900 0148 07       	.LASFDE20:
 901 0149 000000   		.4byte	.Lframe0
 902              		.4byte	.LFB12
 903              		.4byte	.LFE12-.LFB12
 904 014c 1C000000 		.byte	0x4
 905              		.4byte	.LCFI30-.LFB12
 906 0150 00000000 		.byte	0xe
 907 0154 00000000 		.uleb128 0x8
 908 0158 22000000 		.byte	0x4
 909 015c 42       		.4byte	.LCFI31-.LCFI30
 910              		.byte	0xe
 911 015d 0E       		.uleb128 0x10
 912 015e 08       		.byte	0x8e
 913 015f 42       		.uleb128 0x1
 914              		.byte	0x87
 915 0160 0E       		.uleb128 0x2
 916 0161 10       		.byte	0x4
 917 0162 8E       		.4byte	.LCFI32-.LCFI31
 918 0163 01       		.byte	0xd
 919 0164 87       		.uleb128 0x7
 920 0165 02       		.align	2
 921 0166 42       	.LEFDE20:
ARM GAS  C:\Users\blinky\AppData\Local\Temp/ccYRaaaa.s 			page 22


 922              	.LSFDE22:
 923 0167 0D       		.4byte	.LEFDE22-.LASFDE22
 924 0168 07       	.LASFDE22:
 925 0169 000000   		.4byte	.Lframe0
 926              		.4byte	.LFB13
 927              		.4byte	.LFE13-.LFB13
 928 016c 1C000000 		.byte	0x4
 929              		.4byte	.LCFI33-.LFB13
 930 0170 00000000 		.byte	0xe
 931 0174 00000000 		.uleb128 0x8
 932 0178 26000000 		.byte	0x4
 933 017c 42       		.4byte	.LCFI34-.LCFI33
 934              		.byte	0xe
 935 017d 0E       		.uleb128 0x18
 936 017e 08       		.byte	0x8e
 937 017f 42       		.uleb128 0x1
 938              		.byte	0x87
 939 0180 0E       		.uleb128 0x2
 940 0181 18       		.byte	0x4
 941 0182 8E       		.4byte	.LCFI35-.LCFI34
 942 0183 01       		.byte	0xd
 943 0184 87       		.uleb128 0x7
 944 0185 02       		.align	2
 945 0186 42       	.LEFDE22:
 946              	.LSFDE24:
 947 0187 0D       		.4byte	.LEFDE24-.LASFDE24
 948 0188 07       	.LASFDE24:
 949 0189 000000   		.4byte	.Lframe0
 950              		.4byte	.LFB14
 951              		.4byte	.LFE14-.LFB14
 952 018c 1C000000 		.byte	0x4
 953              		.4byte	.LCFI36-.LFB14
 954 0190 00000000 		.byte	0xe
 955 0194 00000000 		.uleb128 0x8
 956 0198 26000000 		.byte	0x4
 957 019c 42       		.4byte	.LCFI37-.LCFI36
 958              		.byte	0xe
 959 019d 0E       		.uleb128 0x18
 960 019e 08       		.byte	0x8e
 961 019f 42       		.uleb128 0x1
 962              		.byte	0x87
 963 01a0 0E       		.uleb128 0x2
 964 01a1 18       		.byte	0x4
 965 01a2 8E       		.4byte	.LCFI38-.LCFI37
 966 01a3 01       		.byte	0xd
 967 01a4 87       		.uleb128 0x7
 968 01a5 02       		.align	2
 969 01a6 42       	.LEFDE24:
 970              	.LSFDE26:
 971 01a7 0D       		.4byte	.LEFDE26-.LASFDE26
 972 01a8 07       	.LASFDE26:
 973 01a9 000000   		.4byte	.Lframe0
 974              		.4byte	.LFB15
 975              		.4byte	.LFE15-.LFB15
 976 01ac 1C000000 		.byte	0x4
 977              		.4byte	.LCFI39-.LFB15
 978 01b0 00000000 		.byte	0xe
ARM GAS  C:\Users\blinky\AppData\Local\Temp/ccYRaaaa.s 			page 23


 979 01b4 00000000 		.uleb128 0x8
 980 01b8 26000000 		.byte	0x4
 981 01bc 42       		.4byte	.LCFI40-.LCFI39
 982              		.byte	0xe
 983 01bd 0E       		.uleb128 0x18
 984 01be 08       		.byte	0x8e
 985 01bf 42       		.uleb128 0x1
 986              		.byte	0x87
 987 01c0 0E       		.uleb128 0x2
 988 01c1 18       		.byte	0x4
 989 01c2 8E       		.4byte	.LCFI41-.LCFI40
 990 01c3 01       		.byte	0xd
 991 01c4 87       		.uleb128 0x7
 992 01c5 02       		.align	2
 993 01c6 42       	.LEFDE26:
 994              	.LSFDE28:
 995 01c7 0D       		.4byte	.LEFDE28-.LASFDE28
 996 01c8 07       	.LASFDE28:
 997 01c9 000000   		.4byte	.Lframe0
 998              		.4byte	.LFB16
 999              		.4byte	.LFE16-.LFB16
 1000 01cc 1C000000 		.byte	0x4
 1001              		.4byte	.LCFI42-.LFB16
 1002 01d0 00000000 		.byte	0xe
 1003 01d4 00000000 		.uleb128 0x8
 1004 01d8 24000000 		.byte	0x4
 1005 01dc 42       		.4byte	.LCFI43-.LCFI42
 1006              		.byte	0xe
 1007 01dd 0E       		.uleb128 0x10
 1008 01de 08       		.byte	0x8e
 1009 01df 42       		.uleb128 0x1
 1010              		.byte	0x87
 1011 01e0 0E       		.uleb128 0x2
 1012 01e1 10       		.byte	0x4
 1013 01e2 8E       		.4byte	.LCFI44-.LCFI43
 1014 01e3 01       		.byte	0xd
 1015 01e4 87       		.uleb128 0x7
 1016 01e5 02       		.align	2
 1017 01e6 42       	.LEFDE28:
 1018              	.LSFDE30:
 1019 01e7 0D       		.4byte	.LEFDE30-.LASFDE30
 1020 01e8 07       	.LASFDE30:
 1021 01e9 000000   		.4byte	.Lframe0
 1022              		.4byte	.LFB17
 1023              		.4byte	.LFE17-.LFB17
 1024 01ec 1C000000 		.byte	0x4
 1025              		.4byte	.LCFI45-.LFB17
 1026 01f0 00000000 		.byte	0xe
 1027 01f4 00000000 		.uleb128 0x8
 1028 01f8 24000000 		.byte	0x4
 1029 01fc 42       		.4byte	.LCFI46-.LCFI45
 1030              		.byte	0xe
 1031 01fd 0E       		.uleb128 0x10
 1032 01fe 08       		.byte	0x8e
 1033 01ff 42       		.uleb128 0x1
 1034              		.byte	0x87
 1035 0200 0E       		.uleb128 0x2
ARM GAS  C:\Users\blinky\AppData\Local\Temp/ccYRaaaa.s 			page 24


 1036 0201 10       		.byte	0x4
 1037 0202 8E       		.4byte	.LCFI47-.LCFI46
 1038 0203 01       		.byte	0xd
 1039 0204 87       		.uleb128 0x7
 1040 0205 02       		.align	2
 1041 0206 42       	.LEFDE30:
 1042              	.LSFDE32:
 1043 0207 0D       		.4byte	.LEFDE32-.LASFDE32
 1044 0208 07       	.LASFDE32:
 1045 0209 000000   		.4byte	.Lframe0
 1046              		.4byte	.LFB18
 1047              		.4byte	.LFE18-.LFB18
 1048 020c 18000000 		.byte	0x4
 1049              		.4byte	.LCFI48-.LFB18
 1050 0210 00000000 		.byte	0xe
 1051 0214 00000000 		.uleb128 0x8
 1052 0218 1A000000 		.byte	0x8e
 1053 021c 42       		.uleb128 0x1
 1054              		.byte	0x87
 1055 021d 0E       		.uleb128 0x2
 1056 021e 08       		.byte	0x4
 1057 021f 8E       		.4byte	.LCFI49-.LCFI48
 1058 0220 01       		.byte	0xd
 1059 0221 87       		.uleb128 0x7
 1060 0222 02       		.align	2
 1061 0223 42       	.LEFDE32:
 1062              	.LSFDE34:
 1063 0224 0D       		.4byte	.LEFDE34-.LASFDE34
 1064 0225 07       	.LASFDE34:
 1065 0226 0000     		.4byte	.Lframe0
 1066              		.4byte	.LFB19
 1067              		.4byte	.LFE19-.LFB19
 1068 0228 18000000 		.byte	0x4
 1069              		.4byte	.LCFI50-.LFB19
 1070 022c 00000000 		.byte	0xe
 1071 0230 00000000 		.uleb128 0x8
 1072 0234 1A000000 		.byte	0x8e
 1073 0238 42       		.uleb128 0x1
 1074              		.byte	0x87
 1075 0239 0E       		.uleb128 0x2
 1076 023a 08       		.byte	0x4
 1077 023b 8E       		.4byte	.LCFI51-.LCFI50
 1078 023c 01       		.byte	0xd
 1079 023d 87       		.uleb128 0x7
 1080 023e 02       		.align	2
 1081 023f 42       	.LEFDE34:
 1082              		.text
 1083 0240 0D       	.Letext0: