ARM GAS  C:\Users\blinky\AppData\Local\Temp/ccwJbaaa.s 			page 1


   1              		.syntax unified
   2              		.cpu cortex-m3
   3              		.fpu softvfp
   4              		.eabi_attribute 20, 1
   5              		.eabi_attribute 21, 1
   6              		.eabi_attribute 23, 3
   7              		.eabi_attribute 24, 1
   8              		.eabi_attribute 25, 1
   9              		.eabi_attribute 26, 1
  10              		.eabi_attribute 30, 6
  11              		.eabi_attribute 18, 4
  12              		.thumb
  13              		.file	"CyLib.c"
  14              		.section	.debug_abbrev,"",%progbits
  15              	.Ldebug_abbrev0:
  16              		.section	.debug_info,"",%progbits
  17              	.Ldebug_info0:
  18              		.section	.debug_line,"",%progbits
  19              	.Ldebug_line0:
  20 0000 8C040000 		.text
  20      0200E100 
  20      00000201 
  20      FB0E0D00 
  20      01010101 
  21              	.Ltext0:
  22              		.section	.text.cymemset,"ax",%progbits
  23              		.align	2
  24              		.global	cymemset
  25              		.thumb
  26              		.thumb_func
  27              		.type	cymemset, %function
  28              	cymemset:
  29              	.LFB2:
  30              		.file 1 "./Generated_Source/PSoC5/CyLib.c"
   1:./Generated_Source/PSoC5/CyLib.c **** /*******************************************************************************
   2:./Generated_Source/PSoC5/CyLib.c **** * File Name: CyLib.c  
   3:./Generated_Source/PSoC5/CyLib.c **** * Version 1.40
   4:./Generated_Source/PSoC5/CyLib.c **** *
   5:./Generated_Source/PSoC5/CyLib.c **** *  Description:
   6:./Generated_Source/PSoC5/CyLib.c **** *
   7:./Generated_Source/PSoC5/CyLib.c **** *  Note: 
   8:./Generated_Source/PSoC5/CyLib.c **** *   Documentation of the API's in this file is located in the
   9:./Generated_Source/PSoC5/CyLib.c **** *   System Reference Guide provided with PSoC Creator.
  10:./Generated_Source/PSoC5/CyLib.c **** *
  11:./Generated_Source/PSoC5/CyLib.c **** *******************************************************************************
  12:./Generated_Source/PSoC5/CyLib.c **** * Copyright 2008-2009, Cypress Semiconductor Corporation.  All rights reserved.
  13:./Generated_Source/PSoC5/CyLib.c **** * You may use this file only in accordance with the license, terms, conditions, 
  14:./Generated_Source/PSoC5/CyLib.c **** * disclaimers, and limitations in the end user license agreement accompanying 
  15:./Generated_Source/PSoC5/CyLib.c **** * the software package with which this file was provided.
  16:./Generated_Source/PSoC5/CyLib.c **** ********************************************************************************/
  17:./Generated_Source/PSoC5/CyLib.c **** 
  18:./Generated_Source/PSoC5/CyLib.c **** 
  19:./Generated_Source/PSoC5/CyLib.c **** 
  20:./Generated_Source/PSoC5/CyLib.c **** #include <CYDEVICE.H>
  21:./Generated_Source/PSoC5/CyLib.c **** #include <CYLIB.H>
  22:./Generated_Source/PSoC5/CyLib.c **** #include <CTYPE.H>
  23:./Generated_Source/PSoC5/CyLib.c **** 
ARM GAS  C:\Users\blinky\AppData\Local\Temp/ccwJbaaa.s 			page 2


  24:./Generated_Source/PSoC5/CyLib.c **** 
  25:./Generated_Source/PSoC5/CyLib.c **** 
  26:./Generated_Source/PSoC5/CyLib.c **** 
  27:./Generated_Source/PSoC5/CyLib.c **** 
  28:./Generated_Source/PSoC5/CyLib.c **** 
  29:./Generated_Source/PSoC5/CyLib.c **** 
  30:./Generated_Source/PSoC5/CyLib.c **** #if defined(CYLIB_SYSTEM_CLOCKS)
  31:./Generated_Source/PSoC5/CyLib.c **** 
  32:./Generated_Source/PSoC5/CyLib.c **** 
  33:./Generated_Source/PSoC5/CyLib.c **** #define FASTCLK_PLL_CONTROL0   ((reg8 *) CYDEV_FASTCLK_PLL_CFG0)
  34:./Generated_Source/PSoC5/CyLib.c **** #define PLL_CONTROL_ENABLE     (1 << 0) /* Enables the PLL. */
  35:./Generated_Source/PSoC5/CyLib.c **** 
  36:./Generated_Source/PSoC5/CyLib.c **** #define FASTCLK_PLL_STATUS     ((reg8 *) CYDEV_FASTCLK_PLL_SR)
  37:./Generated_Source/PSoC5/CyLib.c **** #define PLL_STATUS_LOCK  	   (1 << 0) /* Lock Status. */
  38:./Generated_Source/PSoC5/CyLib.c **** 
  39:./Generated_Source/PSoC5/CyLib.c **** #define PM_IMO_ACT_REG         ((reg8 *) CYDEV_PM_ACT_CFG0)
  40:./Generated_Source/PSoC5/CyLib.c **** #define IMO_PM_ENABLE          (1 << 4) /* Enable IMO clock source. */
  41:./Generated_Source/PSoC5/CyLib.c **** 
  42:./Generated_Source/PSoC5/CyLib.c **** #define FASTCLK_XMHZ_CONTROL   ((reg8 *) CYDEV_FASTCLK_XMHZ_CSR)
  43:./Generated_Source/PSoC5/CyLib.c **** #define XMHZ_CONTROL_ENABLE    (1 << 0) /* Enables the 4 - 33 MHz crystal oscillator circuit when s
  44:./Generated_Source/PSoC5/CyLib.c **** 
  45:./Generated_Source/PSoC5/CyLib.c **** #define SLOWCLK_X32_CONTROL    ((reg8 *) CYDEV_SLOWCLK_X32_CR)
  46:./Generated_Source/PSoC5/CyLib.c **** #define X32_CONTROL_ANA_STAT   (1 << 5) /* Indicates oscillator status, using internal analog measu
  47:./Generated_Source/PSoC5/CyLib.c **** #define X32_CONTROL_DIG_STAT   (1 << 4) /* Indicates oscillator status, using test against a refere
  48:./Generated_Source/PSoC5/CyLib.c **** #define X32_CONTROL_LPM        (1 << 1) /* Power setting for 32K crystal oscillator. This setting o
  49:./Generated_Source/PSoC5/CyLib.c **** #define X32_CONTROL_X32EN      (1 << 0) /* 32K Crystal Oscillator Enable. */
  50:./Generated_Source/PSoC5/CyLib.c **** 
  51:./Generated_Source/PSoC5/CyLib.c **** #define SLOWCLK_ILO_CONTROL0   ((reg8 *) CYDEV_SLOWCLK_ILO_CR0)
  52:./Generated_Source/PSoC5/CyLib.c **** #define ILO_CONTROL_PD_MODE    (1 << 4) /* Power down mode for ILO. */
  53:./Generated_Source/PSoC5/CyLib.c **** 
  54:./Generated_Source/PSoC5/CyLib.c **** 
  55:./Generated_Source/PSoC5/CyLib.c **** /*******************************************************************************
  56:./Generated_Source/PSoC5/CyLib.c **** * Function Name: CyPLL_OUT_Start
  57:./Generated_Source/PSoC5/CyLib.c **** ********************************************************************************
  58:./Generated_Source/PSoC5/CyLib.c **** * Summary:
  59:./Generated_Source/PSoC5/CyLib.c **** *   Enables PLL, and waits for it to become stable.
  60:./Generated_Source/PSoC5/CyLib.c **** *
  61:./Generated_Source/PSoC5/CyLib.c **** *
  62:./Generated_Source/PSoC5/CyLib.c **** * Parameters:  
  63:./Generated_Source/PSoC5/CyLib.c **** *   void.
  64:./Generated_Source/PSoC5/CyLib.c **** *
  65:./Generated_Source/PSoC5/CyLib.c **** *
  66:./Generated_Source/PSoC5/CyLib.c **** * Return:
  67:./Generated_Source/PSoC5/CyLib.c **** *   void.
  68:./Generated_Source/PSoC5/CyLib.c **** *
  69:./Generated_Source/PSoC5/CyLib.c **** *******************************************************************************/
  70:./Generated_Source/PSoC5/CyLib.c **** void CyPLL_OUT_Start(void)
  71:./Generated_Source/PSoC5/CyLib.c **** {
  72:./Generated_Source/PSoC5/CyLib.c ****     *FASTCLK_PLL_CONTROL0 |= XMHZ_CONTROL_ENABLE;
  73:./Generated_Source/PSoC5/CyLib.c **** 
  74:./Generated_Source/PSoC5/CyLib.c ****     while(!(*FASTCLK_PLL_STATUS & PLL_STATUS_LOCK))
  75:./Generated_Source/PSoC5/CyLib.c ****         ;
  76:./Generated_Source/PSoC5/CyLib.c **** }
  77:./Generated_Source/PSoC5/CyLib.c **** 
  78:./Generated_Source/PSoC5/CyLib.c **** 
  79:./Generated_Source/PSoC5/CyLib.c **** /*******************************************************************************
  80:./Generated_Source/PSoC5/CyLib.c **** * Function Name: CyPLL_OUT_Stop
ARM GAS  C:\Users\blinky\AppData\Local\Temp/ccwJbaaa.s 			page 3


  81:./Generated_Source/PSoC5/CyLib.c **** ********************************************************************************
  82:./Generated_Source/PSoC5/CyLib.c **** * Summary:
  83:./Generated_Source/PSoC5/CyLib.c **** *   Disables the PLL.
  84:./Generated_Source/PSoC5/CyLib.c **** *
  85:./Generated_Source/PSoC5/CyLib.c **** *
  86:./Generated_Source/PSoC5/CyLib.c **** * Parameters:  
  87:./Generated_Source/PSoC5/CyLib.c **** *   void.
  88:./Generated_Source/PSoC5/CyLib.c **** *
  89:./Generated_Source/PSoC5/CyLib.c **** *
  90:./Generated_Source/PSoC5/CyLib.c **** * Return:
  91:./Generated_Source/PSoC5/CyLib.c **** *   void.
  92:./Generated_Source/PSoC5/CyLib.c **** *
  93:./Generated_Source/PSoC5/CyLib.c **** *******************************************************************************/
  94:./Generated_Source/PSoC5/CyLib.c **** void CyPLL_OUT_Stop(void)
  95:./Generated_Source/PSoC5/CyLib.c **** {
  96:./Generated_Source/PSoC5/CyLib.c ****     /* Disable the the oscillator. */
  97:./Generated_Source/PSoC5/CyLib.c ****     *FASTCLK_PLL_CONTROL0 &= ~XMHZ_CONTROL_ENABLE;
  98:./Generated_Source/PSoC5/CyLib.c **** }
  99:./Generated_Source/PSoC5/CyLib.c **** 
 100:./Generated_Source/PSoC5/CyLib.c **** 
 101:./Generated_Source/PSoC5/CyLib.c **** /*******************************************************************************
 102:./Generated_Source/PSoC5/CyLib.c **** * Function Name: CyIMO_Start
 103:./Generated_Source/PSoC5/CyLib.c **** ********************************************************************************
 104:./Generated_Source/PSoC5/CyLib.c **** * Summary:
 105:./Generated_Source/PSoC5/CyLib.c **** *   Enables the Internal Main oscillator by setting the enable bit in the
 106:./Generated_Source/PSoC5/CyLib.c **** *   'Active Power Mode Configuration Register' corresponding to this clock.
 107:./Generated_Source/PSoC5/CyLib.c **** *
 108:./Generated_Source/PSoC5/CyLib.c **** * Parameters:  
 109:./Generated_Source/PSoC5/CyLib.c **** *   void.
 110:./Generated_Source/PSoC5/CyLib.c **** *
 111:./Generated_Source/PSoC5/CyLib.c **** *
 112:./Generated_Source/PSoC5/CyLib.c **** * Return:
 113:./Generated_Source/PSoC5/CyLib.c **** *   void.
 114:./Generated_Source/PSoC5/CyLib.c **** *
 115:./Generated_Source/PSoC5/CyLib.c **** *******************************************************************************/
 116:./Generated_Source/PSoC5/CyLib.c **** void CyIMO_Start(void)
 117:./Generated_Source/PSoC5/CyLib.c **** {
 118:./Generated_Source/PSoC5/CyLib.c ****     /* Set the bit to enable the clock. */
 119:./Generated_Source/PSoC5/CyLib.c ****     *PM_IMO_ACT_REG |= IMO_PM_ENABLE;
 120:./Generated_Source/PSoC5/CyLib.c **** }
 121:./Generated_Source/PSoC5/CyLib.c **** 
 122:./Generated_Source/PSoC5/CyLib.c **** 
 123:./Generated_Source/PSoC5/CyLib.c **** /*******************************************************************************
 124:./Generated_Source/PSoC5/CyLib.c **** * Function Name: CyIMO_Stop
 125:./Generated_Source/PSoC5/CyLib.c **** ********************************************************************************
 126:./Generated_Source/PSoC5/CyLib.c **** * Summary:
 127:./Generated_Source/PSoC5/CyLib.c **** *   Disables the Internal Main oscillator by clearing the enable bit in the
 128:./Generated_Source/PSoC5/CyLib.c **** *   'Active Power Mode Configuration Register' corresponding to this clock.
 129:./Generated_Source/PSoC5/CyLib.c **** *
 130:./Generated_Source/PSoC5/CyLib.c **** * Parameters:  
 131:./Generated_Source/PSoC5/CyLib.c **** *   void.
 132:./Generated_Source/PSoC5/CyLib.c **** *
 133:./Generated_Source/PSoC5/CyLib.c **** *
 134:./Generated_Source/PSoC5/CyLib.c **** * Return:
 135:./Generated_Source/PSoC5/CyLib.c **** *   void.
 136:./Generated_Source/PSoC5/CyLib.c **** *
 137:./Generated_Source/PSoC5/CyLib.c **** *******************************************************************************/
ARM GAS  C:\Users\blinky\AppData\Local\Temp/ccwJbaaa.s 			page 4


 138:./Generated_Source/PSoC5/CyLib.c **** void CyIMO_Stop(void)
 139:./Generated_Source/PSoC5/CyLib.c **** {
 140:./Generated_Source/PSoC5/CyLib.c ****     /* Clear the bit to disable the clock. */
 141:./Generated_Source/PSoC5/CyLib.c ****     *PM_IMO_ACT_REG &= ~IMO_PM_ENABLE;
 142:./Generated_Source/PSoC5/CyLib.c **** }
 143:./Generated_Source/PSoC5/CyLib.c **** 
 144:./Generated_Source/PSoC5/CyLib.c **** 
 145:./Generated_Source/PSoC5/CyLib.c **** /*******************************************************************************
 146:./Generated_Source/PSoC5/CyLib.c **** * Function Name: CyXTAL_Start
 147:./Generated_Source/PSoC5/CyLib.c **** ********************************************************************************
 148:./Generated_Source/PSoC5/CyLib.c **** * Summary:
 149:./Generated_Source/PSoC5/CyLib.c **** *   Enables the 4 - 33 MHz crystal oscillator.
 150:./Generated_Source/PSoC5/CyLib.c **** *
 151:./Generated_Source/PSoC5/CyLib.c **** *
 152:./Generated_Source/PSoC5/CyLib.c **** * Parameters:  
 153:./Generated_Source/PSoC5/CyLib.c **** *   void.
 154:./Generated_Source/PSoC5/CyLib.c **** *
 155:./Generated_Source/PSoC5/CyLib.c **** *
 156:./Generated_Source/PSoC5/CyLib.c **** * Return:
 157:./Generated_Source/PSoC5/CyLib.c **** *   void.
 158:./Generated_Source/PSoC5/CyLib.c **** *
 159:./Generated_Source/PSoC5/CyLib.c **** *******************************************************************************/
 160:./Generated_Source/PSoC5/CyLib.c **** void CyXTAL_Start(void)
 161:./Generated_Source/PSoC5/CyLib.c **** {
 162:./Generated_Source/PSoC5/CyLib.c ****     *FASTCLK_XMHZ_CONTROL |= XMHZ_CONTROL_ENABLE;
 163:./Generated_Source/PSoC5/CyLib.c **** }
 164:./Generated_Source/PSoC5/CyLib.c **** 
 165:./Generated_Source/PSoC5/CyLib.c **** 
 166:./Generated_Source/PSoC5/CyLib.c **** /*******************************************************************************
 167:./Generated_Source/PSoC5/CyLib.c **** * Function Name: CyXTAL_Stop
 168:./Generated_Source/PSoC5/CyLib.c **** ********************************************************************************
 169:./Generated_Source/PSoC5/CyLib.c **** * Summary:
 170:./Generated_Source/PSoC5/CyLib.c **** *   Disables the 4 - 33 MHz crystal oscillator.
 171:./Generated_Source/PSoC5/CyLib.c **** *
 172:./Generated_Source/PSoC5/CyLib.c **** *
 173:./Generated_Source/PSoC5/CyLib.c **** * Parameters:  
 174:./Generated_Source/PSoC5/CyLib.c **** *   void.
 175:./Generated_Source/PSoC5/CyLib.c **** *
 176:./Generated_Source/PSoC5/CyLib.c **** *
 177:./Generated_Source/PSoC5/CyLib.c **** * Return:
 178:./Generated_Source/PSoC5/CyLib.c **** *   void.
 179:./Generated_Source/PSoC5/CyLib.c **** *
 180:./Generated_Source/PSoC5/CyLib.c **** *******************************************************************************/
 181:./Generated_Source/PSoC5/CyLib.c **** void CyXTAL_Stop(void)
 182:./Generated_Source/PSoC5/CyLib.c **** {
 183:./Generated_Source/PSoC5/CyLib.c ****     /* Disable the the oscillator. */
 184:./Generated_Source/PSoC5/CyLib.c ****     *FASTCLK_XMHZ_CONTROL &= ~XMHZ_CONTROL_ENABLE;
 185:./Generated_Source/PSoC5/CyLib.c **** }
 186:./Generated_Source/PSoC5/CyLib.c **** 
 187:./Generated_Source/PSoC5/CyLib.c **** 
 188:./Generated_Source/PSoC5/CyLib.c **** /*******************************************************************************
 189:./Generated_Source/PSoC5/CyLib.c **** * Function Name: CyXTAL_32KHZ_Start
 190:./Generated_Source/PSoC5/CyLib.c **** ********************************************************************************
 191:./Generated_Source/PSoC5/CyLib.c **** * Summary:
 192:./Generated_Source/PSoC5/CyLib.c **** *   Enables the xternal 32k oscillator, and waits for it to become stable.
 193:./Generated_Source/PSoC5/CyLib.c **** *
 194:./Generated_Source/PSoC5/CyLib.c **** *
ARM GAS  C:\Users\blinky\AppData\Local\Temp/ccwJbaaa.s 			page 5


 195:./Generated_Source/PSoC5/CyLib.c **** * Parameters:  
 196:./Generated_Source/PSoC5/CyLib.c **** *   void.
 197:./Generated_Source/PSoC5/CyLib.c **** *
 198:./Generated_Source/PSoC5/CyLib.c **** *
 199:./Generated_Source/PSoC5/CyLib.c **** * Return:
 200:./Generated_Source/PSoC5/CyLib.c **** *   void.
 201:./Generated_Source/PSoC5/CyLib.c **** *
 202:./Generated_Source/PSoC5/CyLib.c **** *******************************************************************************/
 203:./Generated_Source/PSoC5/CyLib.c **** void CyXTAL_32KHZ_Start(void)
 204:./Generated_Source/PSoC5/CyLib.c **** {
 205:./Generated_Source/PSoC5/CyLib.c ****     /* Enable the the oscillator. */
 206:./Generated_Source/PSoC5/CyLib.c ****     *SLOWCLK_X32_CONTROL |= X32_CONTROL_X32EN;
 207:./Generated_Source/PSoC5/CyLib.c **** 
 208:./Generated_Source/PSoC5/CyLib.c ****     /* Wait for the oscillator to stablize. */
 209:./Generated_Source/PSoC5/CyLib.c ****     while(!(*SLOWCLK_X32_CONTROL & X32_CONTROL_ANA_STAT))
 210:./Generated_Source/PSoC5/CyLib.c ****         ;
 211:./Generated_Source/PSoC5/CyLib.c **** }
 212:./Generated_Source/PSoC5/CyLib.c **** 
 213:./Generated_Source/PSoC5/CyLib.c **** 
 214:./Generated_Source/PSoC5/CyLib.c **** /*******************************************************************************
 215:./Generated_Source/PSoC5/CyLib.c **** * Function Name: CyXTAL_32KHZ_Stop
 216:./Generated_Source/PSoC5/CyLib.c **** ********************************************************************************
 217:./Generated_Source/PSoC5/CyLib.c **** * Summary:
 218:./Generated_Source/PSoC5/CyLib.c **** *   Disables the xternal 32k oscillator.
 219:./Generated_Source/PSoC5/CyLib.c **** *
 220:./Generated_Source/PSoC5/CyLib.c **** *
 221:./Generated_Source/PSoC5/CyLib.c **** * Parameters:  
 222:./Generated_Source/PSoC5/CyLib.c **** *   void.
 223:./Generated_Source/PSoC5/CyLib.c **** *
 224:./Generated_Source/PSoC5/CyLib.c **** *
 225:./Generated_Source/PSoC5/CyLib.c **** * Return:
 226:./Generated_Source/PSoC5/CyLib.c **** *   void.
 227:./Generated_Source/PSoC5/CyLib.c **** *
 228:./Generated_Source/PSoC5/CyLib.c **** *******************************************************************************/
 229:./Generated_Source/PSoC5/CyLib.c **** void CyXTAL_32KHZ_Stop(void)
 230:./Generated_Source/PSoC5/CyLib.c **** {
 231:./Generated_Source/PSoC5/CyLib.c ****     /* Disable the the oscillator. */
 232:./Generated_Source/PSoC5/CyLib.c ****     *SLOWCLK_X32_CONTROL &= ~X32_CONTROL_X32EN;
 233:./Generated_Source/PSoC5/CyLib.c **** }
 234:./Generated_Source/PSoC5/CyLib.c **** 
 235:./Generated_Source/PSoC5/CyLib.c **** /*******************************************************************************
 236:./Generated_Source/PSoC5/CyLib.c **** * Function Name: CyXTAL_32KHZ_SetPowerMode
 237:./Generated_Source/PSoC5/CyLib.c **** ********************************************************************************
 238:./Generated_Source/PSoC5/CyLib.c **** * Summary:
 239:./Generated_Source/PSoC5/CyLib.c **** *   Alows the caller to set the power mode for the xternal 32k oscillator
 240:./Generated_Source/PSoC5/CyLib.c **** *   This setting only takes effect in sleep modes. During active modes,
 241:./Generated_Source/PSoC5/CyLib.c **** *   the oscillator always runs in high power mode.
 242:./Generated_Source/PSoC5/CyLib.c **** *
 243:./Generated_Source/PSoC5/CyLib.c **** * Parameters:  
 244:./Generated_Source/PSoC5/CyLib.c **** *   mode, 0 = High Power Mode, 1 = Low Power Mode (Only applies in chip sleep mode).
 245:./Generated_Source/PSoC5/CyLib.c **** *
 246:./Generated_Source/PSoC5/CyLib.c **** *
 247:./Generated_Source/PSoC5/CyLib.c **** * Return:
 248:./Generated_Source/PSoC5/CyLib.c **** *   Prevous power mode state.
 249:./Generated_Source/PSoC5/CyLib.c **** *
 250:./Generated_Source/PSoC5/CyLib.c **** *******************************************************************************/
 251:./Generated_Source/PSoC5/CyLib.c **** uint8 CyXTAL_32KHZ_SetPowerMode(uint8 mode)
ARM GAS  C:\Users\blinky\AppData\Local\Temp/ccwJbaaa.s 			page 6


 252:./Generated_Source/PSoC5/CyLib.c **** {
 253:./Generated_Source/PSoC5/CyLib.c ****     uint8 state;
 254:./Generated_Source/PSoC5/CyLib.c **** 
 255:./Generated_Source/PSoC5/CyLib.c **** 
 256:./Generated_Source/PSoC5/CyLib.c ****     /* Get current state. */
 257:./Generated_Source/PSoC5/CyLib.c ****     state = *SLOWCLK_X32_CONTROL;
 258:./Generated_Source/PSoC5/CyLib.c **** 
 259:./Generated_Source/PSoC5/CyLib.c ****     /* Set the the oscillator power mode. */
 260:./Generated_Source/PSoC5/CyLib.c ****     if(mode)
 261:./Generated_Source/PSoC5/CyLib.c ****     {
 262:./Generated_Source/PSoC5/CyLib.c ****         *SLOWCLK_X32_CONTROL = state | X32_CONTROL_LPM;
 263:./Generated_Source/PSoC5/CyLib.c ****     }
 264:./Generated_Source/PSoC5/CyLib.c ****     else
 265:./Generated_Source/PSoC5/CyLib.c ****     {
 266:./Generated_Source/PSoC5/CyLib.c ****         *SLOWCLK_X32_CONTROL = state & ~X32_CONTROL_LPM;
 267:./Generated_Source/PSoC5/CyLib.c ****     }
 268:./Generated_Source/PSoC5/CyLib.c **** 
 269:./Generated_Source/PSoC5/CyLib.c ****     /* Return the old mode. */
 270:./Generated_Source/PSoC5/CyLib.c ****     return state & X32_CONTROL_LPM;    
 271:./Generated_Source/PSoC5/CyLib.c **** }
 272:./Generated_Source/PSoC5/CyLib.c **** 
 273:./Generated_Source/PSoC5/CyLib.c **** 
 274:./Generated_Source/PSoC5/CyLib.c **** /*******************************************************************************
 275:./Generated_Source/PSoC5/CyLib.c **** * Function Name: CyILO_SetPowerMode
 276:./Generated_Source/PSoC5/CyLib.c **** ********************************************************************************
 277:./Generated_Source/PSoC5/CyLib.c **** * Summary:
 278:./Generated_Source/PSoC5/CyLib.c **** *   Alows the caller to set the power mode for the ILO clock
 279:./Generated_Source/PSoC5/CyLib.c **** *   
 280:./Generated_Source/PSoC5/CyLib.c **** *
 281:./Generated_Source/PSoC5/CyLib.c **** * Parameters:  
 282:./Generated_Source/PSoC5/CyLib.c **** *   mode, 0 = Faster start-up, internal bias left on,
 283:./Generated_Source/PSoC5/CyLib.c **** *         1 = Slower start-up, internal bias off.
 284:./Generated_Source/PSoC5/CyLib.c **** *
 285:./Generated_Source/PSoC5/CyLib.c **** *
 286:./Generated_Source/PSoC5/CyLib.c **** * Return:
 287:./Generated_Source/PSoC5/CyLib.c **** *   Prevous power mode state.
 288:./Generated_Source/PSoC5/CyLib.c **** *
 289:./Generated_Source/PSoC5/CyLib.c **** *******************************************************************************/
 290:./Generated_Source/PSoC5/CyLib.c **** uint8 CyILO_SetPowerMode(uint8 mode)
 291:./Generated_Source/PSoC5/CyLib.c **** {
 292:./Generated_Source/PSoC5/CyLib.c ****     uint8 state;
 293:./Generated_Source/PSoC5/CyLib.c **** 
 294:./Generated_Source/PSoC5/CyLib.c **** 
 295:./Generated_Source/PSoC5/CyLib.c ****     /* Get current state. */
 296:./Generated_Source/PSoC5/CyLib.c ****     state = *SLOWCLK_ILO_CONTROL0;
 297:./Generated_Source/PSoC5/CyLib.c **** 
 298:./Generated_Source/PSoC5/CyLib.c ****     /* Set the the oscillator power mode. */
 299:./Generated_Source/PSoC5/CyLib.c ****     if(mode)
 300:./Generated_Source/PSoC5/CyLib.c ****     {
 301:./Generated_Source/PSoC5/CyLib.c ****         *SLOWCLK_ILO_CONTROL0 = state | ILO_CONTROL_PD_MODE;
 302:./Generated_Source/PSoC5/CyLib.c ****     }
 303:./Generated_Source/PSoC5/CyLib.c ****     else
 304:./Generated_Source/PSoC5/CyLib.c ****     {
 305:./Generated_Source/PSoC5/CyLib.c ****         *SLOWCLK_ILO_CONTROL0 = state & ~ILO_CONTROL_PD_MODE;
 306:./Generated_Source/PSoC5/CyLib.c ****     }
 307:./Generated_Source/PSoC5/CyLib.c **** 
 308:./Generated_Source/PSoC5/CyLib.c ****     /* Return the old mode. */
ARM GAS  C:\Users\blinky\AppData\Local\Temp/ccwJbaaa.s 			page 7


 309:./Generated_Source/PSoC5/CyLib.c ****     return state & ILO_CONTROL_PD_MODE;    
 310:./Generated_Source/PSoC5/CyLib.c **** }
 311:./Generated_Source/PSoC5/CyLib.c **** 
 312:./Generated_Source/PSoC5/CyLib.c **** /* CYLIB_SYSTEM_CLOCKS */
 313:./Generated_Source/PSoC5/CyLib.c **** #endif
 314:./Generated_Source/PSoC5/CyLib.c **** 
 315:./Generated_Source/PSoC5/CyLib.c **** 
 316:./Generated_Source/PSoC5/CyLib.c **** #if defined(CYLIB_POWER_MANAGEMENT)
 317:./Generated_Source/PSoC5/CyLib.c **** 
 318:./Generated_Source/PSoC5/CyLib.c **** #define CYPM_WAKE_IO            1
 319:./Generated_Source/PSoC5/CyLib.c **** #define CYPM_WAKE_RTC           2
 320:./Generated_Source/PSoC5/CyLib.c **** #define CYPM_WAKE_SLEEP         4
 321:./Generated_Source/PSoC5/CyLib.c **** #define CYPM_WAKE_I2C           8
 322:./Generated_Source/PSoC5/CyLib.c **** #define CYPM_WAKE_CMP           16
 323:./Generated_Source/PSoC5/CyLib.c **** 
 324:./Generated_Source/PSoC5/CyLib.c **** #define ANAIF_CFG_CMP0_CR       ((reg8 *) CYDEV_ANAIF_CFG_CMP0_CR)
 325:./Generated_Source/PSoC5/CyLib.c **** 
 326:./Generated_Source/PSoC5/CyLib.c **** #define CMP_PD_OVERRIDE_DISABLE 0 /* Don't override power down. */
 327:./Generated_Source/PSoC5/CyLib.c **** #define CMP_PD_OVERRIDE_ENABLE  1 /* Override power down. */ 
 328:./Generated_Source/PSoC5/CyLib.c **** 
 329:./Generated_Source/PSoC5/CyLib.c **** 
 330:./Generated_Source/PSoC5/CyLib.c **** #define PM_INT_SR				((reg8 *) CYDEV_PM_INT_SR)
 331:./Generated_Source/PSoC5/CyLib.c **** 
 332:./Generated_Source/PSoC5/CyLib.c **** #define PWRSYS_CR1              ((ret8 *) CYDEV_PWRSYS_CR1)
 333:./Generated_Source/PSoC5/CyLib.c **** 
 334:./Generated_Source/PSoC5/CyLib.c **** #define I2CREG_EN               (1 << 2) /* When set, enables the I2C regulator. */
 335:./Generated_Source/PSoC5/CyLib.c **** 
 336:./Generated_Source/PSoC5/CyLib.c **** #define PM_MODE_CSR             ((reg8 *) CYDEV_PM_MODE_CSR)
 337:./Generated_Source/PSoC5/CyLib.c **** 
 338:./Generated_Source/PSoC5/CyLib.c **** #define PM_MODE_REACTIVATE		(1 << 4)
 339:./Generated_Source/PSoC5/CyLib.c **** 
 340:./Generated_Source/PSoC5/CyLib.c **** #define PM_INT_SR_LIM_ACT		(1 << 3)
 341:./Generated_Source/PSoC5/CyLib.c **** 
 342:./Generated_Source/PSoC5/CyLib.c **** 
 343:./Generated_Source/PSoC5/CyLib.c **** #define PM_MODE_ACTIVE          0x0 /* Active mode. */
 344:./Generated_Source/PSoC5/CyLib.c **** #define PM_MODE_STANDBY         0x1 /* Standby mode. */
 345:./Generated_Source/PSoC5/CyLib.c **** #define PM_MODE_IDLE            0x2 /* Idle mode. */
 346:./Generated_Source/PSoC5/CyLib.c **** #define PM_MODE_SLEEP           0x3 /* Sleep mode. */
 347:./Generated_Source/PSoC5/CyLib.c **** #define PM_MODE_HIBERNATE       0x4 /* Hibernate mode. */
 348:./Generated_Source/PSoC5/CyLib.c **** #define PM_MODE_HIBTIMERS       0x5 /* Hibernate+timewheels. */
 349:./Generated_Source/PSoC5/CyLib.c **** 
 350:./Generated_Source/PSoC5/CyLib.c **** #define PM_CLKDIST_BCFG0 		((reg8 *) CYDEV_CLKDIST_BCFG0)
 351:./Generated_Source/PSoC5/CyLib.c **** #define PM_CLKDIST_MSTR0 		((reg8 *) CYDEV_CLKDIST_MSTR0)
 352:./Generated_Source/PSoC5/CyLib.c **** #define PM_CLKDIST_MSTR1 		((reg8 *) CYDEV_CLKDIST_MSTR1)
 353:./Generated_Source/PSoC5/CyLib.c **** 
 354:./Generated_Source/PSoC5/CyLib.c **** #define MASTER_CLK_SRC_IMO		0
 355:./Generated_Source/PSoC5/CyLib.c **** #define MASTER_CLK_DIV			32
 356:./Generated_Source/PSoC5/CyLib.c **** #define BUS_CLK_DIV				32
 357:./Generated_Source/PSoC5/CyLib.c **** 
 358:./Generated_Source/PSoC5/CyLib.c **** 
 359:./Generated_Source/PSoC5/CyLib.c **** 
 360:./Generated_Source/PSoC5/CyLib.c **** /*******************************************************************************
 361:./Generated_Source/PSoC5/CyLib.c **** * Function Name: CyWait
 362:./Generated_Source/PSoC5/CyLib.c **** ********************************************************************************
 363:./Generated_Source/PSoC5/CyLib.c **** * Summary:
 364:./Generated_Source/PSoC5/CyLib.c **** * 	Stops the CPU, but the part remains active. Exits wait state on
 365:./Generated_Source/PSoC5/CyLib.c **** *   receipt of a non-masked interrupt.
ARM GAS  C:\Users\blinky\AppData\Local\Temp/ccwJbaaa.s 			page 8


 366:./Generated_Source/PSoC5/CyLib.c **** *
 367:./Generated_Source/PSoC5/CyLib.c **** * Parameters:  
 368:./Generated_Source/PSoC5/CyLib.c **** *   void.
 369:./Generated_Source/PSoC5/CyLib.c **** *
 370:./Generated_Source/PSoC5/CyLib.c **** *
 371:./Generated_Source/PSoC5/CyLib.c **** * Return:
 372:./Generated_Source/PSoC5/CyLib.c **** *   void.
 373:./Generated_Source/PSoC5/CyLib.c **** *
 374:./Generated_Source/PSoC5/CyLib.c **** *******************************************************************************/
 375:./Generated_Source/PSoC5/CyLib.c **** void CyWait(void)
 376:./Generated_Source/PSoC5/CyLib.c **** {
 377:./Generated_Source/PSoC5/CyLib.c **** 	/* Put device in a different mode. */
 378:./Generated_Source/PSoC5/CyLib.c **** 	*PM_MODE_CSR = PM_MODE_STANDBY;
 379:./Generated_Source/PSoC5/CyLib.c **** 
 380:./Generated_Source/PSoC5/CyLib.c **** 	/* Recommended readback. */
 381:./Generated_Source/PSoC5/CyLib.c **** 	*PM_MODE_CSR;
 382:./Generated_Source/PSoC5/CyLib.c **** 
 383:./Generated_Source/PSoC5/CyLib.c **** 	/* Two recommended NOPs to get into the mode. */
 384:./Generated_Source/PSoC5/CyLib.c **** 	CY_NOP;
 385:./Generated_Source/PSoC5/CyLib.c **** 	CY_NOP;
 386:./Generated_Source/PSoC5/CyLib.c **** 
 387:./Generated_Source/PSoC5/CyLib.c **** 	/* Sweet Dreams. */
 388:./Generated_Source/PSoC5/CyLib.c **** }
 389:./Generated_Source/PSoC5/CyLib.c **** 
 390:./Generated_Source/PSoC5/CyLib.c **** /*******************************************************************************
 391:./Generated_Source/PSoC5/CyLib.c **** * Function Name: CyIdle
 392:./Generated_Source/PSoC5/CyLib.c **** ********************************************************************************
 393:./Generated_Source/PSoC5/CyLib.c **** * Summary: 
 394:./Generated_Source/PSoC5/CyLib.c **** * 	Puts the part into idle mode. Exits idle state on receipt of a non-masked
 395:./Generated_Source/PSoC5/CyLib.c **** *   interrupt.
 396:./Generated_Source/PSoC5/CyLib.c **** *
 397:./Generated_Source/PSoC5/CyLib.c **** * Parameters:
 398:./Generated_Source/PSoC5/CyLib.c **** *   void.
 399:./Generated_Source/PSoC5/CyLib.c **** *
 400:./Generated_Source/PSoC5/CyLib.c **** *
 401:./Generated_Source/PSoC5/CyLib.c **** * Return:
 402:./Generated_Source/PSoC5/CyLib.c **** *   void.
 403:./Generated_Source/PSoC5/CyLib.c **** *
 404:./Generated_Source/PSoC5/CyLib.c **** *******************************************************************************/
 405:./Generated_Source/PSoC5/CyLib.c **** void CyIdle(void)
 406:./Generated_Source/PSoC5/CyLib.c **** {
 407:./Generated_Source/PSoC5/CyLib.c **** 	/* Put device in a different mode. */
 408:./Generated_Source/PSoC5/CyLib.c **** 	*PM_MODE_CSR = PM_MODE_IDLE;
 409:./Generated_Source/PSoC5/CyLib.c **** 
 410:./Generated_Source/PSoC5/CyLib.c **** 	/* Recommended readback and two recommended NOPs to get into the mode. */
 411:./Generated_Source/PSoC5/CyLib.c **** 	*PM_MODE_CSR;
 412:./Generated_Source/PSoC5/CyLib.c **** 	CY_NOP;
 413:./Generated_Source/PSoC5/CyLib.c **** 	CY_NOP;
 414:./Generated_Source/PSoC5/CyLib.c **** 
 415:./Generated_Source/PSoC5/CyLib.c **** 	/* Sweet Dreams. */
 416:./Generated_Source/PSoC5/CyLib.c **** 
 417:./Generated_Source/PSoC5/CyLib.c **** 	/* We should come out into limited active mode. */
 418:./Generated_Source/PSoC5/CyLib.c **** 
 419:./Generated_Source/PSoC5/CyLib.c **** 	/* `#START CyIdle` Place limited active mode code here. */
 420:./Generated_Source/PSoC5/CyLib.c **** 
 421:./Generated_Source/PSoC5/CyLib.c ****     /* `#END` */
 422:./Generated_Source/PSoC5/CyLib.c **** 
ARM GAS  C:\Users\blinky\AppData\Local\Temp/ccwJbaaa.s 			page 9


 423:./Generated_Source/PSoC5/CyLib.c **** 	/* Wait until the system is ready to be reactivated. */
 424:./Generated_Source/PSoC5/CyLib.c **** 	while(!(*PM_INT_SR & PM_INT_SR_LIM_ACT))
 425:./Generated_Source/PSoC5/CyLib.c **** 		;
 426:./Generated_Source/PSoC5/CyLib.c **** 
 427:./Generated_Source/PSoC5/CyLib.c **** 	/* Return to active mode. */
 428:./Generated_Source/PSoC5/CyLib.c **** 	*PM_MODE_CSR |= PM_MODE_REACTIVATE;
 429:./Generated_Source/PSoC5/CyLib.c **** }
 430:./Generated_Source/PSoC5/CyLib.c **** 
 431:./Generated_Source/PSoC5/CyLib.c **** /*******************************************************************************
 432:./Generated_Source/PSoC5/CyLib.c **** * Function Name: CySleep
 433:./Generated_Source/PSoC5/CyLib.c **** ********************************************************************************
 434:./Generated_Source/PSoC5/CyLib.c **** * Summary:
 435:./Generated_Source/PSoC5/CyLib.c **** * 	Puts the part into sleep mode. Exits sleep state on receipt of a non-masked
 436:./Generated_Source/PSoC5/CyLib.c **** * 	interrupt.
 437:./Generated_Source/PSoC5/CyLib.c **** *
 438:./Generated_Source/PSoC5/CyLib.c **** * Parameters:  
 439:./Generated_Source/PSoC5/CyLib.c **** *   void.
 440:./Generated_Source/PSoC5/CyLib.c **** *
 441:./Generated_Source/PSoC5/CyLib.c **** *
 442:./Generated_Source/PSoC5/CyLib.c **** * Return:
 443:./Generated_Source/PSoC5/CyLib.c **** *   void.
 444:./Generated_Source/PSoC5/CyLib.c **** *
 445:./Generated_Source/PSoC5/CyLib.c **** *******************************************************************************/
 446:./Generated_Source/PSoC5/CyLib.c **** void CySleep(void)
 447:./Generated_Source/PSoC5/CyLib.c **** {
 448:./Generated_Source/PSoC5/CyLib.c **** 	/* Put device in a different mode. */
 449:./Generated_Source/PSoC5/CyLib.c **** 	*PM_MODE_CSR = PM_MODE_SLEEP;
 450:./Generated_Source/PSoC5/CyLib.c **** 
 451:./Generated_Source/PSoC5/CyLib.c **** 	/* Recommended readback. */
 452:./Generated_Source/PSoC5/CyLib.c **** 	*PM_MODE_CSR;
 453:./Generated_Source/PSoC5/CyLib.c **** 
 454:./Generated_Source/PSoC5/CyLib.c **** 	/* Two recommended NOPs to get into the mode. */
 455:./Generated_Source/PSoC5/CyLib.c **** 	CY_NOP;
 456:./Generated_Source/PSoC5/CyLib.c **** 	CY_NOP;
 457:./Generated_Source/PSoC5/CyLib.c **** 
 458:./Generated_Source/PSoC5/CyLib.c **** 	/* Sweet Dreams. */
 459:./Generated_Source/PSoC5/CyLib.c **** }
 460:./Generated_Source/PSoC5/CyLib.c **** 
 461:./Generated_Source/PSoC5/CyLib.c **** 
 462:./Generated_Source/PSoC5/CyLib.c **** /*******************************************************************************
 463:./Generated_Source/PSoC5/CyLib.c **** * Function Name: CyHibernate
 464:./Generated_Source/PSoC5/CyLib.c **** ********************************************************************************
 465:./Generated_Source/PSoC5/CyLib.c **** * Summary:
 466:./Generated_Source/PSoC5/CyLib.c **** *	Puts the part into hibernate mode. Exits hibernate state on receipt of a
 467:./Generated_Source/PSoC5/CyLib.c **** * 	nonmasked port (I/O) interrupt (the other sources cannot wake from
 468:./Generated_Source/PSoC5/CyLib.c **** *	hibernate). 
 469:./Generated_Source/PSoC5/CyLib.c **** *
 470:./Generated_Source/PSoC5/CyLib.c **** * Parameters:  
 471:./Generated_Source/PSoC5/CyLib.c **** *   void.
 472:./Generated_Source/PSoC5/CyLib.c **** *
 473:./Generated_Source/PSoC5/CyLib.c **** *
 474:./Generated_Source/PSoC5/CyLib.c **** * Return:
 475:./Generated_Source/PSoC5/CyLib.c **** *   void.
 476:./Generated_Source/PSoC5/CyLib.c **** *
 477:./Generated_Source/PSoC5/CyLib.c **** *******************************************************************************/
 478:./Generated_Source/PSoC5/CyLib.c **** void CyHibernate(void)
 479:./Generated_Source/PSoC5/CyLib.c **** {
ARM GAS  C:\Users\blinky\AppData\Local\Temp/ccwJbaaa.s 			page 10


 480:./Generated_Source/PSoC5/CyLib.c **** 	/* Put device in a different mode. */
 481:./Generated_Source/PSoC5/CyLib.c **** 	*PM_MODE_CSR = PM_MODE_HIBERNATE;
 482:./Generated_Source/PSoC5/CyLib.c **** 
 483:./Generated_Source/PSoC5/CyLib.c **** 	/* Recommended readback. */
 484:./Generated_Source/PSoC5/CyLib.c **** 	*PM_MODE_CSR;
 485:./Generated_Source/PSoC5/CyLib.c **** 
 486:./Generated_Source/PSoC5/CyLib.c **** 	/* Two recommended NOPs to get into the mode. */
 487:./Generated_Source/PSoC5/CyLib.c **** 	CY_NOP;
 488:./Generated_Source/PSoC5/CyLib.c **** 	CY_NOP;
 489:./Generated_Source/PSoC5/CyLib.c **** 
 490:./Generated_Source/PSoC5/CyLib.c **** 	/* Sweet Dreams. */
 491:./Generated_Source/PSoC5/CyLib.c **** }
 492:./Generated_Source/PSoC5/CyLib.c **** 
 493:./Generated_Source/PSoC5/CyLib.c **** 
 494:./Generated_Source/PSoC5/CyLib.c **** /* CYLIB_POWER_MANAGEMENT */
 495:./Generated_Source/PSoC5/CyLib.c **** #endif
 496:./Generated_Source/PSoC5/CyLib.c **** 
 497:./Generated_Source/PSoC5/CyLib.c **** 
 498:./Generated_Source/PSoC5/CyLib.c **** #if defined(CYLIB_DEBUG)
 499:./Generated_Source/PSoC5/CyLib.c **** 
 500:./Generated_Source/PSoC5/CyLib.c **** /*******************************************************************************
 501:./Generated_Source/PSoC5/CyLib.c **** * Function Name: CyAssert
 502:./Generated_Source/PSoC5/CyLib.c **** ********************************************************************************
 503:./Generated_Source/PSoC5/CyLib.c **** * Summary:
 504:./Generated_Source/PSoC5/CyLib.c **** *   Defined by the user.
 505:./Generated_Source/PSoC5/CyLib.c **** *   
 506:./Generated_Source/PSoC5/CyLib.c **** *
 507:./Generated_Source/PSoC5/CyLib.c **** *
 508:./Generated_Source/PSoC5/CyLib.c **** * Parameters:
 509:./Generated_Source/PSoC5/CyLib.c **** *   arg. value that failed the assert.
 510:./Generated_Source/PSoC5/CyLib.c **** *
 511:./Generated_Source/PSoC5/CyLib.c **** *
 512:./Generated_Source/PSoC5/CyLib.c **** * Return:
 513:./Generated_Source/PSoC5/CyLib.c **** *   
 514:./Generated_Source/PSoC5/CyLib.c **** *   
 515:./Generated_Source/PSoC5/CyLib.c **** *
 516:./Generated_Source/PSoC5/CyLib.c **** * Theory:
 517:./Generated_Source/PSoC5/CyLib.c **** *   The user should decide what happens in an assert.  
 518:./Generated_Source/PSoC5/CyLib.c **** *   
 519:./Generated_Source/PSoC5/CyLib.c **** *
 520:./Generated_Source/PSoC5/CyLib.c **** *
 521:./Generated_Source/PSoC5/CyLib.c **** *******************************************************************************/
 522:./Generated_Source/PSoC5/CyLib.c **** void CyAssert(uint32 arg)
 523:./Generated_Source/PSoC5/CyLib.c **** {
 524:./Generated_Source/PSoC5/CyLib.c **** 
 525:./Generated_Source/PSoC5/CyLib.c **** }
 526:./Generated_Source/PSoC5/CyLib.c **** 
 527:./Generated_Source/PSoC5/CyLib.c **** /* CYLIB_DEBUG */
 528:./Generated_Source/PSoC5/CyLib.c **** #endif
 529:./Generated_Source/PSoC5/CyLib.c **** 
 530:./Generated_Source/PSoC5/CyLib.c **** #if defined(CYLIB_STRING)
 531:./Generated_Source/PSoC5/CyLib.c **** 
 532:./Generated_Source/PSoC5/CyLib.c **** /*******************************************************************************
 533:./Generated_Source/PSoC5/CyLib.c **** * Function Name: cymemset
 534:./Generated_Source/PSoC5/CyLib.c **** ********************************************************************************
 535:./Generated_Source/PSoC5/CyLib.c **** * Summary:
 536:./Generated_Source/PSoC5/CyLib.c **** *   sets n bytes at s to c
ARM GAS  C:\Users\blinky\AppData\Local\Temp/ccwJbaaa.s 			page 11


 537:./Generated_Source/PSoC5/CyLib.c **** *   
 538:./Generated_Source/PSoC5/CyLib.c **** *
 539:./Generated_Source/PSoC5/CyLib.c **** *
 540:./Generated_Source/PSoC5/CyLib.c **** * Parameters:
 541:./Generated_Source/PSoC5/CyLib.c **** *   
 542:./Generated_Source/PSoC5/CyLib.c **** *
 543:./Generated_Source/PSoC5/CyLib.c **** *
 544:./Generated_Source/PSoC5/CyLib.c **** * Return:
 545:./Generated_Source/PSoC5/CyLib.c **** *   
 546:./Generated_Source/PSoC5/CyLib.c **** *   
 547:./Generated_Source/PSoC5/CyLib.c **** *
 548:./Generated_Source/PSoC5/CyLib.c **** * Theory:
 549:./Generated_Source/PSoC5/CyLib.c **** *   
 550:./Generated_Source/PSoC5/CyLib.c **** *
 551:./Generated_Source/PSoC5/CyLib.c **** *
 552:./Generated_Source/PSoC5/CyLib.c **** *******************************************************************************/
 553:./Generated_Source/PSoC5/CyLib.c **** void * cymemset(void * s, int32 c, int32 n)
 554:./Generated_Source/PSoC5/CyLib.c **** {
  31              	tend = 0, frame = 24
  32              		@ frame_needed = 1, uses_anonymous_args = 0
  33              		@ link register save eliminated.
  34              		push	{r7}
  35 0000 80B4     	.LCFI0:
  36              		sub	sp, sp, #28
  37 0002 87B0     	.LCFI1:
  38              		add	r7, sp, #0
  39 0004 00AF     	.LCFI2:
  40              		@ lr needed for prologue
  41              		str	r0, [r7, #12]
  42 0006 F860     		str	r1, [r7, #8]
  43 0008 B960     		str	r2, [r7, #4]
  44 000a 7A60     		.loc 1 555 0
 555:./Generated_Source/PSoC5/CyLib.c ****     void * ss = s;
  45              	#12]
  46 000c FB68     		str	r3, [r7, #20]
  47 000e 7B61     		.loc 1 561 0
 556:./Generated_Source/PSoC5/CyLib.c **** 
 557:./Generated_Source/PSoC5/CyLib.c **** 
 558:./Generated_Source/PSoC5/CyLib.c ****     CYASSERT((s));
 559:./Generated_Source/PSoC5/CyLib.c ****     CYASSERT((n));
 560:./Generated_Source/PSoC5/CyLib.c **** 
 561:./Generated_Source/PSoC5/CyLib.c ****     while(n != 0)
  48              	.L2
  49 0010 0BE0     	.L3:
  50              		.loc 1 563 0
 562:./Generated_Source/PSoC5/CyLib.c ****     {
 563:./Generated_Source/PSoC5/CyLib.c ****         n--;
  51              	r	r3, [r7, #4]
  52 0012 7B68     		add	r3, r3, #-1
  53 0014 03F1FF33 		str	r3, [r7, #4]
  54 0018 7B60     		.loc 1 565 0
 564:./Generated_Source/PSoC5/CyLib.c **** 
 565:./Generated_Source/PSoC5/CyLib.c ****         *((int8 *) s) = (int8) c;
  55              		r2, [r7, #12]
  56 001a FA68     		ldr	r3, [r7, #8]
  57 001c BB68     		uxtb	r3, r3
  58 001e DBB2     		strb	r3, [r2, #0]
ARM GAS  C:\Users\blinky\AppData\Local\Temp/ccwJbaaa.s 			page 12


  59 0020 1370     		.loc 1 567 0
 566:./Generated_Source/PSoC5/CyLib.c **** 
 567:./Generated_Source/PSoC5/CyLib.c ****         s = ((int8 *) s) + 1;
  60              	r3, [r7, #12]
  61 0022 FB68     		add	r3, r3, #1
  62 0024 03F10103 		str	r3, [r7, #12]
  63 0028 FB60     	.L2:
  64              		.loc 1 561 0
  65              		ldr	r3, [r7, #4]
  66 002a 7B68     		cmp	r3, #0
  67 002c 002B     		bne	.L3
  68 002e F0D1     		.loc 1 570 0
 568:./Generated_Source/PSoC5/CyLib.c ****     }
 569:./Generated_Source/PSoC5/CyLib.c **** 
 570:./Generated_Source/PSoC5/CyLib.c ****     return ss;
  69              	[r7, #20]
  70 0030 7B69     		.loc 1 571 0
 571:./Generated_Source/PSoC5/CyLib.c **** }
  71              	ov	r0, r3
  72 0032 1846     		add	r7, r7, #28
  73 0034 07F11C07 		mov	sp, r7
  74 0038 BD46     		pop	{r7}
  75 003a 80BC     		bx	lr
  76 003c 7047     	.LFE2:
  77              		.size	cymemset, .-cymemset
  78              		.section	.text.cymemcpy,"ax",%progbits
  79 003e C046     		.align	2
  80              		.global	cymemcpy
  81              		.thumb
  82              		.thumb_func
  83              		.type	cymemcpy, %function
  84              	cymemcpy:
  85              	.LFB3:
  86              		.loc 1 594 0
 572:./Generated_Source/PSoC5/CyLib.c **** 
 573:./Generated_Source/PSoC5/CyLib.c **** /*******************************************************************************
 574:./Generated_Source/PSoC5/CyLib.c **** * Function Name: cymemcpy
 575:./Generated_Source/PSoC5/CyLib.c **** ********************************************************************************
 576:./Generated_Source/PSoC5/CyLib.c **** * Summary:
 577:./Generated_Source/PSoC5/CyLib.c **** *   MISRA C complient version of standard library memcpy.  
 578:./Generated_Source/PSoC5/CyLib.c **** *
 579:./Generated_Source/PSoC5/CyLib.c **** *
 580:./Generated_Source/PSoC5/CyLib.c **** * Parameters:
 581:./Generated_Source/PSoC5/CyLib.c **** *   
 582:./Generated_Source/PSoC5/CyLib.c **** *
 583:./Generated_Source/PSoC5/CyLib.c **** *
 584:./Generated_Source/PSoC5/CyLib.c **** * Return:
 585:./Generated_Source/PSoC5/CyLib.c **** *   
 586:./Generated_Source/PSoC5/CyLib.c **** *   
 587:./Generated_Source/PSoC5/CyLib.c **** *
 588:./Generated_Source/PSoC5/CyLib.c **** * Theory:
 589:./Generated_Source/PSoC5/CyLib.c **** *   
 590:./Generated_Source/PSoC5/CyLib.c **** *
 591:./Generated_Source/PSoC5/CyLib.c **** *
 592:./Generated_Source/PSoC5/CyLib.c **** *******************************************************************************/
 593:./Generated_Source/PSoC5/CyLib.c **** void * cymemcpy(void * s1, const void * s2, int32 n)
 594:./Generated_Source/PSoC5/CyLib.c **** {
ARM GAS  C:\Users\blinky\AppData\Local\Temp/ccwJbaaa.s 			page 13


  87              	tend = 0, frame = 24
  88              		@ frame_needed = 1, uses_anonymous_args = 0
  89              		@ link register save eliminated.
  90              		push	{r7}
  91 0000 80B4     	.LCFI3:
  92              		sub	sp, sp, #28
  93 0002 87B0     	.LCFI4:
  94              		add	r7, sp, #0
  95 0004 00AF     	.LCFI5:
  96              		@ lr needed for prologue
  97              		str	r0, [r7, #12]
  98 0006 F860     		str	r1, [r7, #8]
  99 0008 B960     		str	r2, [r7, #4]
 100 000a 7A60     		.loc 1 595 0
 595:./Generated_Source/PSoC5/CyLib.c ****     int8 * ss1 = (int8 *) s1;
 101              	#12]
 102 000c FB68     		str	r3, [r7, #16]
 103 000e 3B61     		.loc 1 596 0
 596:./Generated_Source/PSoC5/CyLib.c ****     int8 * ss2 = (int8 *) s2;
 104              	r	r3, [r7, #8]
 105 0010 BB68     		str	r3, [r7, #20]
 106 0012 7B61     		.loc 1 603 0
 597:./Generated_Source/PSoC5/CyLib.c **** 
 598:./Generated_Source/PSoC5/CyLib.c **** 
 599:./Generated_Source/PSoC5/CyLib.c ****     CYASSERT((s1));
 600:./Generated_Source/PSoC5/CyLib.c ****     CYASSERT((s2));
 601:./Generated_Source/PSoC5/CyLib.c ****     CYASSERT((n));
 602:./Generated_Source/PSoC5/CyLib.c **** 
 603:./Generated_Source/PSoC5/CyLib.c ****     while(n != 0)
 107              	.L7
 108 0014 0FE0     	.L8:
 109              		.loc 1 605 0
 604:./Generated_Source/PSoC5/CyLib.c ****     {
 605:./Generated_Source/PSoC5/CyLib.c ****         n--;
 110              	r	r3, [r7, #4]
 111 0016 7B68     		add	r3, r3, #-1
 112 0018 03F1FF33 		str	r3, [r7, #4]
 113 001c 7B60     		.loc 1 607 0
 606:./Generated_Source/PSoC5/CyLib.c ****     
 607:./Generated_Source/PSoC5/CyLib.c ****         *((int8 *) ss1) = *((int8 *) ss2);
 114              		r3, [r7, #20]
 115 001e 7B69     		ldrb	r3, [r3, #0]	@ zero_extendqisi2
 116 0020 1B78     		ldr	r2, [r7, #16]
 117 0022 3A69     		strb	r3, [r2, #0]
 118 0024 1370     		.loc 1 609 0
 608:./Generated_Source/PSoC5/CyLib.c ****     
 609:./Generated_Source/PSoC5/CyLib.c ****         ss1++;
 119              	r3, [r7, #16]
 120 0026 3B69     		add	r3, r3, #1
 121 0028 03F10103 		str	r3, [r7, #16]
 122 002c 3B61     		.loc 1 610 0
 610:./Generated_Source/PSoC5/CyLib.c ****         ss2++;
 123              		r3, [r7, #20]
 124 002e 7B69     		add	r3, r3, #1
 125 0030 03F10103 		str	r3, [r7, #20]
 126 0034 7B61     	.L7:
 127              		.loc 1 603 0
ARM GAS  C:\Users\blinky\AppData\Local\Temp/ccwJbaaa.s 			page 14


 128              		ldr	r3, [r7, #4]
 129 0036 7B68     		cmp	r3, #0
 130 0038 002B     		bne	.L8
 131 003a ECD1     		.loc 1 613 0
 611:./Generated_Source/PSoC5/CyLib.c ****     }
 612:./Generated_Source/PSoC5/CyLib.c **** 
 613:./Generated_Source/PSoC5/CyLib.c ****     return s1;
 132              	[r7, #12]
 133 003c FB68     		.loc 1 614 0
 614:./Generated_Source/PSoC5/CyLib.c **** }
 134              	ov	r0, r3
 135 003e 1846     		add	r7, r7, #28
 136 0040 07F11C07 		mov	sp, r7
 137 0044 BD46     		pop	{r7}
 138 0046 80BC     		bx	lr
 139 0048 7047     	.LFE3:
 140              		.size	cymemcpy, .-cymemcpy
 141              		.section	.text.cymemmove,"ax",%progbits
 142 004a C046     		.align	2
 143              		.global	cymemmove
 144              		.thumb
 145              		.thumb_func
 146              		.type	cymemmove, %function
 147              	cymemmove:
 148              	.LFB4:
 149              		.loc 1 637 0
 615:./Generated_Source/PSoC5/CyLib.c **** 
 616:./Generated_Source/PSoC5/CyLib.c **** /*******************************************************************************
 617:./Generated_Source/PSoC5/CyLib.c **** * Function Name: cymemmove
 618:./Generated_Source/PSoC5/CyLib.c **** ********************************************************************************
 619:./Generated_Source/PSoC5/CyLib.c **** * Summary:
 620:./Generated_Source/PSoC5/CyLib.c **** *   
 621:./Generated_Source/PSoC5/CyLib.c **** *
 622:./Generated_Source/PSoC5/CyLib.c **** *
 623:./Generated_Source/PSoC5/CyLib.c **** * Parameters:
 624:./Generated_Source/PSoC5/CyLib.c **** *   
 625:./Generated_Source/PSoC5/CyLib.c **** *
 626:./Generated_Source/PSoC5/CyLib.c **** *
 627:./Generated_Source/PSoC5/CyLib.c **** * Return:
 628:./Generated_Source/PSoC5/CyLib.c **** *   
 629:./Generated_Source/PSoC5/CyLib.c **** *   
 630:./Generated_Source/PSoC5/CyLib.c **** *
 631:./Generated_Source/PSoC5/CyLib.c **** * Theory:
 632:./Generated_Source/PSoC5/CyLib.c **** *   
 633:./Generated_Source/PSoC5/CyLib.c **** *
 634:./Generated_Source/PSoC5/CyLib.c **** *
 635:./Generated_Source/PSoC5/CyLib.c **** *******************************************************************************/
 636:./Generated_Source/PSoC5/CyLib.c **** void * cymemmove(void * s1, void * s2, int32 n)
 637:./Generated_Source/PSoC5/CyLib.c **** {
 150              	tend = 0, frame = 24
 151              		@ frame_needed = 1, uses_anonymous_args = 0
 152              		@ link register save eliminated.
 153              		push	{r7}
 154 0000 80B4     	.LCFI6:
 155              		sub	sp, sp, #28
 156 0002 87B0     	.LCFI7:
 157              		add	r7, sp, #0
ARM GAS  C:\Users\blinky\AppData\Local\Temp/ccwJbaaa.s 			page 15


 158 0004 00AF     	.LCFI8:
 159              		@ lr needed for prologue
 160              		str	r0, [r7, #12]
 161 0006 F860     		str	r1, [r7, #8]
 162 0008 B960     		str	r2, [r7, #4]
 163 000a 7A60     		.loc 1 638 0
 638:./Generated_Source/PSoC5/CyLib.c ****     int8 * ss1 = (int8 *) s1;
 164              	#12]
 165 000c FB68     		str	r3, [r7, #16]
 166 000e 3B61     		.loc 1 639 0
 639:./Generated_Source/PSoC5/CyLib.c ****     int8 * ss2 = (int8 *) s2;
 167              	r	r3, [r7, #8]
 168 0010 BB68     		str	r3, [r7, #20]
 169 0012 7B61     		.loc 1 646 0
 640:./Generated_Source/PSoC5/CyLib.c **** 
 641:./Generated_Source/PSoC5/CyLib.c **** 
 642:./Generated_Source/PSoC5/CyLib.c ****     CYASSERT((s1));
 643:./Generated_Source/PSoC5/CyLib.c ****     CYASSERT((s2));
 644:./Generated_Source/PSoC5/CyLib.c ****     CYASSERT((n));
 645:./Generated_Source/PSoC5/CyLib.c **** 
 646:./Generated_Source/PSoC5/CyLib.c **** 	if(n == 0)
 170              	r	r3, [r7, #4]
 171 0014 7B68     		cmp	r3, #0
 172 0016 002B     		beq	.L12
 173 0018 3AD0     		.loc 1 649 0
 647:./Generated_Source/PSoC5/CyLib.c **** 	{
 648:./Generated_Source/PSoC5/CyLib.c **** 	}
 649:./Generated_Source/PSoC5/CyLib.c ****     else if(s1 <= s2)
 174              		r2, [r7, #12]
 175 001a FA68     		ldr	r3, [r7, #8]
 176 001c BB68     		cmp	r2, r3
 177 001e 9A42     		bhi	.L14
 178 0020 14D8     		.loc 1 651 0
 650:./Generated_Source/PSoC5/CyLib.c ****     {
 651:./Generated_Source/PSoC5/CyLib.c ****         while(n != 0)
 179              	16
 180 0022 0FE0     	.L17:
 181              		.loc 1 653 0
 652:./Generated_Source/PSoC5/CyLib.c ****         {
 653:./Generated_Source/PSoC5/CyLib.c ****             n--;
 182              	r	r3, [r7, #4]
 183 0024 7B68     		add	r3, r3, #-1
 184 0026 03F1FF33 		str	r3, [r7, #4]
 185 002a 7B60     		.loc 1 654 0
 654:./Generated_Source/PSoC5/CyLib.c ****             *((int8 *) ss1) = *((int8 *) ss2);
 186              		r3, [r7, #20]
 187 002c 7B69     		ldrb	r3, [r3, #0]	@ zero_extendqisi2
 188 002e 1B78     		ldr	r2, [r7, #16]
 189 0030 3A69     		strb	r3, [r2, #0]
 190 0032 1370     		.loc 1 656 0
 655:./Generated_Source/PSoC5/CyLib.c ****         
 656:./Generated_Source/PSoC5/CyLib.c ****             ss1++;
 191              	r3, [r7, #16]
 192 0034 3B69     		add	r3, r3, #1
 193 0036 03F10103 		str	r3, [r7, #16]
 194 003a 3B61     		.loc 1 657 0
 657:./Generated_Source/PSoC5/CyLib.c ****             ss2++;
ARM GAS  C:\Users\blinky\AppData\Local\Temp/ccwJbaaa.s 			page 16


 195              		r3, [r7, #20]
 196 003c 7B69     		add	r3, r3, #1
 197 003e 03F10103 		str	r3, [r7, #20]
 198 0042 7B61     	.L16:
 199              		.loc 1 651 0
 200              		ldr	r3, [r7, #4]
 201 0044 7B68     		cmp	r3, #0
 202 0046 002B     		bne	.L17
 203 0048 ECD1     		b	.L12
 204 004a 21E0     	.L14:
 205              		.loc 1 662 0
 658:./Generated_Source/PSoC5/CyLib.c ****         }
 659:./Generated_Source/PSoC5/CyLib.c ****     }
 660:./Generated_Source/PSoC5/CyLib.c ****     else
 661:./Generated_Source/PSoC5/CyLib.c ****     {
 662:./Generated_Source/PSoC5/CyLib.c ****         ss1 += n;
 206              	7, #4]
 207 004c 7B68     		mov	r2, r3
 208 004e 1A46     		ldr	r3, [r7, #16]
 209 0050 3B69     		add	r3, r3, r2
 210 0052 1344     		str	r3, [r7, #16]
 211 0054 3B61     		.loc 1 663 0
 663:./Generated_Source/PSoC5/CyLib.c ****         ss2 += n;
 212              	3, [r7, #4]
 213 0056 7B68     		mov	r2, r3
 214 0058 1A46     		ldr	r3, [r7, #20]
 215 005a 7B69     		add	r3, r3, r2
 216 005c 1344     		str	r3, [r7, #20]
 217 005e 7B61     		.loc 1 664 0
 664:./Generated_Source/PSoC5/CyLib.c **** 		n++;
 218              	3, [r7, #4]
 219 0060 7B68     		add	r3, r3, #1
 220 0062 03F10103 		str	r3, [r7, #4]
 221 0066 7B60     		.loc 1 666 0
 665:./Generated_Source/PSoC5/CyLib.c **** 
 666:./Generated_Source/PSoC5/CyLib.c ****         while(n >= 0)
 222              	L19
 223 0068 0FE0     	.L20:
 224              		.loc 1 668 0
 667:./Generated_Source/PSoC5/CyLib.c ****         {
 668:./Generated_Source/PSoC5/CyLib.c ****             n--;
 225              	r	r3, [r7, #4]
 226 006a 7B68     		add	r3, r3, #-1
 227 006c 03F1FF33 		str	r3, [r7, #4]
 228 0070 7B60     		.loc 1 669 0
 669:./Generated_Source/PSoC5/CyLib.c ****             *((int8 *) ss1) = *((int8 *) ss2);
 229              		r3, [r7, #20]
 230 0072 7B69     		ldrb	r3, [r3, #0]	@ zero_extendqisi2
 231 0074 1B78     		ldr	r2, [r7, #16]
 232 0076 3A69     		strb	r3, [r2, #0]
 233 0078 1370     		.loc 1 671 0
 670:./Generated_Source/PSoC5/CyLib.c ****         
 671:./Generated_Source/PSoC5/CyLib.c ****             ss1--;
 234              	r3, [r7, #16]
 235 007a 3B69     		add	r3, r3, #-1
 236 007c 03F1FF33 		str	r3, [r7, #16]
 237 0080 3B61     		.loc 1 672 0
ARM GAS  C:\Users\blinky\AppData\Local\Temp/ccwJbaaa.s 			page 17


 672:./Generated_Source/PSoC5/CyLib.c ****             ss2--;
 238              		r3, [r7, #20]
 239 0082 7B69     		add	r3, r3, #-1
 240 0084 03F1FF33 		str	r3, [r7, #20]
 241 0088 7B61     	.L19:
 242              		.loc 1 666 0
 243              		ldr	r3, [r7, #4]
 244 008a 7B68     		cmp	r3, #0
 245 008c 002B     		bge	.L20
 246 008e ECDA     	.L12:
 247              		.loc 1 676 0
 673:./Generated_Source/PSoC5/CyLib.c ****         }
 674:./Generated_Source/PSoC5/CyLib.c ****     }
 675:./Generated_Source/PSoC5/CyLib.c **** 
 676:./Generated_Source/PSoC5/CyLib.c ****     return s1;
 248              	r7, #12]
 249 0090 FB68     		.loc 1 677 0
 677:./Generated_Source/PSoC5/CyLib.c **** }
 250              	ov	r0, r3
 251 0092 1846     		add	r7, r7, #28
 252 0094 07F11C07 		mov	sp, r7
 253 0098 BD46     		pop	{r7}
 254 009a 80BC     		bx	lr
 255 009c 7047     	.LFE4:
 256              		.size	cymemmove, .-cymemmove
 257              		.section	.text.cymemcmp,"ax",%progbits
 258 009e C046     		.align	2
 259              		.global	cymemcmp
 260              		.thumb
 261              		.thumb_func
 262              		.type	cymemcmp, %function
 263              	cymemcmp:
 264              	.LFB5:
 265              		.loc 1 700 0
 678:./Generated_Source/PSoC5/CyLib.c **** 
 679:./Generated_Source/PSoC5/CyLib.c **** /*******************************************************************************
 680:./Generated_Source/PSoC5/CyLib.c **** * Function Name: cymemcmp
 681:./Generated_Source/PSoC5/CyLib.c **** ********************************************************************************
 682:./Generated_Source/PSoC5/CyLib.c **** * Summary:
 683:./Generated_Source/PSoC5/CyLib.c **** *   
 684:./Generated_Source/PSoC5/CyLib.c **** *
 685:./Generated_Source/PSoC5/CyLib.c **** *
 686:./Generated_Source/PSoC5/CyLib.c **** * Parameters:
 687:./Generated_Source/PSoC5/CyLib.c **** *   
 688:./Generated_Source/PSoC5/CyLib.c **** *
 689:./Generated_Source/PSoC5/CyLib.c **** *
 690:./Generated_Source/PSoC5/CyLib.c **** * Return:
 691:./Generated_Source/PSoC5/CyLib.c **** *   
 692:./Generated_Source/PSoC5/CyLib.c **** *   
 693:./Generated_Source/PSoC5/CyLib.c **** *
 694:./Generated_Source/PSoC5/CyLib.c **** * Theory:
 695:./Generated_Source/PSoC5/CyLib.c **** *   
 696:./Generated_Source/PSoC5/CyLib.c **** *
 697:./Generated_Source/PSoC5/CyLib.c **** *
 698:./Generated_Source/PSoC5/CyLib.c **** *******************************************************************************/
 699:./Generated_Source/PSoC5/CyLib.c **** int cymemcmp(const void * s1, const void * s2, uint32 n)
 700:./Generated_Source/PSoC5/CyLib.c **** {
ARM GAS  C:\Users\blinky\AppData\Local\Temp/ccwJbaaa.s 			page 18


 266              	tend = 0, frame = 32
 267              		@ frame_needed = 1, uses_anonymous_args = 0
 268              		@ link register save eliminated.
 269              		push	{r7}
 270 0000 80B4     	.LCFI9:
 271              		sub	sp, sp, #36
 272 0002 89B0     	.LCFI10:
 273              		add	r7, sp, #0
 274 0004 00AF     	.LCFI11:
 275              		@ lr needed for prologue
 276              		str	r0, [r7, #12]
 277 0006 F860     		str	r1, [r7, #8]
 278 0008 B960     		str	r2, [r7, #4]
 279 000a 7A60     		.loc 1 701 0
 701:./Generated_Source/PSoC5/CyLib.c ****     int8 c = 0;
 280              	trb	r3, [r7, #23]
 281 000c 4FF00003 		.loc 1 702 0
 282 0010 FB75     		ldr	r3, [r7, #12]
 702:./Generated_Source/PSoC5/CyLib.c ****     const uint8 * ss1 = s1;
 283              	r	r3, [r7, #24]
 284 0012 FB68     		.loc 1 703 0
 285 0014 BB61     		ldr	r3, [r7, #8]
 703:./Generated_Source/PSoC5/CyLib.c ****     const uint8 * ss2 = s2;
 286              	r	r3, [r7, #28]
 287 0016 BB68     		.loc 1 710 0
 288 0018 FB61     		b	.L23
 704:./Generated_Source/PSoC5/CyLib.c **** 
 705:./Generated_Source/PSoC5/CyLib.c **** 
 706:./Generated_Source/PSoC5/CyLib.c ****     CYASSERT((s1));
 707:./Generated_Source/PSoC5/CyLib.c ****     CYASSERT((s2));
 708:./Generated_Source/PSoC5/CyLib.c ****     CYASSERT((n));
 709:./Generated_Source/PSoC5/CyLib.c **** 
 710:./Generated_Source/PSoC5/CyLib.c ****     while(n != 0)
 289              	4:
 290 001a 1AE0     		.loc 1 712 0
 291              		ldr	r3, [r7, #4]
 711:./Generated_Source/PSoC5/CyLib.c ****     {
 712:./Generated_Source/PSoC5/CyLib.c ****         n--;
 292              	d	r3, r3, #-1
 293 001c 7B68     		str	r3, [r7, #4]
 294 001e 03F1FF33 		.loc 1 714 0
 295 0022 7B60     		ldr	r3, [r7, #24]
 713:./Generated_Source/PSoC5/CyLib.c **** 
 714:./Generated_Source/PSoC5/CyLib.c ****         if(*ss1 != *ss2)
 296              	b	r2, [r3, #0]	@ zero_extendqisi2
 297 0024 BB69     		ldr	r3, [r7, #28]
 298 0026 1A78     		ldrb	r3, [r3, #0]	@ zero_extendqisi2
 299 0028 FB69     		cmp	r2, r3
 300 002a 1B78     		beq	.L25
 301 002c 9A42     		.loc 1 716 0
 302 002e 08D0     		ldr	r3, [r7, #24]
 715:./Generated_Source/PSoC5/CyLib.c ****         {
 716:./Generated_Source/PSoC5/CyLib.c ****             c = *ss1 - *ss2;
 303              	2, [r3, #0]	@ zero_extendqisi2
 304 0030 BB69     		ldr	r3, [r7, #28]
 305 0032 1A78     		ldrb	r3, [r3, #0]	@ zero_extendqisi2
 306 0034 FB69     		rsb	r3, r3, r2
ARM GAS  C:\Users\blinky\AppData\Local\Temp/ccwJbaaa.s 			page 19


 307 0036 1B78     		uxtb	r3, r3
 308 0038 C3EB0203 		strb	r3, [r7, #23]
 309 003c DBB2     		.loc 1 717 0
 310 003e FB75     		b	.L27
 717:./Generated_Source/PSoC5/CyLib.c ****             break;
 311              	loc 1 721 0
 312 0040 0AE0     		ldr	r3, [r7, #24]
 313              		add	r3, r3, #1
 718:./Generated_Source/PSoC5/CyLib.c ****         }
 719:./Generated_Source/PSoC5/CyLib.c ****         else
 720:./Generated_Source/PSoC5/CyLib.c ****         {
 721:./Generated_Source/PSoC5/CyLib.c ****             ss1++;
 314              	r	r3, [r7, #24]
 315 0042 BB69     		.loc 1 722 0
 316 0044 03F10103 		ldr	r3, [r7, #28]
 317 0048 BB61     		add	r3, r3, #1
 722:./Generated_Source/PSoC5/CyLib.c ****             ss2++;
 318              		r3, [r7, #28]
 319 004a FB69     	.L23:
 320 004c 03F10103 		.loc 1 710 0
 321 0050 FB61     		ldr	r3, [r7, #4]
 322              		cmp	r3, #0
 323              		bne	.L24
 324 0052 7B68     	.L27:
 325 0054 002B     		.loc 1 726 0
 326 0056 E1D1     		ldrsb	r3, [r7, #23]
 327              		.loc 1 727 0
 723:./Generated_Source/PSoC5/CyLib.c ****         }
 724:./Generated_Source/PSoC5/CyLib.c ****     }
 725:./Generated_Source/PSoC5/CyLib.c ****     
 726:./Generated_Source/PSoC5/CyLib.c ****     return c;
 328              	3
 329 0058 97F91730 		add	r7, r7, #36
 727:./Generated_Source/PSoC5/CyLib.c **** }
 330              	ov	sp, r7
 331 005c 1846     		pop	{r7}
 332 005e 07F12407 		bx	lr
 333 0062 BD46     	.LFE5:
 334 0064 80BC     		.size	cymemcmp, .-cymemcmp
 335 0066 7047     		.section	.text.cymemchr,"ax",%progbits
 336              		.align	2
 337              		.global	cymemchr
 338              		.thumb
 339              		.thumb_func
 340              		.type	cymemchr, %function
 341              	cymemchr:
 342              	.LFB6:
 343              		.loc 1 750 0
 344              		@ args = 0, pretend = 0, frame = 24
 345              		@ frame_needed = 1, uses_anonymous_args = 0
 728:./Generated_Source/PSoC5/CyLib.c **** 
 729:./Generated_Source/PSoC5/CyLib.c **** /*******************************************************************************
 730:./Generated_Source/PSoC5/CyLib.c **** * Function Name: cymemchr
 731:./Generated_Source/PSoC5/CyLib.c **** ********************************************************************************
 732:./Generated_Source/PSoC5/CyLib.c **** * Summary:
 733:./Generated_Source/PSoC5/CyLib.c **** *   
 734:./Generated_Source/PSoC5/CyLib.c **** *
ARM GAS  C:\Users\blinky\AppData\Local\Temp/ccwJbaaa.s 			page 20


 735:./Generated_Source/PSoC5/CyLib.c **** *
 736:./Generated_Source/PSoC5/CyLib.c **** * Parameters:
 737:./Generated_Source/PSoC5/CyLib.c **** *   
 738:./Generated_Source/PSoC5/CyLib.c **** *
 739:./Generated_Source/PSoC5/CyLib.c **** *
 740:./Generated_Source/PSoC5/CyLib.c **** * Return:
 741:./Generated_Source/PSoC5/CyLib.c **** *   
 742:./Generated_Source/PSoC5/CyLib.c **** *   
 743:./Generated_Source/PSoC5/CyLib.c **** *
 744:./Generated_Source/PSoC5/CyLib.c **** * Theory:
 745:./Generated_Source/PSoC5/CyLib.c **** *   
 746:./Generated_Source/PSoC5/CyLib.c **** *
 747:./Generated_Source/PSoC5/CyLib.c **** *
 748:./Generated_Source/PSoC5/CyLib.c **** *******************************************************************************/
 749:./Generated_Source/PSoC5/CyLib.c **** void * cymemchr(const void * s, int c, uint32 n)
 750:./Generated_Source/PSoC5/CyLib.c **** {
 346              	 save eliminated.
 347              		push	{r7}
 348              	.LCFI12:
 349              		sub	sp, sp, #28
 350 0000 80B4     	.LCFI13:
 351              		add	r7, sp, #0
 352 0002 87B0     	.LCFI14:
 353              		@ lr needed for prologue
 354 0004 00AF     		str	r0, [r7, #12]
 355              		str	r1, [r7, #8]
 356              		str	r2, [r7, #4]
 357 0006 F860     		.loc 1 751 0
 358 0008 B960     		ldr	r3, [r7, #12]
 359 000a 7A60     		str	r3, [r7, #20]
 751:./Generated_Source/PSoC5/CyLib.c ****     uint8 * ss = (unsigned char*) s;
 360              		b	.L30
 361 000c FB68     	.L31:
 362 000e 7B61     		.loc 1 760 0
 752:./Generated_Source/PSoC5/CyLib.c **** 
 753:./Generated_Source/PSoC5/CyLib.c **** 
 754:./Generated_Source/PSoC5/CyLib.c ****     CYASSERT((s));
 755:./Generated_Source/PSoC5/CyLib.c ****     CYASSERT((c));
 756:./Generated_Source/PSoC5/CyLib.c ****     CYASSERT((n));
 757:./Generated_Source/PSoC5/CyLib.c **** 
 758:./Generated_Source/PSoC5/CyLib.c ****     while(n != 0)
 363              	r	r3, [r7, #4]
 364 0010 11E0     		add	r3, r3, #-1
 365              		str	r3, [r7, #4]
 759:./Generated_Source/PSoC5/CyLib.c ****     {
 760:./Generated_Source/PSoC5/CyLib.c ****         n--;
 366              	oc 1 761 0
 367 0012 7B68     		ldr	r3, [r7, #20]
 368 0014 03F1FF33 		ldrb	r2, [r3, #0]	@ zero_extendqisi2
 369 0018 7B60     		ldr	r3, [r7, #8]
 761:./Generated_Source/PSoC5/CyLib.c ****         if(*ss != (unsigned char) c)
 370              	b	r3, r3
 371 001a 7B69     		cmp	r2, r3
 372 001c 1A78     		beq	.L32
 373 001e BB68     		.loc 1 763 0
 374 0020 DBB2     		ldr	r3, [r7, #20]
 375 0022 9A42     		add	r3, r3, #1
ARM GAS  C:\Users\blinky\AppData\Local\Temp/ccwJbaaa.s 			page 21


 376 0024 04D0     		str	r3, [r7, #20]
 762:./Generated_Source/PSoC5/CyLib.c ****         {
 763:./Generated_Source/PSoC5/CyLib.c ****             ss++;
 377              	
 378 0026 7B69     	.L32:
 379 0028 03F10103 		.loc 1 767 0
 380 002c 7B61     		ldr	r3, [r7, #20]
 381 002e 02E0     		str	r3, [r7, #0]
 382              		b	.L34
 764:./Generated_Source/PSoC5/CyLib.c ****         }
 765:./Generated_Source/PSoC5/CyLib.c ****         else
 766:./Generated_Source/PSoC5/CyLib.c ****         {
 767:./Generated_Source/PSoC5/CyLib.c ****             return ss;
 383              	
 384 0030 7B69     		.loc 1 758 0
 385 0032 3B60     		ldr	r3, [r7, #4]
 386 0034 05E0     		cmp	r3, #0
 387              		bne	.L31
 388              		.loc 1 770 0
 389 0036 7B68     		mov	r3, #0
 390 0038 002B     		str	r3, [r7, #0]
 391 003a EAD1     	.L34:
 768:./Generated_Source/PSoC5/CyLib.c ****         }
 769:./Generated_Source/PSoC5/CyLib.c ****     }
 770:./Generated_Source/PSoC5/CyLib.c ****     return 0;
 392              	 [r7, #0]
 393 003c 4FF00003 		.loc 1 771 0
 394 0040 3B60     		mov	r0, r3
 395              		add	r7, r7, #28
 396 0042 3B68     		mov	sp, r7
 771:./Generated_Source/PSoC5/CyLib.c **** }
 397              	{r7}
 398 0044 1846     		bx	lr
 399 0046 07F11C07 	.LFE6:
 400 004a BD46     		.size	cymemchr, .-cymemchr
 401 004c 80BC     		.section	.text.cystrcat,"ax",%progbits
 402 004e 7047     		.align	2
 403              		.global	cystrcat
 404              		.thumb
 405              		.thumb_func
 406              		.type	cystrcat, %function
 407              	cystrcat:
 408              	.LFB7:
 409              		.loc 1 794 0
 410              		@ args = 0, pretend = 0, frame = 16
 411              		@ frame_needed = 1, uses_anonymous_args = 0
 412              		@ link register save eliminated.
 772:./Generated_Source/PSoC5/CyLib.c **** 
 773:./Generated_Source/PSoC5/CyLib.c **** /*******************************************************************************
 774:./Generated_Source/PSoC5/CyLib.c **** * Function Name: cystrcat
 775:./Generated_Source/PSoC5/CyLib.c **** ********************************************************************************
 776:./Generated_Source/PSoC5/CyLib.c **** * Summary:
 777:./Generated_Source/PSoC5/CyLib.c **** *   
 778:./Generated_Source/PSoC5/CyLib.c **** *
 779:./Generated_Source/PSoC5/CyLib.c **** *
 780:./Generated_Source/PSoC5/CyLib.c **** * Parameters:
 781:./Generated_Source/PSoC5/CyLib.c **** *   
ARM GAS  C:\Users\blinky\AppData\Local\Temp/ccwJbaaa.s 			page 22


 782:./Generated_Source/PSoC5/CyLib.c **** *
 783:./Generated_Source/PSoC5/CyLib.c **** *
 784:./Generated_Source/PSoC5/CyLib.c **** * Return:
 785:./Generated_Source/PSoC5/CyLib.c **** *   
 786:./Generated_Source/PSoC5/CyLib.c **** *   
 787:./Generated_Source/PSoC5/CyLib.c **** *
 788:./Generated_Source/PSoC5/CyLib.c **** * Theory:
 789:./Generated_Source/PSoC5/CyLib.c **** *   
 790:./Generated_Source/PSoC5/CyLib.c **** *
 791:./Generated_Source/PSoC5/CyLib.c **** *
 792:./Generated_Source/PSoC5/CyLib.c **** *******************************************************************************/
 793:./Generated_Source/PSoC5/CyLib.c **** char * cystrcat(char * s1, char * s2)
 794:./Generated_Source/PSoC5/CyLib.c **** {
 413              	15:
 414              		sub	sp, sp, #20
 415              	.LCFI16:
 416              		add	r7, sp, #0
 417 0000 80B4     	.LCFI17:
 418              		@ lr needed for prologue
 419 0002 85B0     		str	r0, [r7, #4]
 420              		str	r1, [r7, #0]
 421 0004 00AF     		.loc 1 796 0
 422              		ldr	r3, [r7, #4]
 423              		str	r3, [r7, #12]
 424 0006 7860     		.loc 1 803 0
 425 0008 3960     		b	.L38
 795:./Generated_Source/PSoC5/CyLib.c ****     char c;
 796:./Generated_Source/PSoC5/CyLib.c ****     char * ss1 = s1;
 426              	 805 0
 427 000a 7B68     		ldr	r3, [r7, #12]
 428 000c FB60     		add	r3, r3, #1
 797:./Generated_Source/PSoC5/CyLib.c **** 
 798:./Generated_Source/PSoC5/CyLib.c **** 
 799:./Generated_Source/PSoC5/CyLib.c ****     CYASSERT((s1));
 800:./Generated_Source/PSoC5/CyLib.c ****     CYASSERT((s2));
 801:./Generated_Source/PSoC5/CyLib.c **** 
 802:./Generated_Source/PSoC5/CyLib.c ****     /* find end of s1 */
 803:./Generated_Source/PSoC5/CyLib.c ****     while(*ss1)
 429              	r	r3, [r7, #12]
 430 000e 03E0     	.L38:
 431              		.loc 1 803 0
 804:./Generated_Source/PSoC5/CyLib.c ****     {
 805:./Generated_Source/PSoC5/CyLib.c ****         ss1++;
 432              	r	r3, [r7, #12]
 433 0010 FB68     		ldrb	r3, [r3, #0]	@ zero_extendqisi2
 434 0012 03F10103 		cmp	r3, #0
 435 0016 FB60     		bne	.L39
 436              	.L40:
 437              		.loc 1 811 0
 438 0018 FB68     		ldr	r3, [r7, #0]
 439 001a 1B78     		ldrb	r3, [r3, #0]	@ zero_extendqisi2
 440 001c 002B     		ldr	r2, [r7, #12]
 441 001e F7D1     		strb	r3, [r2, #0]
 442              		ldr	r3, [r7, #12]
 806:./Generated_Source/PSoC5/CyLib.c ****     }
 807:./Generated_Source/PSoC5/CyLib.c **** 
 808:./Generated_Source/PSoC5/CyLib.c ****     /* Copy s2 to end of s1 */
ARM GAS  C:\Users\blinky\AppData\Local\Temp/ccwJbaaa.s 			page 23


 809:./Generated_Source/PSoC5/CyLib.c ****     do
 810:./Generated_Source/PSoC5/CyLib.c ****     {
 811:./Generated_Source/PSoC5/CyLib.c ****         c = *ss1++ = *s2++;
 443              	r3, #0]
 444 0020 3B68     		strb	r3, [r7, #11]
 445 0022 1B78     		ldr	r3, [r7, #12]
 446 0024 FA68     		add	r3, r3, #1
 447 0026 1370     		str	r3, [r7, #12]
 448 0028 FB68     		ldr	r3, [r7, #0]
 449 002a 1B78     		add	r3, r3, #1
 450 002c FB72     		str	r3, [r7, #0]
 451 002e FB68     		.loc 1 813 0
 452 0030 03F10103 		ldrb	r3, [r7, #11]	@ zero_extendqisi2
 453 0034 FB60     		cmp	r3, #0
 454 0036 3B68     		bne	.L40
 455 0038 03F10103 		.loc 1 815 0
 456 003c 3B60     		ldr	r3, [r7, #4]
 812:./Generated_Source/PSoC5/CyLib.c ****         
 813:./Generated_Source/PSoC5/CyLib.c ****     } while(c != 0);
 457              		mov	r0, r3
 458 003e FB7A     		add	r7, r7, #20
 459 0040 002B     		mov	sp, r7
 460 0042 EDD1     		pop	{r7}
 814:./Generated_Source/PSoC5/CyLib.c **** 
 815:./Generated_Source/PSoC5/CyLib.c ****     return s1;
 461              	lr
 462 0044 7B68     	.LFE7:
 816:./Generated_Source/PSoC5/CyLib.c **** 
 817:./Generated_Source/PSoC5/CyLib.c **** }
 463              	size	cystrcat, .-cystrcat
 464 0046 1846     		.section	.text.cystrcpy,"ax",%progbits
 465 0048 07F11407 		.align	2
 466 004c BD46     		.global	cystrcpy
 467 004e 80BC     		.thumb
 468 0050 7047     		.thumb_func
 469              		.type	cystrcpy, %function
 470              	cystrcpy:
 471 0052 C046     	.LFB8:
 472              		.loc 1 840 0
 473              		@ args = 0, pretend = 0, frame = 16
 474              		@ frame_needed = 1, uses_anonymous_args = 0
 475              		@ link register save eliminated.
 476              		push	{r7}
 477              	.LCFI18:
 478              		sub	sp, sp, #20
 818:./Generated_Source/PSoC5/CyLib.c **** 
 819:./Generated_Source/PSoC5/CyLib.c **** /*******************************************************************************
 820:./Generated_Source/PSoC5/CyLib.c **** * Function Name: cystrcpy
 821:./Generated_Source/PSoC5/CyLib.c **** ********************************************************************************
 822:./Generated_Source/PSoC5/CyLib.c **** * Summary:
 823:./Generated_Source/PSoC5/CyLib.c **** *   
 824:./Generated_Source/PSoC5/CyLib.c **** *
 825:./Generated_Source/PSoC5/CyLib.c **** *
 826:./Generated_Source/PSoC5/CyLib.c **** * Parameters:
 827:./Generated_Source/PSoC5/CyLib.c **** *   
 828:./Generated_Source/PSoC5/CyLib.c **** *
 829:./Generated_Source/PSoC5/CyLib.c **** *
ARM GAS  C:\Users\blinky\AppData\Local\Temp/ccwJbaaa.s 			page 24


 830:./Generated_Source/PSoC5/CyLib.c **** * Return:
 831:./Generated_Source/PSoC5/CyLib.c **** *   
 832:./Generated_Source/PSoC5/CyLib.c **** *   
 833:./Generated_Source/PSoC5/CyLib.c **** *
 834:./Generated_Source/PSoC5/CyLib.c **** * Theory:
 835:./Generated_Source/PSoC5/CyLib.c **** *   
 836:./Generated_Source/PSoC5/CyLib.c **** *
 837:./Generated_Source/PSoC5/CyLib.c **** *
 838:./Generated_Source/PSoC5/CyLib.c **** *******************************************************************************/
 839:./Generated_Source/PSoC5/CyLib.c **** char * cystrcpy(char * s1, char * s2)
 840:./Generated_Source/PSoC5/CyLib.c **** {
 479              	, sp, #0
 480              	.LCFI20:
 481              		@ lr needed for prologue
 482              		str	r0, [r7, #4]
 483 0000 80B4     		str	r1, [r7, #0]
 484              		.loc 1 842 0
 485 0002 85B0     		ldr	r3, [r7, #4]
 486              		str	r3, [r7, #12]
 487 0004 00AF     	.L44:
 488              		.loc 1 851 0
 489              		ldr	r3, [r7, #0]
 490 0006 7860     		ldrb	r3, [r3, #0]	@ zero_extendqisi2
 491 0008 3960     		ldr	r2, [r7, #12]
 841:./Generated_Source/PSoC5/CyLib.c ****     char c;
 842:./Generated_Source/PSoC5/CyLib.c ****     char * ss1 = s1;
 492              	, #0]
 493 000a 7B68     		ldr	r3, [r7, #12]
 494 000c FB60     		ldrb	r3, [r3, #0]
 495              		strb	r3, [r7, #11]
 843:./Generated_Source/PSoC5/CyLib.c **** 
 844:./Generated_Source/PSoC5/CyLib.c **** 
 845:./Generated_Source/PSoC5/CyLib.c ****     CYASSERT((s1));
 846:./Generated_Source/PSoC5/CyLib.c ****     CYASSERT((s2));
 847:./Generated_Source/PSoC5/CyLib.c **** 
 848:./Generated_Source/PSoC5/CyLib.c ****     /* Copy src over dst until we get to a NULL */
 849:./Generated_Source/PSoC5/CyLib.c ****     do
 850:./Generated_Source/PSoC5/CyLib.c ****     {
 851:./Generated_Source/PSoC5/CyLib.c ****         c = *ss1++ = *s2++;
 496              		r3, [r7, #12]
 497 000e 3B68     		add	r3, r3, #1
 498 0010 1B78     		str	r3, [r7, #12]
 499 0012 FA68     		ldr	r3, [r7, #0]
 500 0014 1370     		add	r3, r3, #1
 501 0016 FB68     		str	r3, [r7, #0]
 502 0018 1B78     		.loc 1 853 0
 503 001a FB72     		ldrb	r3, [r7, #11]	@ zero_extendqisi2
 504 001c FB68     		cmp	r3, #0
 505 001e 03F10103 		bne	.L44
 506 0022 FB60     		.loc 1 856 0
 507 0024 3B68     		ldr	r3, [r7, #4]
 508 0026 03F10103 		.loc 1 857 0
 509 002a 3B60     		mov	r0, r3
 852:./Generated_Source/PSoC5/CyLib.c ****         
 853:./Generated_Source/PSoC5/CyLib.c ****     } while(c != 0);
 510              	20
 511 002c FB7A     		mov	sp, r7
ARM GAS  C:\Users\blinky\AppData\Local\Temp/ccwJbaaa.s 			page 25


 512 002e 002B     		pop	{r7}
 513 0030 EDD1     		bx	lr
 854:./Generated_Source/PSoC5/CyLib.c **** 
 855:./Generated_Source/PSoC5/CyLib.c **** 
 856:./Generated_Source/PSoC5/CyLib.c ****     return s1;
 514              	8:
 515 0032 7B68     		.size	cystrcpy, .-cystrcpy
 857:./Generated_Source/PSoC5/CyLib.c **** }
 516              	section	.text.cystrncpy,"ax",%progbits
 517 0034 1846     		.align	2
 518 0036 07F11407 		.global	cystrncpy
 519 003a BD46     		.thumb
 520 003c 80BC     		.thumb_func
 521 003e 7047     		.type	cystrncpy, %function
 522              	cystrncpy:
 523              	.LFB9:
 524              		.loc 1 880 0
 525              		@ args = 0, pretend = 0, frame = 32
 526              		@ frame_needed = 1, uses_anonymous_args = 0
 527              		@ link register save eliminated.
 528              		push	{r7}
 529              	.LCFI21:
 530              		sub	sp, sp, #36
 531              	.LCFI22:
 858:./Generated_Source/PSoC5/CyLib.c **** 
 859:./Generated_Source/PSoC5/CyLib.c **** /*******************************************************************************
 860:./Generated_Source/PSoC5/CyLib.c **** * Function Name: cystrncpy
 861:./Generated_Source/PSoC5/CyLib.c **** ********************************************************************************
 862:./Generated_Source/PSoC5/CyLib.c **** * Summary:
 863:./Generated_Source/PSoC5/CyLib.c **** *   
 864:./Generated_Source/PSoC5/CyLib.c **** *
 865:./Generated_Source/PSoC5/CyLib.c **** *
 866:./Generated_Source/PSoC5/CyLib.c **** * Parameters:
 867:./Generated_Source/PSoC5/CyLib.c **** *   
 868:./Generated_Source/PSoC5/CyLib.c **** *
 869:./Generated_Source/PSoC5/CyLib.c **** *
 870:./Generated_Source/PSoC5/CyLib.c **** * Return:
 871:./Generated_Source/PSoC5/CyLib.c **** *   
 872:./Generated_Source/PSoC5/CyLib.c **** *   
 873:./Generated_Source/PSoC5/CyLib.c **** *
 874:./Generated_Source/PSoC5/CyLib.c **** * Theory:
 875:./Generated_Source/PSoC5/CyLib.c **** *   
 876:./Generated_Source/PSoC5/CyLib.c **** *
 877:./Generated_Source/PSoC5/CyLib.c **** *
 878:./Generated_Source/PSoC5/CyLib.c **** *******************************************************************************/
 879:./Generated_Source/PSoC5/CyLib.c **** char * cystrncpy(char * s1, char * s2, uint32 n)
 880:./Generated_Source/PSoC5/CyLib.c **** {
 532              	.LCFI23:
 533              		@ lr needed for prologue
 534              		str	r0, [r7, #12]
 535              		str	r1, [r7, #8]
 536 0000 80B4     		str	r2, [r7, #4]
 537              		.loc 1 882 0
 538 0002 89B0     		ldr	r3, [r7, #12]
 539              		str	r3, [r7, #24]
 540 0004 00AF     		.loc 1 883 0
 541              		ldr	r3, [r7, #8]
ARM GAS  C:\Users\blinky\AppData\Local\Temp/ccwJbaaa.s 			page 26


 542              		str	r3, [r7, #28]
 543 0006 F860     		.loc 1 890 0
 544 0008 B960     		b	.L48
 545 000a 7A60     	.L49:
 881:./Generated_Source/PSoC5/CyLib.c ****     char ch;
 882:./Generated_Source/PSoC5/CyLib.c ****     char * ss1 = s1;
 546              		ldr	r3, [r7, #4]
 547 000c FB68     		add	r3, r3, #-1
 548 000e BB61     		str	r3, [r7, #4]
 883:./Generated_Source/PSoC5/CyLib.c ****     char * ss2 = s2;
 549              	oc 1 894 0
 550 0010 BB68     		ldr	r3, [r7, #28]
 551 0012 FB61     		ldrb	r3, [r3, #0]
 884:./Generated_Source/PSoC5/CyLib.c **** 
 885:./Generated_Source/PSoC5/CyLib.c **** 
 886:./Generated_Source/PSoC5/CyLib.c ****     CYASSERT((s1));
 887:./Generated_Source/PSoC5/CyLib.c ****     CYASSERT((s2));
 888:./Generated_Source/PSoC5/CyLib.c ****     CYASSERT((n));
 889:./Generated_Source/PSoC5/CyLib.c **** 
 890:./Generated_Source/PSoC5/CyLib.c ****     while(n != 0)
 552              	rb	r3, [r7, #23]
 553 0014 25E0     		ldr	r3, [r7, #28]
 554              		add	r3, r3, #1
 891:./Generated_Source/PSoC5/CyLib.c ****     {
 892:./Generated_Source/PSoC5/CyLib.c ****         n--;
 555              	r	r3, [r7, #28]
 556 0016 7B68     		.loc 1 895 0
 557 0018 03F1FF33 		ldr	r2, [r7, #24]
 558 001c 7B60     		ldrb	r3, [r7, #23]
 893:./Generated_Source/PSoC5/CyLib.c ****     
 894:./Generated_Source/PSoC5/CyLib.c ****         ch = *ss2++;
 559              	b	r3, [r2, #0]
 560 001e FB69     		ldr	r3, [r7, #24]
 561 0020 1B78     		add	r3, r3, #1
 562 0022 FB75     		str	r3, [r7, #24]
 563 0024 FB69     		.loc 1 897 0
 564 0026 03F10103 		ldrb	r3, [r7, #23]	@ zero_extendqisi2
 565 002a FB61     		cmp	r3, #0
 895:./Generated_Source/PSoC5/CyLib.c ****         *ss1++ = ch;
 566              	48
 567 002c BA69     		.loc 1 899 0
 568 002e FB7D     		b	.L51
 569 0030 1370     	.L52:
 570 0032 BB69     		.loc 1 901 0
 571 0034 03F10103 		ldr	r3, [r7, #4]
 572 0038 BB61     		add	r3, r3, #-1
 896:./Generated_Source/PSoC5/CyLib.c **** 
 897:./Generated_Source/PSoC5/CyLib.c ****         if(ch == 0)
 573              	, [r7, #4]
 574 003a FB7D     		.loc 1 902 0
 575 003c 002B     		ldr	r2, [r7, #24]
 576 003e 10D1     		mov	r3, #0
 898:./Generated_Source/PSoC5/CyLib.c ****         {
 899:./Generated_Source/PSoC5/CyLib.c ****             while(n != 0)
 577              	b	r3, [r2, #0]
 578 0040 0BE0     		ldr	r3, [r7, #24]
 579              		add	r3, r3, #1
ARM GAS  C:\Users\blinky\AppData\Local\Temp/ccwJbaaa.s 			page 27


 900:./Generated_Source/PSoC5/CyLib.c ****             {
 901:./Generated_Source/PSoC5/CyLib.c ****                 n--;
 580              	r	r3, [r7, #24]
 581 0042 7B68     	.L51:
 582 0044 03F1FF33 		.loc 1 899 0
 583 0048 7B60     		ldr	r3, [r7, #4]
 902:./Generated_Source/PSoC5/CyLib.c ****                 *ss1++ = 0;
 584              		r3, #0
 585 004a BA69     		bne	.L52
 586 004c 4FF00003 		.loc 1 905 0
 587 0050 1370     		b	.L54
 588 0052 BB69     	.L48:
 589 0054 03F10103 		.loc 1 890 0
 590 0058 BB61     		ldr	r3, [r7, #4]
 591              		cmp	r3, #0
 592              		bne	.L49
 593 005a 7B68     	.L54:
 594 005c 002B     		.loc 1 909 0
 595 005e F0D1     		ldr	r3, [r7, #12]
 903:./Generated_Source/PSoC5/CyLib.c ****             }
 904:./Generated_Source/PSoC5/CyLib.c **** 
 905:./Generated_Source/PSoC5/CyLib.c ****             break;
 596              	0
 597 0060 02E0     		mov	r0, r3
 598              		add	r7, r7, #36
 599              		mov	sp, r7
 600 0062 7B68     		pop	{r7}
 601 0064 002B     		bx	lr
 602 0066 D6D1     	.LFE9:
 603              		.size	cystrncpy, .-cystrncpy
 906:./Generated_Source/PSoC5/CyLib.c ****         }
 907:./Generated_Source/PSoC5/CyLib.c ****     }
 908:./Generated_Source/PSoC5/CyLib.c **** 
 909:./Generated_Source/PSoC5/CyLib.c ****     return s1;
 604              	n	.text.cystrlen,"ax",%progbits
 605 0068 FB68     		.align	2
 910:./Generated_Source/PSoC5/CyLib.c **** }
 606              	global	cystrlen
 607 006a 1846     		.thumb
 608 006c 07F12407 		.thumb_func
 609 0070 BD46     		.type	cystrlen, %function
 610 0072 80BC     	cystrlen:
 611 0074 7047     	.LFB10:
 612              		.loc 1 933 0
 613              		@ args = 0, pretend = 0, frame = 16
 614 0076 C046     		@ frame_needed = 1, uses_anonymous_args = 0
 615              		@ link register save eliminated.
 616              		push	{r7}
 617              	.LCFI24:
 618              		sub	sp, sp, #20
 619              	.LCFI25:
 620              		add	r7, sp, #0
 621              	.LCFI26:
 911:./Generated_Source/PSoC5/CyLib.c **** 
 912:./Generated_Source/PSoC5/CyLib.c **** /*******************************************************************************
 913:./Generated_Source/PSoC5/CyLib.c **** * Function Name: cystrlen
 914:./Generated_Source/PSoC5/CyLib.c **** ********************************************************************************
ARM GAS  C:\Users\blinky\AppData\Local\Temp/ccwJbaaa.s 			page 28


 915:./Generated_Source/PSoC5/CyLib.c **** * Summary:
 916:./Generated_Source/PSoC5/CyLib.c **** *   
 917:./Generated_Source/PSoC5/CyLib.c **** *
 918:./Generated_Source/PSoC5/CyLib.c **** *
 919:./Generated_Source/PSoC5/CyLib.c **** * Parameters:
 920:./Generated_Source/PSoC5/CyLib.c **** *   
 921:./Generated_Source/PSoC5/CyLib.c **** *
 922:./Generated_Source/PSoC5/CyLib.c **** *
 923:./Generated_Source/PSoC5/CyLib.c **** * Return:
 924:./Generated_Source/PSoC5/CyLib.c **** *   
 925:./Generated_Source/PSoC5/CyLib.c **** *   
 926:./Generated_Source/PSoC5/CyLib.c **** *
 927:./Generated_Source/PSoC5/CyLib.c **** * Theory:
 928:./Generated_Source/PSoC5/CyLib.c **** *   
 929:./Generated_Source/PSoC5/CyLib.c **** *
 930:./Generated_Source/PSoC5/CyLib.c **** *
 931:./Generated_Source/PSoC5/CyLib.c **** *******************************************************************************/
 932:./Generated_Source/PSoC5/CyLib.c **** uint32 cystrlen(const char * s)
 933:./Generated_Source/PSoC5/CyLib.c **** {
 622              	 prologue
 623              		str	r0, [r7, #4]
 624              		.loc 1 934 0
 625              		mov	r3, #-1
 626 0000 80B4     		str	r3, [r7, #12]
 627              	.L57:
 628 0002 85B0     		.loc 1 941 0
 629              		ldr	r3, [r7, #12]
 630 0004 00AF     		add	r3, r3, #1
 631              		str	r3, [r7, #12]
 632              		.loc 1 943 0
 633 0006 7860     		ldr	r3, [r7, #4]
 934:./Generated_Source/PSoC5/CyLib.c ****     uint32 l = (uint32) -1;
 634              	3, #0]	@ zero_extendqisi2
 635 0008 4FF0FF33 		cmp	r3, #0
 636 000c FB60     		ite	eq
 637              		moveq	r3, #0
 935:./Generated_Source/PSoC5/CyLib.c **** 
 936:./Generated_Source/PSoC5/CyLib.c **** 
 937:./Generated_Source/PSoC5/CyLib.c ****     CYASSERT((s));
 938:./Generated_Source/PSoC5/CyLib.c **** 
 939:./Generated_Source/PSoC5/CyLib.c ****     do
 940:./Generated_Source/PSoC5/CyLib.c ****     {
 941:./Generated_Source/PSoC5/CyLib.c ****         l++;
 638              	ne	r3, #1
 639 000e FB68     		uxtb	r2, r3
 640 0010 03F10103 		ldr	r3, [r7, #4]
 641 0014 FB60     		add	r3, r3, #1
 942:./Generated_Source/PSoC5/CyLib.c **** 
 943:./Generated_Source/PSoC5/CyLib.c ****     } while(*s++ != 0);
 642              		r3, [r7, #4]
 643 0016 7B68     		cmp	r2, #0
 644 0018 1B78     		bne	.L57
 645 001a 002B     		.loc 1 945 0
 646 001c 0CBF     		ldr	r3, [r7, #12]
 647 001e 0023     		.loc 1 946 0
 648 0020 0123     		mov	r0, r3
 649 0022 DAB2     		add	r7, r7, #20
ARM GAS  C:\Users\blinky\AppData\Local\Temp/ccwJbaaa.s 			page 29


 650 0024 7B68     		mov	sp, r7
 651 0026 03F10103 		pop	{r7}
 652 002a 7B60     		bx	lr
 653 002c 002A     	.LFE10:
 654 002e EED1     		.size	cystrlen, .-cystrlen
 944:./Generated_Source/PSoC5/CyLib.c **** 
 945:./Generated_Source/PSoC5/CyLib.c ****     return l;
 655              	xt.cystrcmp,"ax",%progbits
 656 0030 FB68     		.align	2
 946:./Generated_Source/PSoC5/CyLib.c **** }
 657              	global	cystrcmp
 658 0032 1846     		.thumb
 659 0034 07F11407 		.thumb_func
 660 0038 BD46     		.type	cystrcmp, %function
 661 003a 80BC     	cystrcmp:
 662 003c 7047     	.LFB11:
 663              		.loc 1 968 0
 664              		@ args = 0, pretend = 0, frame = 16
 665              		@ frame_needed = 1, uses_anonymous_args = 0
 666              		@ link register save eliminated.
 667              		push	{r7}
 668              	.LCFI27:
 669              		sub	sp, sp, #20
 670              	.LCFI28:
 671              		add	r7, sp, #0
 672              	.LCFI29:
 947:./Generated_Source/PSoC5/CyLib.c **** 
 948:./Generated_Source/PSoC5/CyLib.c **** /*******************************************************************************
 949:./Generated_Source/PSoC5/CyLib.c **** * Function Name: cystrcmp
 950:./Generated_Source/PSoC5/CyLib.c **** ********************************************************************************
 951:./Generated_Source/PSoC5/CyLib.c **** * Summary:
 952:./Generated_Source/PSoC5/CyLib.c **** *   Compares strings s1 and s2.   
 953:./Generated_Source/PSoC5/CyLib.c **** *
 954:./Generated_Source/PSoC5/CyLib.c **** *
 955:./Generated_Source/PSoC5/CyLib.c **** * Parameters:
 956:./Generated_Source/PSoC5/CyLib.c **** *   
 957:./Generated_Source/PSoC5/CyLib.c **** *
 958:./Generated_Source/PSoC5/CyLib.c **** *
 959:./Generated_Source/PSoC5/CyLib.c **** * Return:
 960:./Generated_Source/PSoC5/CyLib.c **** *   returns -1 if s1 < s2  
 961:./Generated_Source/PSoC5/CyLib.c **** *   returns  0 if s1 = s2
 962:./Generated_Source/PSoC5/CyLib.c **** *   returns +1 if s1 > s2
 963:./Generated_Source/PSoC5/CyLib.c **** *   
 964:./Generated_Source/PSoC5/CyLib.c **** *   
 965:./Generated_Source/PSoC5/CyLib.c **** *
 966:./Generated_Source/PSoC5/CyLib.c **** *******************************************************************************/
 967:./Generated_Source/PSoC5/CyLib.c **** int32 cystrcmp(char * s1, char * s2)
 968:./Generated_Source/PSoC5/CyLib.c **** {
 673              	 prologue
 674              		str	r0, [r7, #4]
 675              		str	r1, [r7, #0]
 676              	.L61:
 677 0000 80B4     		.loc 1 977 0
 678              		ldr	r3, [r7, #4]
 679 0002 85B0     		ldrb	r3, [r3, #0]	@ zero_extendqisi2
 680              		mov	r2, r3
 681 0004 00AF     		ldr	r3, [r7, #0]
ARM GAS  C:\Users\blinky\AppData\Local\Temp/ccwJbaaa.s 			page 30


 682              		ldrb	r3, [r3, #0]	@ zero_extendqisi2
 683              		rsb	r3, r3, r2
 684 0006 7860     		str	r3, [r7, #12]
 685 0008 3960     		.loc 1 979 0
 686              		ldr	r3, [r7, #4]
 969:./Generated_Source/PSoC5/CyLib.c ****     int32 c;
 970:./Generated_Source/PSoC5/CyLib.c **** 
 971:./Generated_Source/PSoC5/CyLib.c **** 
 972:./Generated_Source/PSoC5/CyLib.c ****     CYASSERT((s1));
 973:./Generated_Source/PSoC5/CyLib.c ****     CYASSERT((s2));
 974:./Generated_Source/PSoC5/CyLib.c **** 
 975:./Generated_Source/PSoC5/CyLib.c ****     do
 976:./Generated_Source/PSoC5/CyLib.c ****     {
 977:./Generated_Source/PSoC5/CyLib.c ****         c = *((uint8 *)s1) - *((uint8 *)s2);
 687              	1
 688 000a 7B68     		str	r3, [r7, #4]
 689 000c 1B78     		.loc 1 980 0
 690 000e 1A46     		ldr	r3, [r7, #0]
 691 0010 3B68     		add	r3, r3, #1
 692 0012 1B78     		str	r3, [r7, #0]
 693 0014 C3EB0203 		.loc 1 982 0
 694 0018 FB60     		ldr	r3, [r7, #12]
 978:./Generated_Source/PSoC5/CyLib.c **** 
 979:./Generated_Source/PSoC5/CyLib.c ****         s1++;
 695              	 #0
 696 001a 7B68     		bne	.L62
 697 001c 03F10103 		ldr	r3, [r7, #0]
 698 0020 7B60     		ldrb	r3, [r3, #0]	@ zero_extendqisi2
 980:./Generated_Source/PSoC5/CyLib.c ****         s2++;
 699              		r3, #0
 700 0022 3B68     		bne	.L61
 701 0024 03F10103 	.L62:
 702 0028 3B60     		.loc 1 984 0
 981:./Generated_Source/PSoC5/CyLib.c **** 
 982:./Generated_Source/PSoC5/CyLib.c ****     } while(c == 0 && *s2 != 0);
 703              		r3, [r7, #12]
 704 002a FB68     		cmp	r3, #0
 705 002c 002B     		bge	.L64
 706 002e 03D1     		.loc 1 986 0
 707 0030 3B68     		mov	r3, #-1
 708 0032 1B78     		str	r3, [r7, #12]
 709 0034 002B     		b	.L66
 710 0036 E8D1     	.L64:
 711              		.loc 1 988 0
 983:./Generated_Source/PSoC5/CyLib.c **** 
 984:./Generated_Source/PSoC5/CyLib.c ****     if(c < 0)
 712              	[r7, #12]
 713 0038 FB68     		cmp	r3, #0
 714 003a 002B     		ble	.L66
 715 003c 03DA     		.loc 1 990 0
 985:./Generated_Source/PSoC5/CyLib.c ****     {
 986:./Generated_Source/PSoC5/CyLib.c ****         c = -1;
 716              		r3, #1
 717 003e 4FF0FF33 		str	r3, [r7, #12]
 718 0042 FB60     	.L66:
 719 0044 05E0     		.loc 1 993 0
 720              		ldr	r3, [r7, #12]
ARM GAS  C:\Users\blinky\AppData\Local\Temp/ccwJbaaa.s 			page 31


 987:./Generated_Source/PSoC5/CyLib.c ****     }
 988:./Generated_Source/PSoC5/CyLib.c ****     else if(c > 0)
 721              	 1 994 0
 722 0046 FB68     		mov	r0, r3
 723 0048 002B     		add	r7, r7, #20
 724 004a 02DD     		mov	sp, r7
 989:./Generated_Source/PSoC5/CyLib.c ****     {
 990:./Generated_Source/PSoC5/CyLib.c ****         c = 1;
 725              		{r7}
 726 004c 4FF00103 		bx	lr
 727 0050 FB60     	.LFE11:
 728              		.size	cystrcmp, .-cystrcmp
 991:./Generated_Source/PSoC5/CyLib.c ****     }
 992:./Generated_Source/PSoC5/CyLib.c **** 
 993:./Generated_Source/PSoC5/CyLib.c ****     return c;
 729              	ction	.text.cystrncmp,"ax",%progbits
 730 0052 FB68     		.align	2
 994:./Generated_Source/PSoC5/CyLib.c **** }
 731              	global	cystrncmp
 732 0054 1846     		.thumb
 733 0056 07F11407 		.thumb_func
 734 005a BD46     		.type	cystrncmp, %function
 735 005c 80BC     	cystrncmp:
 736 005e 7047     	.LFB12:
 737              		.loc 1 1017 0
 738              		@ args = 0, pretend = 0, frame = 24
 739              		@ frame_needed = 1, uses_anonymous_args = 0
 740              		@ link register save eliminated.
 741              		push	{r7}
 742              	.LCFI30:
 743              		sub	sp, sp, #28
 744              	.LCFI31:
 745              		add	r7, sp, #0
 746              	.LCFI32:
 995:./Generated_Source/PSoC5/CyLib.c **** 
 996:./Generated_Source/PSoC5/CyLib.c **** /*******************************************************************************
 997:./Generated_Source/PSoC5/CyLib.c **** * Function Name: cystrncmp
 998:./Generated_Source/PSoC5/CyLib.c **** ********************************************************************************
 999:./Generated_Source/PSoC5/CyLib.c **** * Summary:
1000:./Generated_Source/PSoC5/CyLib.c **** *   
1001:./Generated_Source/PSoC5/CyLib.c **** *
1002:./Generated_Source/PSoC5/CyLib.c **** *
1003:./Generated_Source/PSoC5/CyLib.c **** * Parameters:
1004:./Generated_Source/PSoC5/CyLib.c **** *   
1005:./Generated_Source/PSoC5/CyLib.c **** *
1006:./Generated_Source/PSoC5/CyLib.c **** *
1007:./Generated_Source/PSoC5/CyLib.c **** * Return:
1008:./Generated_Source/PSoC5/CyLib.c **** *   
1009:./Generated_Source/PSoC5/CyLib.c **** *   
1010:./Generated_Source/PSoC5/CyLib.c **** *
1011:./Generated_Source/PSoC5/CyLib.c **** * Theory:
1012:./Generated_Source/PSoC5/CyLib.c **** *   
1013:./Generated_Source/PSoC5/CyLib.c **** *
1014:./Generated_Source/PSoC5/CyLib.c **** *
1015:./Generated_Source/PSoC5/CyLib.c **** *******************************************************************************/
1016:./Generated_Source/PSoC5/CyLib.c **** int32 cystrncmp(const char * s1, const char * s2, uint32 n)
1017:./Generated_Source/PSoC5/CyLib.c **** {
ARM GAS  C:\Users\blinky\AppData\Local\Temp/ccwJbaaa.s 			page 32


 747              	 prologue
 748              		str	r0, [r7, #12]
 749              		str	r1, [r7, #8]
 750              		str	r2, [r7, #4]
 751 0000 80B4     	.L70:
 752              		.loc 1 1027 0
 753 0002 87B0     		ldr	r3, [r7, #12]
 754              		ldrb	r3, [r3, #0]	@ zero_extendqisi2
 755 0004 00AF     		mov	r2, r3
 756              		ldr	r3, [r7, #8]
 757              		ldrb	r3, [r3, #0]	@ zero_extendqisi2
 758 0006 F860     		rsb	r3, r3, r2
 759 0008 B960     		str	r3, [r7, #20]
 760 000a 7A60     		.loc 1 1028 0
 761              		ldr	r3, [r7, #12]
1018:./Generated_Source/PSoC5/CyLib.c ****     int32 c;
1019:./Generated_Source/PSoC5/CyLib.c **** 
1020:./Generated_Source/PSoC5/CyLib.c ****     CYASSERT((s1));
1021:./Generated_Source/PSoC5/CyLib.c ****     CYASSERT((s2));
1022:./Generated_Source/PSoC5/CyLib.c ****     CYASSERT((n));
1023:./Generated_Source/PSoC5/CyLib.c **** 
1024:./Generated_Source/PSoC5/CyLib.c **** 
1025:./Generated_Source/PSoC5/CyLib.c ****     do
1026:./Generated_Source/PSoC5/CyLib.c ****     {
1027:./Generated_Source/PSoC5/CyLib.c ****         c = *((uint8 *)s1) - *((uint8 *)s2);
 762              	
 763 000c FB68     		str	r3, [r7, #12]
 764 000e 1B78     		.loc 1 1029 0
 765 0010 1A46     		ldr	r3, [r7, #8]
 766 0012 BB68     		add	r3, r3, #1
 767 0014 1B78     		str	r3, [r7, #8]
 768 0016 C3EB0203 		.loc 1 1030 0
 769 001a 7B61     		ldr	r3, [r7, #4]
1028:./Generated_Source/PSoC5/CyLib.c ****         s1++;
 770              	, r3, #-1
 771 001c FB68     		str	r3, [r7, #4]
 772 001e 03F10103 		.loc 1 1032 0
 773 0022 FB60     		ldr	r3, [r7, #4]
1029:./Generated_Source/PSoC5/CyLib.c ****         s2++;
 774              		r3, #0
 775 0024 BB68     		beq	.L71
 776 0026 03F10103 		ldr	r3, [r7, #20]
 777 002a BB60     		cmp	r3, #0
1030:./Generated_Source/PSoC5/CyLib.c ****         n--;
 778              		.L71
 779 002c 7B68     		ldr	r3, [r7, #8]
 780 002e 03F1FF33 		ldrb	r3, [r3, #0]	@ zero_extendqisi2
 781 0032 7B60     		cmp	r3, #0
1031:./Generated_Source/PSoC5/CyLib.c **** 
1032:./Generated_Source/PSoC5/CyLib.c ****     } while(n != 0 && c == 0 && *s2 != 0);
 782              		.L70
 783 0034 7B68     	.L71:
 784 0036 002B     		.loc 1 1034 0
 785 0038 06D0     		ldr	r3, [r7, #20]
 786 003a 7B69     		cmp	r3, #0
 787 003c 002B     		bge	.L74
 788 003e 03D1     		.loc 1 1036 0
ARM GAS  C:\Users\blinky\AppData\Local\Temp/ccwJbaaa.s 			page 33


 789 0040 BB68     		mov	r3, #-1
 790 0042 1B78     		str	r3, [r7, #20]
 791 0044 002B     		b	.L76
 792 0046 E1D1     	.L74:
 793              		.loc 1 1038 0
1033:./Generated_Source/PSoC5/CyLib.c **** 
1034:./Generated_Source/PSoC5/CyLib.c ****     if(c < 0)
 794              	, #20]
 795 0048 7B69     		cmp	r3, #0
 796 004a 002B     		ble	.L76
 797 004c 03DA     		.loc 1 1040 0
1035:./Generated_Source/PSoC5/CyLib.c ****     {
1036:./Generated_Source/PSoC5/CyLib.c ****         c = -1;
 798              		r3, #1
 799 004e 4FF0FF33 		str	r3, [r7, #20]
 800 0052 7B61     	.L76:
 801 0054 05E0     		.loc 1 1043 0
 802              		ldr	r3, [r7, #20]
1037:./Generated_Source/PSoC5/CyLib.c ****     }
1038:./Generated_Source/PSoC5/CyLib.c ****     else if(c > 0)
 803              	 1 1044 0
 804 0056 7B69     		mov	r0, r3
 805 0058 002B     		add	r7, r7, #28
 806 005a 02DD     		mov	sp, r7
1039:./Generated_Source/PSoC5/CyLib.c ****     {
1040:./Generated_Source/PSoC5/CyLib.c ****         c = 1;
 807              		{r7}
 808 005c 4FF00103 		bx	lr
 809 0060 7B61     	.LFE12:
 810              		.size	cystrncmp, .-cystrncmp
1041:./Generated_Source/PSoC5/CyLib.c ****     }
1042:./Generated_Source/PSoC5/CyLib.c **** 
1043:./Generated_Source/PSoC5/CyLib.c ****     return c;
 811              	ction	.text.cystrncat,"ax",%progbits
 812 0062 7B69     		.align	2
1044:./Generated_Source/PSoC5/CyLib.c **** }
 813              	global	cystrncat
 814 0064 1846     		.thumb
 815 0066 07F11C07 		.thumb_func
 816 006a BD46     		.type	cystrncat, %function
 817 006c 80BC     	cystrncat:
 818 006e 7047     	.LFB13:
 819              		.loc 1 1067 0
 820              		@ args = 0, pretend = 0, frame = 24
 821              		@ frame_needed = 1, uses_anonymous_args = 0
 822              		@ link register save eliminated.
 823              		push	{r7}
 824              	.LCFI33:
 825              		sub	sp, sp, #28
 826              	.LCFI34:
 827              		add	r7, sp, #0
 828              	.LCFI35:
1045:./Generated_Source/PSoC5/CyLib.c **** 
1046:./Generated_Source/PSoC5/CyLib.c **** /*******************************************************************************
1047:./Generated_Source/PSoC5/CyLib.c **** * Function Name: cystrncat
1048:./Generated_Source/PSoC5/CyLib.c **** ********************************************************************************
1049:./Generated_Source/PSoC5/CyLib.c **** * Summary:
ARM GAS  C:\Users\blinky\AppData\Local\Temp/ccwJbaaa.s 			page 34


1050:./Generated_Source/PSoC5/CyLib.c **** *   
1051:./Generated_Source/PSoC5/CyLib.c **** *
1052:./Generated_Source/PSoC5/CyLib.c **** *
1053:./Generated_Source/PSoC5/CyLib.c **** * Parameters:
1054:./Generated_Source/PSoC5/CyLib.c **** *   
1055:./Generated_Source/PSoC5/CyLib.c **** *
1056:./Generated_Source/PSoC5/CyLib.c **** *
1057:./Generated_Source/PSoC5/CyLib.c **** * Return:
1058:./Generated_Source/PSoC5/CyLib.c **** *   
1059:./Generated_Source/PSoC5/CyLib.c **** *   
1060:./Generated_Source/PSoC5/CyLib.c **** *
1061:./Generated_Source/PSoC5/CyLib.c **** * Theory:
1062:./Generated_Source/PSoC5/CyLib.c **** *   
1063:./Generated_Source/PSoC5/CyLib.c **** *
1064:./Generated_Source/PSoC5/CyLib.c **** *
1065:./Generated_Source/PSoC5/CyLib.c **** *******************************************************************************/
1066:./Generated_Source/PSoC5/CyLib.c **** char * cystrncat(char * s1, const char * s2, uint32 n)
1067:./Generated_Source/PSoC5/CyLib.c **** {
 829              	 prologue
 830              		str	r0, [r7, #12]
 831              		str	r1, [r7, #8]
 832              		str	r2, [r7, #4]
 833 0000 80B4     		.loc 1 1068 0
 834              		ldr	r3, [r7, #12]
 835 0002 87B0     		str	r3, [r7, #16]
 836              		.loc 1 1076 0
 837 0004 00AF     		b	.L80
 838              	.L81:
 839              		.loc 1 1078 0
 840 0006 F860     		ldr	r3, [r7, #16]
 841 0008 B960     		add	r3, r3, #1
 842 000a 7A60     		str	r3, [r7, #16]
1068:./Generated_Source/PSoC5/CyLib.c ****     char * ss1 = s1;
 843              	1076 0
 844 000c FB68     		ldr	r3, [r7, #16]
 845 000e 3B61     		ldrb	r3, [r3, #0]	@ zero_extendqisi2
1069:./Generated_Source/PSoC5/CyLib.c ****     char temp;
1070:./Generated_Source/PSoC5/CyLib.c **** 
1071:./Generated_Source/PSoC5/CyLib.c **** 
1072:./Generated_Source/PSoC5/CyLib.c ****     CYASSERT((s1));
1073:./Generated_Source/PSoC5/CyLib.c ****     CYASSERT((s2));
1074:./Generated_Source/PSoC5/CyLib.c ****     CYASSERT((n));
1075:./Generated_Source/PSoC5/CyLib.c **** 
1076:./Generated_Source/PSoC5/CyLib.c ****     while(*ss1 != 0)
 846              	p	r3, #0
 847 0010 03E0     		bne	.L81
 848              		.loc 1 1081 0
1077:./Generated_Source/PSoC5/CyLib.c ****     {
1078:./Generated_Source/PSoC5/CyLib.c ****         ss1++;
 849              	.L83
 850 0012 3B69     	.L84:
 851 0014 03F10103 		.loc 1 1083 0
 852 0018 3B61     		ldr	r3, [r7, #4]
 853              		add	r3, r3, #-1
 854              		str	r3, [r7, #4]
 855 001a 3B69     		.loc 1 1086 0
 856 001c 1B78     		ldr	r3, [r7, #8]
ARM GAS  C:\Users\blinky\AppData\Local\Temp/ccwJbaaa.s 			page 35


 857 001e 002B     		ldrb	r3, [r3, #0]	@ zero_extendqisi2
 858 0020 F7D1     		ldr	r2, [r7, #16]
1079:./Generated_Source/PSoC5/CyLib.c ****     }
1080:./Generated_Source/PSoC5/CyLib.c **** 
1081:./Generated_Source/PSoC5/CyLib.c ****     while(n != 0)
 859              	[r2, #0]
 860 0022 15E0     		ldr	r3, [r7, #16]
 861              		ldrb	r3, [r3, #0]
1082:./Generated_Source/PSoC5/CyLib.c ****     {
1083:./Generated_Source/PSoC5/CyLib.c ****         n--;
 862              	rb	r3, [r7, #23]
 863 0024 7B68     		.loc 1 1087 0
 864 0026 03F1FF33 		ldr	r3, [r7, #16]
 865 002a 7B60     		add	r3, r3, #1
1084:./Generated_Source/PSoC5/CyLib.c ****     
1085:./Generated_Source/PSoC5/CyLib.c ****         //if(!(*ss1++ = *s2++))
1086:./Generated_Source/PSoC5/CyLib.c ****         temp = *ss1 = *s2;
 866              		r3, [r7, #16]
 867 002c BB68     		.loc 1 1088 0
 868 002e 1B78     		ldr	r3, [r7, #8]
 869 0030 3A69     		add	r3, r3, #1
 870 0032 1370     		str	r3, [r7, #8]
 871 0034 3B69     		.loc 1 1090 0
 872 0036 1B78     		ldrb	r3, [r7, #23]	@ zero_extendqisi2
 873 0038 FB75     		cmp	r3, #0
1087:./Generated_Source/PSoC5/CyLib.c ****         ss1++;
 874              	5
 875 003a 3B69     	.L83:
 876 003c 03F10103 		.loc 1 1081 0
 877 0040 3B61     		ldr	r3, [r7, #4]
1088:./Generated_Source/PSoC5/CyLib.c ****         s2++;
 878              		r3, #0
 879 0042 BB68     		bne	.L84
 880 0044 03F10103 	.L85:
 881 0048 BB60     		.loc 1 1097 0
1089:./Generated_Source/PSoC5/CyLib.c **** 
1090:./Generated_Source/PSoC5/CyLib.c ****         if(!temp)
 882              		r2, [r7, #16]
 883 004a FB7D     		mov	r3, #0
 884 004c 002B     		strb	r3, [r2, #0]
 885 004e 02D0     		.loc 1 1099 0
 886              		ldr	r3, [r7, #12]
 887              		.loc 1 1100 0
 888 0050 7B68     		mov	r0, r3
 889 0052 002B     		add	r7, r7, #28
 890 0054 E6D1     		mov	sp, r7
 891              		pop	{r7}
1091:./Generated_Source/PSoC5/CyLib.c ****         {
1092:./Generated_Source/PSoC5/CyLib.c ****             break;
1093:./Generated_Source/PSoC5/CyLib.c ****         }
1094:./Generated_Source/PSoC5/CyLib.c ****         
1095:./Generated_Source/PSoC5/CyLib.c ****     }
1096:./Generated_Source/PSoC5/CyLib.c ****     
1097:./Generated_Source/PSoC5/CyLib.c ****     *ss1 = 0;
 892              	E13:
 893 0056 3A69     		.size	cystrncat, .-cystrncat
 894 0058 4FF00003 		.section	.text.cystrchr,"ax",%progbits
ARM GAS  C:\Users\blinky\AppData\Local\Temp/ccwJbaaa.s 			page 36


 895 005c 1370     		.align	2
1098:./Generated_Source/PSoC5/CyLib.c **** 
1099:./Generated_Source/PSoC5/CyLib.c ****     return s1;
 896              	obal	cystrchr
 897 005e FB68     		.thumb
1100:./Generated_Source/PSoC5/CyLib.c **** }
 898              	thumb_func
 899 0060 1846     		.type	cystrchr, %function
 900 0062 07F11C07 	cystrchr:
 901 0066 BD46     	.LFB14:
 902 0068 80BC     		.loc 1 1123 0
 903 006a 7047     		@ args = 0, pretend = 0, frame = 16
 904              		@ frame_needed = 1, uses_anonymous_args = 0
 905              		@ link register save eliminated.
 906              		push	{r7}
 907              	.LCFI36:
 908              		sub	sp, sp, #20
 909              	.LCFI37:
 910              		add	r7, sp, #0
 911              	.LCFI38:
 912              		@ lr needed for prologue
 913              		str	r0, [r7, #4]
1101:./Generated_Source/PSoC5/CyLib.c **** 
1102:./Generated_Source/PSoC5/CyLib.c **** /*******************************************************************************
1103:./Generated_Source/PSoC5/CyLib.c **** * Function Name: cystrchr
1104:./Generated_Source/PSoC5/CyLib.c **** ********************************************************************************
1105:./Generated_Source/PSoC5/CyLib.c **** * Summary:
1106:./Generated_Source/PSoC5/CyLib.c **** *   
1107:./Generated_Source/PSoC5/CyLib.c **** *
1108:./Generated_Source/PSoC5/CyLib.c **** *
1109:./Generated_Source/PSoC5/CyLib.c **** * Parameters:
1110:./Generated_Source/PSoC5/CyLib.c **** *   
1111:./Generated_Source/PSoC5/CyLib.c **** *
1112:./Generated_Source/PSoC5/CyLib.c **** *
1113:./Generated_Source/PSoC5/CyLib.c **** * Return:
1114:./Generated_Source/PSoC5/CyLib.c **** *   
1115:./Generated_Source/PSoC5/CyLib.c **** *   
1116:./Generated_Source/PSoC5/CyLib.c **** *
1117:./Generated_Source/PSoC5/CyLib.c **** * Theory:
1118:./Generated_Source/PSoC5/CyLib.c **** *   
1119:./Generated_Source/PSoC5/CyLib.c **** *
1120:./Generated_Source/PSoC5/CyLib.c **** *
1121:./Generated_Source/PSoC5/CyLib.c **** *******************************************************************************/
1122:./Generated_Source/PSoC5/CyLib.c **** char * cystrchr(const char * s, char c)
1123:./Generated_Source/PSoC5/CyLib.c **** {
 914              	b	r3, [r7, #3]
 915              		.loc 1 1124 0
 916              		ldr	r3, [r7, #4]
 917              		str	r3, [r7, #12]
 918 0000 80B4     		.loc 1 1130 0
 919              		b	.L88
 920 0002 85B0     	.L89:
 921              		.loc 1 1132 0
 922 0004 00AF     		ldr	r3, [r7, #4]
 923              		add	r3, r3, #1
 924              		str	r3, [r7, #4]
 925 0006 7860     	.L88:
ARM GAS  C:\Users\blinky\AppData\Local\Temp/ccwJbaaa.s 			page 37


 926 0008 0B46     		.loc 1 1130 0
 927 000a FB70     		ldr	r3, [r7, #12]
1124:./Generated_Source/PSoC5/CyLib.c ****     char * ss = (char *) s;
 928              	 #0]	@ zero_extendqisi2
 929 000c 7B68     		cmp	r3, #0
 930 000e FB60     		beq	.L90
1125:./Generated_Source/PSoC5/CyLib.c **** 
1126:./Generated_Source/PSoC5/CyLib.c **** 
1127:./Generated_Source/PSoC5/CyLib.c ****     CYASSERT((s));
1128:./Generated_Source/PSoC5/CyLib.c ****     CYASSERT((c));
1129:./Generated_Source/PSoC5/CyLib.c **** 
1130:./Generated_Source/PSoC5/CyLib.c ****     while(*ss != 0 && *ss != (char) c)
 931              	r	r3, [r7, #12]
 932 0010 03E0     		ldrb	r2, [r3, #0]	@ zero_extendqisi2
 933              		ldrb	r3, [r7, #3]	@ zero_extendqisi2
1131:./Generated_Source/PSoC5/CyLib.c ****     {
1132:./Generated_Source/PSoC5/CyLib.c ****         s++;
 934              	p	r3, r2
 935 0012 7B68     		bne	.L89
 936 0014 03F10103 	.L90:
 937 0018 7B60     		.loc 1 1135 0
 938              		ldr	r3, [r7, #12]
 939              		ldrb	r2, [r3, #0]	@ zero_extendqisi2
 940 001a FB68     		ldrb	r3, [r7, #3]	@ zero_extendqisi2
 941 001c 1B78     		cmp	r3, r2
 942 001e 002B     		beq	.L92
 943 0020 04D0     		.loc 1 1137 0
 944 0022 FB68     		mov	r3, #0
 945 0024 1A78     		str	r3, [r7, #12]
 946 0026 FB78     	.L92:
 947 0028 9342     		.loc 1 1140 0
 948 002a F2D1     		ldr	r3, [r7, #12]
 949              		.loc 1 1141 0
1133:./Generated_Source/PSoC5/CyLib.c ****     }
1134:./Generated_Source/PSoC5/CyLib.c **** 
1135:./Generated_Source/PSoC5/CyLib.c ****     if(*ss != c)
 950              		r7, r7, #20
 951 002c FB68     		mov	sp, r7
 952 002e 1A78     		pop	{r7}
 953 0030 FB78     		bx	lr
 954 0032 9342     	.LFE14:
 955 0034 02D0     		.size	cystrchr, .-cystrchr
1136:./Generated_Source/PSoC5/CyLib.c ****     {
1137:./Generated_Source/PSoC5/CyLib.c ****         ss = 0;
 956              	ion	.text.cystrrchr,"ax",%progbits
 957 0036 4FF00003 		.align	2
 958 003a FB60     		.global	cystrrchr
 959              		.thumb
1138:./Generated_Source/PSoC5/CyLib.c ****     }
1139:./Generated_Source/PSoC5/CyLib.c **** 
1140:./Generated_Source/PSoC5/CyLib.c ****     return ss;
 960              	umb_func
 961 003c FB68     		.type	cystrrchr, %function
1141:./Generated_Source/PSoC5/CyLib.c **** }
 962              	strrchr:
 963 003e 1846     	.LFB15:
 964 0040 07F11407 		.loc 1 1164 0
ARM GAS  C:\Users\blinky\AppData\Local\Temp/ccwJbaaa.s 			page 38


 965 0044 BD46     		@ args = 0, pretend = 0, frame = 16
 966 0046 80BC     		@ frame_needed = 1, uses_anonymous_args = 0
 967 0048 7047     		@ link register save eliminated.
 968              		push	{r7}
 969              	.LCFI39:
 970 004a C046     		sub	sp, sp, #20
 971              	.LCFI40:
 972              		add	r7, sp, #0
 973              	.LCFI41:
 974              		@ lr needed for prologue
 975              		str	r0, [r7, #4]
 976              		mov	r3, r1
 977              		strb	r3, [r7, #3]
1142:./Generated_Source/PSoC5/CyLib.c **** 
1143:./Generated_Source/PSoC5/CyLib.c **** /*******************************************************************************
1144:./Generated_Source/PSoC5/CyLib.c **** * Function Name: cystrrchr
1145:./Generated_Source/PSoC5/CyLib.c **** ********************************************************************************
1146:./Generated_Source/PSoC5/CyLib.c **** * Summary:
1147:./Generated_Source/PSoC5/CyLib.c **** *   
1148:./Generated_Source/PSoC5/CyLib.c **** *
1149:./Generated_Source/PSoC5/CyLib.c **** *
1150:./Generated_Source/PSoC5/CyLib.c **** * Parameters:
1151:./Generated_Source/PSoC5/CyLib.c **** *   
1152:./Generated_Source/PSoC5/CyLib.c **** *
1153:./Generated_Source/PSoC5/CyLib.c **** *
1154:./Generated_Source/PSoC5/CyLib.c **** * Return:
1155:./Generated_Source/PSoC5/CyLib.c **** *   
1156:./Generated_Source/PSoC5/CyLib.c **** *   
1157:./Generated_Source/PSoC5/CyLib.c **** *
1158:./Generated_Source/PSoC5/CyLib.c **** * Theory:
1159:./Generated_Source/PSoC5/CyLib.c **** *   
1160:./Generated_Source/PSoC5/CyLib.c **** *
1161:./Generated_Source/PSoC5/CyLib.c **** *
1162:./Generated_Source/PSoC5/CyLib.c **** *******************************************************************************/
1163:./Generated_Source/PSoC5/CyLib.c **** char * cystrrchr(const char * s, char c)
1164:./Generated_Source/PSoC5/CyLib.c **** {
 978              	mov	r3, #0
 979              		str	r3, [r7, #12]
 980              		b	.L96
 981              	.L97:
 982 0000 80B4     		.loc 1 1173 0
 983              		ldr	r3, [r7, #4]
 984 0002 85B0     		ldrb	r2, [r3, #0]	@ zero_extendqisi2
 985              		ldrb	r3, [r7, #3]	@ zero_extendqisi2
 986 0004 00AF     		cmp	r3, r2
 987              		bne	.L98
 988              		.loc 1 1175 0
 989 0006 7860     		ldr	r3, [r7, #4]
 990 0008 0B46     		str	r3, [r7, #12]
 991 000a FB70     	.L98:
1165:./Generated_Source/PSoC5/CyLib.c ****     char * ss;
1166:./Generated_Source/PSoC5/CyLib.c **** 
1167:./Generated_Source/PSoC5/CyLib.c **** 
1168:./Generated_Source/PSoC5/CyLib.c ****     CYASSERT((s));
1169:./Generated_Source/PSoC5/CyLib.c ****     CYASSERT((c));
1170:./Generated_Source/PSoC5/CyLib.c **** 
1171:./Generated_Source/PSoC5/CyLib.c ****     for(ss = 0; *s != 0; s++)
ARM GAS  C:\Users\blinky\AppData\Local\Temp/ccwJbaaa.s 			page 39


 992              	
 993 000c 4FF00003 		ldr	r3, [r7, #4]
 994 0010 FB60     		add	r3, r3, #1
 995 0012 0AE0     		str	r3, [r7, #4]
 996              	.L96:
1172:./Generated_Source/PSoC5/CyLib.c ****     {
1173:./Generated_Source/PSoC5/CyLib.c ****         if(*s == (char) c)
 997              		r3, [r7, #4]
 998 0014 7B68     		ldrb	r3, [r3, #0]	@ zero_extendqisi2
 999 0016 1A78     		cmp	r3, #0
 1000 0018 FB78     		bne	.L97
 1001 001a 9342     		.loc 1 1180 0
 1002 001c 01D1     		ldr	r3, [r7, #12]
1174:./Generated_Source/PSoC5/CyLib.c ****         {
1175:./Generated_Source/PSoC5/CyLib.c ****             ss = (char *) s;
 1003              	1 1181 0
 1004 001e 7B68     		mov	r0, r3
 1005 0020 FB60     		add	r7, r7, #20
 1006              		mov	sp, r7
 1007              		pop	{r7}
 1008 0022 7B68     		bx	lr
 1009 0024 03F10103 	.LFE15:
 1010 0028 7B60     		.size	cystrrchr, .-cystrrchr
 1011              		.section	.text.cystrstr,"ax",%progbits
 1012 002a 7B68     		.align	2
 1013 002c 1B78     		.global	cystrstr
 1014 002e 002B     		.thumb
 1015 0030 F0D1     		.thumb_func
1176:./Generated_Source/PSoC5/CyLib.c ****         }
1177:./Generated_Source/PSoC5/CyLib.c ****         
1178:./Generated_Source/PSoC5/CyLib.c ****     }
1179:./Generated_Source/PSoC5/CyLib.c **** 
1180:./Generated_Source/PSoC5/CyLib.c ****     return ss;
 1016              	tr, %function
 1017 0032 FB68     	cystrstr:
1181:./Generated_Source/PSoC5/CyLib.c **** }
 1018              	FB16:
 1019 0034 1846     		.loc 1 1204 0
 1020 0036 07F11407 		@ args = 0, pretend = 0, frame = 16
 1021 003a BD46     		@ frame_needed = 1, uses_anonymous_args = 0
 1022 003c 80BC     		push	{r7, lr}
 1023 003e 7047     	.LCFI42:
 1024              		sub	sp, sp, #16
 1025              	.LCFI43:
 1026              		add	r7, sp, #0
 1027              	.LCFI44:
 1028              		str	r0, [r7, #4]
 1029              		str	r1, [r7, #0]
 1030              		.loc 1 1205 0
 1031              		mov	r3, #0
 1032              		str	r3, [r7, #8]
 1033              		.loc 1 1206 0
1182:./Generated_Source/PSoC5/CyLib.c **** 
1183:./Generated_Source/PSoC5/CyLib.c **** /*******************************************************************************
1184:./Generated_Source/PSoC5/CyLib.c **** * Function Name: cystrstr
1185:./Generated_Source/PSoC5/CyLib.c **** ********************************************************************************
1186:./Generated_Source/PSoC5/CyLib.c **** * Summary:
ARM GAS  C:\Users\blinky\AppData\Local\Temp/ccwJbaaa.s 			page 40


1187:./Generated_Source/PSoC5/CyLib.c **** *   
1188:./Generated_Source/PSoC5/CyLib.c **** *
1189:./Generated_Source/PSoC5/CyLib.c **** *
1190:./Generated_Source/PSoC5/CyLib.c **** * Parameters:
1191:./Generated_Source/PSoC5/CyLib.c **** *   
1192:./Generated_Source/PSoC5/CyLib.c **** *
1193:./Generated_Source/PSoC5/CyLib.c **** *
1194:./Generated_Source/PSoC5/CyLib.c **** * Return:
1195:./Generated_Source/PSoC5/CyLib.c **** *   
1196:./Generated_Source/PSoC5/CyLib.c **** *   
1197:./Generated_Source/PSoC5/CyLib.c **** *
1198:./Generated_Source/PSoC5/CyLib.c **** * Theory:
1199:./Generated_Source/PSoC5/CyLib.c **** *   
1200:./Generated_Source/PSoC5/CyLib.c **** *
1201:./Generated_Source/PSoC5/CyLib.c **** *
1202:./Generated_Source/PSoC5/CyLib.c **** *******************************************************************************/
1203:./Generated_Source/PSoC5/CyLib.c **** char * cystrstr(const char * s1, const char * s2)
1204:./Generated_Source/PSoC5/CyLib.c **** {
 1034              	]
 1035              		bl	cystrlen
 1036              		mov	r3, r0
 1037 0000 80B5     		str	r3, [r7, #12]
 1038              		.loc 1 1212 0
 1039 0002 84B0     		b	.L103
 1040              	.L104:
 1041 0004 00AF     		.loc 1 1214 0
 1042              		ldr	r0, [r7, #4]
 1043 0006 7860     		ldr	r1, [r7, #0]
 1044 0008 3960     		ldr	r2, [r7, #12]
1205:./Generated_Source/PSoC5/CyLib.c ****     char * ss = 0;
 1045              	p
 1046 000a 4FF00003 		mov	r3, r0
 1047 000e BB60     		cmp	r3, #0
1206:./Generated_Source/PSoC5/CyLib.c ****     uint32 n = cystrlen(s2);
 1048              	e	.L105
 1049 0010 3868     		.loc 1 1216 0
 1050 0012 FFF7FEFF 		ldr	r3, [r7, #4]
 1051 0016 0346     		str	r3, [r7, #8]
 1052 0018 FB60     		.loc 1 1217 0
1207:./Generated_Source/PSoC5/CyLib.c **** 
1208:./Generated_Source/PSoC5/CyLib.c **** 
1209:./Generated_Source/PSoC5/CyLib.c ****     CYASSERT((s1));
1210:./Generated_Source/PSoC5/CyLib.c ****     CYASSERT((s2));
1211:./Generated_Source/PSoC5/CyLib.c **** 
1212:./Generated_Source/PSoC5/CyLib.c ****     while(*s1)
 1053              	107
 1054 001a 0EE0     	.L105:
 1055              		.loc 1 1220 0
1213:./Generated_Source/PSoC5/CyLib.c ****     {
1214:./Generated_Source/PSoC5/CyLib.c ****         if(cymemcmp(s1, s2, n) == 0)
 1056              	r	r3, [r7, #4]
 1057 001c 7868     		add	r3, r3, #1
 1058 001e 3968     		str	r3, [r7, #4]
 1059 0020 FA68     	.L103:
 1060 0022 FFF7FEFF 		.loc 1 1212 0
 1061 0026 0346     		ldr	r3, [r7, #4]
 1062 0028 002B     		ldrb	r3, [r3, #0]	@ zero_extendqisi2
ARM GAS  C:\Users\blinky\AppData\Local\Temp/ccwJbaaa.s 			page 41


 1063 002a 02D1     		cmp	r3, #0
1215:./Generated_Source/PSoC5/CyLib.c ****         {
1216:./Generated_Source/PSoC5/CyLib.c ****             ss = (char *) s1;
 1064              	04
 1065 002c 7B68     	.L107:
 1066 002e BB60     		.loc 1 1223 0
1217:./Generated_Source/PSoC5/CyLib.c ****             break;
 1067              	r	r3, [r7, #8]
 1068 0030 07E0     		.loc 1 1224 0
 1069              		mov	r0, r3
1218:./Generated_Source/PSoC5/CyLib.c ****         }
1219:./Generated_Source/PSoC5/CyLib.c **** 
1220:./Generated_Source/PSoC5/CyLib.c ****         s1++;
 1070              	d	r7, r7, #16
 1071 0032 7B68     		mov	sp, r7
 1072 0034 03F10103 		pop	{r7, pc}
 1073 0038 7B60     	.LFE16:
 1074              		.size	cystrstr, .-cystrstr
 1075              		.section	.text.cystrtol,"ax",%progbits
 1076 003a 7B68     		.align	2
 1077 003c 1B78     		.global	cystrtol
 1078 003e 002B     		.thumb
 1079 0040 ECD1     		.thumb_func
 1080              		.type	cystrtol, %function
1221:./Generated_Source/PSoC5/CyLib.c ****     }
1222:./Generated_Source/PSoC5/CyLib.c **** 
1223:./Generated_Source/PSoC5/CyLib.c ****     return ss;
 1081              	LFB17:
 1082 0042 BB68     		.loc 1 1267 0
1224:./Generated_Source/PSoC5/CyLib.c **** }
 1083              	 args = 0, pretend = 0, frame = 56
 1084 0044 1846     		@ frame_needed = 1, uses_anonymous_args = 0
 1085 0046 07F11007 		@ link register save eliminated.
 1086 004a BD46     		push	{r7}
 1087 004c 80BD     	.LCFI45:
 1088              		sub	sp, sp, #60
 1089              	.LCFI46:
 1090 004e C046     		add	r7, sp, #0
 1091              	.LCFI47:
 1092              		@ lr needed for prologue
 1093              		str	r0, [r7, #20]
 1094              		str	r1, [r7, #16]
 1095              		mov	r3, r2
 1096              		strb	r3, [r7, #15]
 1097              		.loc 1 1278 0
1225:./Generated_Source/PSoC5/CyLib.c **** 
1226:./Generated_Source/PSoC5/CyLib.c **** 
1227:./Generated_Source/PSoC5/CyLib.c **** #if !defined(ULONG_MAX)
1228:./Generated_Source/PSoC5/CyLib.c **** 
1229:./Generated_Source/PSoC5/CyLib.c **** #define ULONG_MAX           0xFFFFFFFFu  /* maximum unsigned long value */
1230:./Generated_Source/PSoC5/CyLib.c **** 
1231:./Generated_Source/PSoC5/CyLib.c **** #endif
1232:./Generated_Source/PSoC5/CyLib.c **** 
1233:./Generated_Source/PSoC5/CyLib.c **** /* This way we do not depend on the div instruction. */
1234:./Generated_Source/PSoC5/CyLib.c **** #define MAX_B16_VAL         ((uint32) ULONG_MAX / (uint32) 16)
1235:./Generated_Source/PSoC5/CyLib.c **** #define MAX_B16_DIGIT       ((uint32) ULONG_MAX % (uint32) 16)
1236:./Generated_Source/PSoC5/CyLib.c **** #define MAX_B10_VAL         ((uint32) ULONG_MAX / (uint32) 10)
ARM GAS  C:\Users\blinky\AppData\Local\Temp/ccwJbaaa.s 			page 42


1237:./Generated_Source/PSoC5/CyLib.c **** #define MAX_B10_DIGIT       ((uint32) ULONG_MAX % (uint32) 10)
1238:./Generated_Source/PSoC5/CyLib.c **** #define MAX_B8_VAL          ((uint32) ULONG_MAX / (uint32) 8)
1239:./Generated_Source/PSoC5/CyLib.c **** #define MAX_B8_DIGIT        ((uint32) ULONG_MAX % (uint32) 8)
1240:./Generated_Source/PSoC5/CyLib.c **** 
1241:./Generated_Source/PSoC5/CyLib.c **** /*******************************************************************************
1242:./Generated_Source/PSoC5/CyLib.c **** * Function Name: cystrstr
1243:./Generated_Source/PSoC5/CyLib.c **** ********************************************************************************
1244:./Generated_Source/PSoC5/CyLib.c **** * Summary:
1245:./Generated_Source/PSoC5/CyLib.c **** *   Reads a string and generates an integer.  
1246:./Generated_Source/PSoC5/CyLib.c **** *
1247:./Generated_Source/PSoC5/CyLib.c **** *
1248:./Generated_Source/PSoC5/CyLib.c **** * Parameters:
1249:./Generated_Source/PSoC5/CyLib.c **** *   s, String to convert to a in32 value.   
1250:./Generated_Source/PSoC5/CyLib.c **** *
1251:./Generated_Source/PSoC5/CyLib.c **** *   e, Pointer to a pointer to store the first invalid character. Can be
1252:./Generated_Source/PSoC5/CyLib.c **** *      NULL if not needed.
1253:./Generated_Source/PSoC5/CyLib.c **** *
1254:./Generated_Source/PSoC5/CyLib.c **** *   b, Base of the string. We only support 16, 10 and 8.
1255:./Generated_Source/PSoC5/CyLib.c **** *
1256:./Generated_Source/PSoC5/CyLib.c **** *
1257:./Generated_Source/PSoC5/CyLib.c **** * Return:
1258:./Generated_Source/PSoC5/CyLib.c **** *   
1259:./Generated_Source/PSoC5/CyLib.c **** *   
1260:./Generated_Source/PSoC5/CyLib.c **** *
1261:./Generated_Source/PSoC5/CyLib.c **** * Theory:
1262:./Generated_Source/PSoC5/CyLib.c **** *   
1263:./Generated_Source/PSoC5/CyLib.c **** *
1264:./Generated_Source/PSoC5/CyLib.c **** *
1265:./Generated_Source/PSoC5/CyLib.c **** *******************************************************************************/
1266:./Generated_Source/PSoC5/CyLib.c **** int32 cystrtol(const char * s, char * * e, int8 b)
1267:./Generated_Source/PSoC5/CyLib.c **** {
 1098              	20]
 1099              		str	r3, [r7, #52]
 1100              		.loc 1 1279 0
 1101              		mov	r3, #0
 1102 0000 80B4     		str	r3, [r7, #44]
 1103              		.loc 1 1280 0
 1104 0002 8FB0     		mov	r3, #0
 1105              		str	r3, [r7, #32]
 1106 0004 00AF     		.loc 1 1281 0
 1107              		mov	r3, #0
 1108              		str	r3, [r7, #40]
 1109 0006 7861     		.loc 1 1282 0
 1110 0008 3961     		mov	r3, #0
 1111 000a 1346     		str	r3, [r7, #48]
 1112 000c FB73     		.loc 1 1283 0
1268:./Generated_Source/PSoC5/CyLib.c ****     char digit;
1269:./Generated_Source/PSoC5/CyLib.c ****     int32 some;
1270:./Generated_Source/PSoC5/CyLib.c ****     int32 cutlim;
1271:./Generated_Source/PSoC5/CyLib.c ****     int32 negitive;
1272:./Generated_Source/PSoC5/CyLib.c ****     uint32 value;
1273:./Generated_Source/PSoC5/CyLib.c ****     uint32 cutoff;
1274:./Generated_Source/PSoC5/CyLib.c ****     const char * ss;
1275:./Generated_Source/PSoC5/CyLib.c **** 
1276:./Generated_Source/PSoC5/CyLib.c **** 
1277:./Generated_Source/PSoC5/CyLib.c ****     /* Initialize. */
1278:./Generated_Source/PSoC5/CyLib.c ****     ss = s;
ARM GAS  C:\Users\blinky\AppData\Local\Temp/ccwJbaaa.s 			page 43


 1113              	r	r3, [r7, #36]
 1114 000e 7B69     	.L110:
 1115 0010 7B63     		.loc 1 1286 0
1279:./Generated_Source/PSoC5/CyLib.c ****     value = 0;
 1116              	r	r3, [r7, #52]
 1117 0012 4FF00003 		ldrb	r3, [r3, #0]	@ zero_extendqisi2
 1118 0016 FB62     		mov	r2, r3
1280:./Generated_Source/PSoC5/CyLib.c ****     some = 0;
 1119              	r	r3, .L153
 1120 0018 4FF00003 		ldr	r3, [r3, #0]
 1121 001c 3B62     		add	r3, r2, r3
1281:./Generated_Source/PSoC5/CyLib.c ****     negitive = 0;
 1122              	rb	r3, [r3, #0]	@ zero_extendqisi2
 1123 001e 4FF00003 		and	r3, r3, #8
 1124 0022 BB62     		cmp	r3, #0
1282:./Generated_Source/PSoC5/CyLib.c ****     cutoff = 0;
 1125              	e	.L110
 1126 0024 4FF00003 		.loc 1 1288 0
 1127 0028 3B63     		ldr	r3, [r7, #52]
1283:./Generated_Source/PSoC5/CyLib.c ****     cutlim = 0;
 1128              	d	r3, r3, #1
 1129 002a 4FF00003 		str	r3, [r7, #52]
 1130 002e 7B62     		.loc 1 1292 0
 1131              		ldr	r3, [r7, #52]
1284:./Generated_Source/PSoC5/CyLib.c **** 
1285:./Generated_Source/PSoC5/CyLib.c ****     /* Pass spaces. */
1286:./Generated_Source/PSoC5/CyLib.c ****     while(isspace(*ss));
 1132              	b	r3, [r3, #0]	@ zero_extendqisi2
 1133 0030 7B6B     		cmp	r3, #45
 1134 0032 1B78     		bne	.L112
 1135 0034 1A46     		.loc 1 1294 0
 1136 0036 724B     		ldr	r3, [r7, #52]
 1137 0038 1B68     		add	r3, r3, #1
 1138 003a 1344     		str	r3, [r7, #52]
 1139 003c 1B78     		.loc 1 1295 0
 1140 003e 03F00803 		mov	r3, #1
 1141 0042 002B     		str	r3, [r7, #40]
 1142 0044 F4D1     		b	.L114
1287:./Generated_Source/PSoC5/CyLib.c ****     {
1288:./Generated_Source/PSoC5/CyLib.c ****         ss++;
 1143              	c 1 1297 0
 1144 0046 7B6B     		ldr	r3, [r7, #52]
 1145 0048 03F10103 		ldrb	r3, [r3, #0]	@ zero_extendqisi2
 1146 004c 7B63     		cmp	r3, #43
1289:./Generated_Source/PSoC5/CyLib.c ****     } 
1290:./Generated_Source/PSoC5/CyLib.c **** 
1291:./Generated_Source/PSoC5/CyLib.c ****     /* Look for a sign. */
1292:./Generated_Source/PSoC5/CyLib.c ****     if(*ss == '-')
 1147              		.L114
 1148 004e 7B6B     		.loc 1 1299 0
 1149 0050 1B78     		ldr	r3, [r7, #52]
 1150 0052 2D2B     		add	r3, r3, #1
 1151 0054 07D1     		str	r3, [r7, #52]
1293:./Generated_Source/PSoC5/CyLib.c ****     {
1294:./Generated_Source/PSoC5/CyLib.c ****         ss++;
 1152              	 1 1300 0
 1153 0056 7B6B     		mov	r3, #0
ARM GAS  C:\Users\blinky\AppData\Local\Temp/ccwJbaaa.s 			page 44


 1154 0058 03F10103 		str	r3, [r7, #40]
 1155 005c 7B63     	.L114:
1295:./Generated_Source/PSoC5/CyLib.c ****         negitive = 1;
 1156              	c 1 1304 0
 1157 005e 4FF00103 		ldrsb	r3, [r7, #15]
 1158 0062 BB62     		cmp	r3, #0
 1159 0064 0AE0     		beq	.L116
 1160              		ldrsb	r3, [r7, #15]
1296:./Generated_Source/PSoC5/CyLib.c ****     }
1297:./Generated_Source/PSoC5/CyLib.c ****     else if(*ss == '+')
 1161              	r3, #16
 1162 0066 7B6B     		bne	.L118
 1163 0068 1B78     	.L116:
 1164 006a 2B2B     		ldr	r3, [r7, #52]
 1165 006c 06D1     		ldrb	r3, [r3, #0]	@ zero_extendqisi2
1298:./Generated_Source/PSoC5/CyLib.c ****     {
1299:./Generated_Source/PSoC5/CyLib.c ****         ss++;
 1166              	r3, #48
 1167 006e 7B6B     		bne	.L118
 1168 0070 03F10103 		ldr	r3, [r7, #52]
 1169 0074 7B63     		add	r3, r3, #1
1300:./Generated_Source/PSoC5/CyLib.c ****         negitive = 0;
 1170              	b	r3, [r3, #0]	@ zero_extendqisi2
 1171 0076 4FF00003 		orr	r3, r3, #32
 1172 007a BB62     		uxtb	r3, r3
 1173              		cmp	r3, #120
1301:./Generated_Source/PSoC5/CyLib.c ****     }
1302:./Generated_Source/PSoC5/CyLib.c ****     
1303:./Generated_Source/PSoC5/CyLib.c ****     /* Figure out the base. */
1304:./Generated_Source/PSoC5/CyLib.c ****     if((b == 0 || b == 16) && ss[0] == '0' && ( ss[1] | 0x20) == 'x')
 1174              		.L118
 1175 007c 97F90F30 		.loc 1 1306 0
 1176 0080 002B     		ldr	r3, [r7, #52]
 1177 0082 03D0     		add	r3, r3, #2
 1178 0084 97F90F30 		str	r3, [r7, #52]
 1179 0088 102B     		.loc 1 1307 0
 1180 008a 1AD1     		mov	r3, #16
 1181              		strb	r3, [r7, #15]
 1182 008c 7B6B     		.loc 1 1309 0
 1183 008e 1B78     		mvn	r3, #-268435456
 1184 0090 302B     		str	r3, [r7, #48]
 1185 0092 16D1     		.loc 1 1310 0
 1186 0094 7B6B     		mov	r3, #15
 1187 0096 03F10103 		str	r3, [r7, #36]
 1188 009a 1B78     		.loc 1 1304 0
 1189 009c 43F02003 		b	.L121
 1190 00a0 DBB2     	.L118:
 1191 00a2 782B     		.loc 1 1312 0
 1192 00a4 0DD1     		ldrsb	r3, [r7, #15]
1305:./Generated_Source/PSoC5/CyLib.c ****     {
1306:./Generated_Source/PSoC5/CyLib.c ****         ss += 2;
 1193              	122
 1194 00a6 7B6B     		.loc 1 1314 0
 1195 00a8 03F10203 		ldr	r3, [r7, #52]
 1196 00ac 7B63     		ldrb	r3, [r3, #0]	@ zero_extendqisi2
1307:./Generated_Source/PSoC5/CyLib.c ****         b = 16;
 1197              		r3, #48
ARM GAS  C:\Users\blinky\AppData\Local\Temp/ccwJbaaa.s 			page 45


 1198 00ae 4FF01003 		bne	.L124
 1199 00b2 FB73     		mov	r2, #8
1308:./Generated_Source/PSoC5/CyLib.c **** 
1309:./Generated_Source/PSoC5/CyLib.c ****         cutoff = MAX_B16_VAL;
 1200              	r	r2, [r7, #4]
 1201 00b4 6FF07043 		b	.L126
 1202 00b8 3B63     	.L124:
1310:./Generated_Source/PSoC5/CyLib.c ****         cutlim = MAX_B16_DIGIT;
 1203              	v	r3, #10
 1204 00ba 4FF00F03 		str	r3, [r7, #4]
 1205 00be 7B62     	.L126:
 1206              		ldr	r2, [r7, #4]
 1207 00c0 2CE0     		mov	r3, r2
 1208              		strb	r3, [r7, #15]
1311:./Generated_Source/PSoC5/CyLib.c ****     }
1312:./Generated_Source/PSoC5/CyLib.c ****     else if(b == 0)
 1209              	1 1315 0
 1210 00c2 97F90F30 		ldrsb	r3, [r7, #15]
 1211 00c6 002B     		cmp	r3, #8
 1212 00c8 1ED1     		bne	.L127
1313:./Generated_Source/PSoC5/CyLib.c ****     {
1314:./Generated_Source/PSoC5/CyLib.c ****         b = (*ss == '0') ? 8 : 10;
 1213              	c 1 1317 0
 1214 00ca 7B6B     		mvn	r3, #-536870912
 1215 00cc 1B78     		str	r3, [r7, #48]
 1216 00ce 302B     		.loc 1 1318 0
 1217 00d0 03D1     		mov	r3, #7
 1218 00d2 4FF00802 		str	r3, [r7, #36]
 1219 00d6 7A60     		b	.L121
 1220 00d8 02E0     	.L127:
 1221              		.loc 1 1322 0
 1222 00da 4FF00A03 		ldr	r3, .L153+4
 1223 00de 7B60     		str	r3, [r7, #48]
 1224              		.loc 1 1323 0
 1225 00e0 7A68     		mov	r3, #5
 1226 00e2 1346     		str	r3, [r7, #36]
 1227 00e4 FB73     		b	.L121
1315:./Generated_Source/PSoC5/CyLib.c ****         if(b == 8)
 1228              	1326 0
 1229 00e6 97F90F30 		ldrsb	r3, [r7, #15]
 1230 00ea 082B     		cmp	r3, #8
 1231 00ec 06D1     		bne	.L121
1316:./Generated_Source/PSoC5/CyLib.c ****         {
1317:./Generated_Source/PSoC5/CyLib.c ****             cutoff = MAX_B8_VAL;
 1232              	c 1 1328 0
 1233 00ee 6FF06043 		mvn	r3, #-536870912
 1234 00f2 3B63     		str	r3, [r7, #48]
1318:./Generated_Source/PSoC5/CyLib.c ****             cutlim = MAX_B8_DIGIT;
 1235              	oc 1 1329 0
 1236 00f4 4FF00703 		mov	r3, #7
 1237 00f8 7B62     		str	r3, [r7, #36]
 1238 00fa 0FE0     	.L121:
 1239              		.loc 1 1339 0
1319:./Generated_Source/PSoC5/CyLib.c ****         }
1320:./Generated_Source/PSoC5/CyLib.c ****         else
1321:./Generated_Source/PSoC5/CyLib.c ****         {
1322:./Generated_Source/PSoC5/CyLib.c ****             cutoff = MAX_B10_VAL;
ARM GAS  C:\Users\blinky\AppData\Local\Temp/ccwJbaaa.s 			page 46


 1240              	r3, [r7, #52]
 1241 00fc 414B     		ldrb	r3, [r3, #0]
 1242 00fe 3B63     		strb	r3, [r7, #31]
1323:./Generated_Source/PSoC5/CyLib.c ****             cutlim = MAX_B10_DIGIT;
 1243              	oc 1 1341 0
 1244 0100 4FF00503 		ldrb	r3, [r7, #31]	@ zero_extendqisi2
 1245 0104 7B62     		mov	r2, r3
 1246 0106 09E0     		ldr	r3, .L153
 1247              		ldr	r3, [r3, #0]
1324:./Generated_Source/PSoC5/CyLib.c ****         }
1325:./Generated_Source/PSoC5/CyLib.c ****     }
1326:./Generated_Source/PSoC5/CyLib.c ****     else if(b == 8)
 1248              	r3, r2, r3
 1249 0108 97F90F30 		ldrb	r3, [r3, #0]	@ zero_extendqisi2
 1250 010c 082B     		and	r3, r3, #4
 1251 010e 05D1     		cmp	r3, #0
1327:./Generated_Source/PSoC5/CyLib.c ****     {
1328:./Generated_Source/PSoC5/CyLib.c ****         cutoff = MAX_B8_VAL;
 1252              		.L131
 1253 0110 6FF06043 		.loc 1 1343 0
 1254 0114 3B63     		ldrb	r3, [r7, #31]
1329:./Generated_Source/PSoC5/CyLib.c ****         cutlim = MAX_B8_DIGIT;
 1255              	b	r3, r3, #48
 1256 0116 4FF00703 		strb	r3, [r7, #31]
 1257 011a 7B62     		b	.L133
 1258              	.L131:
1330:./Generated_Source/PSoC5/CyLib.c ****     }
1331:./Generated_Source/PSoC5/CyLib.c ****     else
1332:./Generated_Source/PSoC5/CyLib.c ****     {
1333:./Generated_Source/PSoC5/CyLib.c ****         CYBREAK((0));
1334:./Generated_Source/PSoC5/CyLib.c ****     }
1335:./Generated_Source/PSoC5/CyLib.c **** 
1336:./Generated_Source/PSoC5/CyLib.c ****     /* Calculate the value. */
1337:./Generated_Source/PSoC5/CyLib.c ****     for(;; ss++)
1338:./Generated_Source/PSoC5/CyLib.c ****     {
1339:./Generated_Source/PSoC5/CyLib.c ****         digit = *ss;
 1259              	c 1 1345 0
 1260 011c 7B6B     		ldrb	r3, [r7, #31]	@ zero_extendqisi2
 1261 011e 1B78     		mov	r2, r3
 1262 0120 FB77     		ldr	r3, .L153
1340:./Generated_Source/PSoC5/CyLib.c ****         
1341:./Generated_Source/PSoC5/CyLib.c ****         if(isdigit(digit))
 1263              		r3, [r3, #0]
 1264 0122 FB7F     		add	r3, r2, r3
 1265 0124 1A46     		ldrb	r3, [r3, #0]	@ zero_extendqisi2
 1266 0126 364B     		and	r3, r3, #3
 1267 0128 1B68     		cmp	r3, #0
 1268 012a 1344     		beq	.L134
 1269 012c 1B78     		.loc 1 1347 0
 1270 012e 03F00403 		ldrb	r3, [r7, #31]
 1271 0132 002B     		orr	r3, r3, #32
 1272 0134 04D0     		uxtb	r3, r3
1342:./Generated_Source/PSoC5/CyLib.c ****         {
1343:./Generated_Source/PSoC5/CyLib.c ****             digit -= '0';
 1273              	3, #55
 1274 0136 FB7F     		strb	r3, [r7, #31]
 1275 0138 A3F13003 	.L133:
ARM GAS  C:\Users\blinky\AppData\Local\Temp/ccwJbaaa.s 			page 47


 1276 013c FB77     		.loc 1 1354 0
 1277 013e 10E0     		ldrb	r2, [r7, #31]	@ zero_extendqisi2
 1278              		ldrsb	r3, [r7, #15]
1344:./Generated_Source/PSoC5/CyLib.c ****         }
1345:./Generated_Source/PSoC5/CyLib.c ****         else if(isalpha(digit))
 1279              	2, r3
 1280 0140 FB7F     		bge	.L134
 1281 0142 1A46     		.loc 1 1359 0
 1282 0144 2E4B     		ldr	r3, [r7, #32]
 1283 0146 1B68     		cmp	r3, #0
 1284 0148 1344     		blt	.L137
 1285 014a 1B78     		ldr	r2, [r7, #44]
 1286 014c 03F00303 		ldr	r3, [r7, #48]
 1287 0150 002B     		cmp	r2, r3
 1288 0152 30D0     		bhi	.L137
1346:./Generated_Source/PSoC5/CyLib.c ****         {
1347:./Generated_Source/PSoC5/CyLib.c ****             digit = (digit | 0x20) - 'A' + 10;
 1289              	r7, #44]
 1290 0154 FB7F     		ldr	r3, [r7, #48]
 1291 0156 43F02003 		cmp	r2, r3
 1292 015a DBB2     		bne	.L140
 1293 015c A3F13703 		ldrb	r2, [r7, #31]	@ zero_extendqisi2
 1294 0160 FB77     		ldr	r3, [r7, #36]
 1295              		cmp	r2, r3
1348:./Generated_Source/PSoC5/CyLib.c ****         }    
1349:./Generated_Source/PSoC5/CyLib.c ****         else
1350:./Generated_Source/PSoC5/CyLib.c ****         {
1351:./Generated_Source/PSoC5/CyLib.c ****             break;
1352:./Generated_Source/PSoC5/CyLib.c ****         }
1353:./Generated_Source/PSoC5/CyLib.c ****         
1354:./Generated_Source/PSoC5/CyLib.c ****         if((int32) digit >= b)
 1296              	140
 1297 0162 FA7F     	.L137:
 1298 0164 97F90F30 		.loc 1 1361 0
 1299 0168 9A42     		mov	r3, #-1
 1300 016a 24DA     		str	r3, [r7, #32]
1355:./Generated_Source/PSoC5/CyLib.c ****         {
1356:./Generated_Source/PSoC5/CyLib.c ****             break;
1357:./Generated_Source/PSoC5/CyLib.c ****         }
1358:./Generated_Source/PSoC5/CyLib.c **** 
1359:./Generated_Source/PSoC5/CyLib.c ****         if(some < 0 || value > cutoff || (value == cutoff && (int32) digit > cutlim))
 1301              	 1 1359 0
 1302 016c 3B6A     		b	.L142
 1303 016e 002B     	.L140:
 1304 0170 0BDB     		.loc 1 1365 0
 1305 0172 FA6A     		mov	r3, #1
 1306 0174 3B6B     		str	r3, [r7, #32]
 1307 0176 9A42     		.loc 1 1366 0
 1308 0178 07D8     		ldrsb	r2, [r7, #15]
 1309 017a FA6A     		ldr	r3, [r7, #44]
 1310 017c 3B6B     		mul	r3, r2, r3
 1311 017e 9A42     		str	r3, [r7, #44]
 1312 0180 07D1     		.loc 1 1367 0
 1313 0182 FA7F     		ldrb	r2, [r7, #31]	@ zero_extendqisi2
 1314 0184 7B6A     		ldr	r3, [r7, #44]
 1315 0186 9A42     		add	r3, r3, r2
 1316 0188 03DD     		str	r3, [r7, #44]
ARM GAS  C:\Users\blinky\AppData\Local\Temp/ccwJbaaa.s 			page 48


 1317              	.L142:
1360:./Generated_Source/PSoC5/CyLib.c ****         {
1361:./Generated_Source/PSoC5/CyLib.c ****             some = -1;
 1318              	dr	r3, [r7, #52]
 1319 018a 4FF0FF33 		add	r3, r3, #1
 1320 018e 3B62     		str	r3, [r7, #52]
 1321              		.loc 1 1369 0
 1322 0190 0CE0     		b	.L121
 1323              	.L134:
1362:./Generated_Source/PSoC5/CyLib.c ****         }
1363:./Generated_Source/PSoC5/CyLib.c ****         else
1364:./Generated_Source/PSoC5/CyLib.c ****         {
1365:./Generated_Source/PSoC5/CyLib.c ****             some = 1;
 1324              	1 1372 0
 1325 0192 4FF00103 		ldr	r3, [r7, #32]
 1326 0196 3B62     		cmp	r3, #0
1366:./Generated_Source/PSoC5/CyLib.c ****             value *= b;
 1327              	e	.L143
 1328 0198 97F90F20 		.loc 1 1374 0
 1329 019c FB6A     		mov	r3, #-1
 1330 019e 02FB03F3 		str	r3, [r7, #44]
 1331 01a2 FB62     		b	.L145
1367:./Generated_Source/PSoC5/CyLib.c ****             value += digit;
 1332              	:
 1333 01a4 FA7F     		.loc 1 1376 0
 1334 01a6 FB6A     		ldr	r3, [r7, #40]
 1335 01a8 1344     		cmp	r3, #0
 1336 01aa FB62     		beq	.L145
 1337              		.loc 1 1378 0
 1338              		ldr	r3, [r7, #44]
 1339 01ac 7B6B     		rsb	r3, r3, #0
 1340 01ae 03F10103 		str	r3, [r7, #44]
 1341 01b2 7B63     	.L145:
1368:./Generated_Source/PSoC5/CyLib.c ****         }
1369:./Generated_Source/PSoC5/CyLib.c ****     }
 1342              	82 0
 1343 01b4 B2E7     		ldr	r3, [r7, #16]
 1344              		cmp	r3, #0
1370:./Generated_Source/PSoC5/CyLib.c **** 
1371:./Generated_Source/PSoC5/CyLib.c ****     /* Did we get more than an int32? */
1372:./Generated_Source/PSoC5/CyLib.c ****     if(some < 0)
 1345              	q	.L147
 1346 01b6 3B6A     		.loc 1 1384 0
 1347 01b8 002B     		ldr	r3, [r7, #32]
 1348 01ba 03DA     		cmp	r3, #0
1373:./Generated_Source/PSoC5/CyLib.c ****     {
1374:./Generated_Source/PSoC5/CyLib.c ****         value = ULONG_MAX;
 1349              		.L149
 1350 01bc 4FF0FF33 		ldr	r3, [r7, #52]
 1351 01c0 FB62     		add	r3, r3, #-1
 1352 01c2 06E0     		str	r3, [r7, #8]
 1353              		b	.L151
1375:./Generated_Source/PSoC5/CyLib.c ****     }
1376:./Generated_Source/PSoC5/CyLib.c ****     else if(negitive)
 1354              	:
 1355 01c4 BB6A     		ldr	r3, [r7, #20]
 1356 01c6 002B     		str	r3, [r7, #8]
ARM GAS  C:\Users\blinky\AppData\Local\Temp/ccwJbaaa.s 			page 49


 1357 01c8 03D0     	.L151:
1377:./Generated_Source/PSoC5/CyLib.c ****     {
1378:./Generated_Source/PSoC5/CyLib.c ****         value = -value;
 1358              		r3, [r7, #16]
 1359 01ca FB6A     		ldr	r2, [r7, #8]
 1360 01cc C3F10003 		str	r2, [r3, #0]
 1361 01d0 FB62     	.L147:
 1362              		.loc 1 1387 0
1379:./Generated_Source/PSoC5/CyLib.c ****     }
1380:./Generated_Source/PSoC5/CyLib.c **** 
1381:./Generated_Source/PSoC5/CyLib.c ****     /* If we were given a end pointer set it to the first invalid character. */
1382:./Generated_Source/PSoC5/CyLib.c ****     if(e != NULL)
 1363              	r3, [r7, #44]
 1364 01d2 3B69     		.loc 1 1388 0
 1365 01d4 002B     		mov	r0, r3
 1366 01d6 0CD0     		add	r7, r7, #60
1383:./Generated_Source/PSoC5/CyLib.c ****     {
1384:./Generated_Source/PSoC5/CyLib.c ****         *e = (char *) (some ? (char *) ss - 1 : s);
 1367              		sp, r7
 1368 01d8 3B6A     		pop	{r7}
 1369 01da 002B     		bx	lr
 1370 01dc 04D0     	.L154:
 1371 01de 7B6B     		.align	2
 1372 01e0 03F1FF33 	.L153:
 1373 01e4 BB60     		.word	__ctype_ptr
 1374 01e6 01E0     		.word	429496729
 1375              	.LFE17:
 1376 01e8 7B69     		.size	cystrtol, .-cystrtol
 1377 01ea BB60     		.section	.text.CyEnableDigitalArray,"ax",%progbits
 1378              		.align	2
 1379 01ec 3B69     		.global	CyEnableDigitalArray
 1380 01ee BA68     		.thumb
 1381 01f0 1A60     		.thumb_func
 1382              		.type	CyEnableDigitalArray, %function
1385:./Generated_Source/PSoC5/CyLib.c ****     }
1386:./Generated_Source/PSoC5/CyLib.c **** 
1387:./Generated_Source/PSoC5/CyLib.c ****     return value;
 1383              	rray:
 1384 01f2 FB6A     	.LFB18:
1388:./Generated_Source/PSoC5/CyLib.c **** }
 1385              	loc 1 1414 0
 1386 01f4 1846     		@ args = 0, pretend = 0, frame = 0
 1387 01f6 07F13C07 		@ frame_needed = 1, uses_anonymous_args = 0
 1388 01fa BD46     		@ link register save eliminated.
 1389 01fc 80BC     		push	{r7}
 1390 01fe 7047     	.LCFI48:
 1391              		add	r7, sp, #0
 1392              	.LCFI49:
 1393              		@ lr needed for prologue
 1394 0200 00000000 		.loc 1 1415 0
 1395 0204 99999919 		ldr	r2, .L157
 1396              		ldr	r3, .L157
 1397              		ldrb	r3, [r3, #0]
 1398              		uxtb	r3, r3
 1399              		orr	r3, r3, #64
 1400              		uxtb	r3, r3
 1401              		strb	r3, [r2, #0]
ARM GAS  C:\Users\blinky\AppData\Local\Temp/ccwJbaaa.s 			page 50


 1402              		.loc 1 1416 0
 1403              		ldr	r2, .L157+4
 1404              		ldr	r3, .L157+4
 1405              		ldrb	r3, [r3, #0]
1389:./Generated_Source/PSoC5/CyLib.c **** 
1390:./Generated_Source/PSoC5/CyLib.c **** 
1391:./Generated_Source/PSoC5/CyLib.c **** 
1392:./Generated_Source/PSoC5/CyLib.c **** 
1393:./Generated_Source/PSoC5/CyLib.c **** 
1394:./Generated_Source/PSoC5/CyLib.c **** 
1395:./Generated_Source/PSoC5/CyLib.c **** /* CYLIB_STRING */
1396:./Generated_Source/PSoC5/CyLib.c **** #endif
1397:./Generated_Source/PSoC5/CyLib.c **** 
1398:./Generated_Source/PSoC5/CyLib.c **** /*******************************************************************************
1399:./Generated_Source/PSoC5/CyLib.c **** * Function Name: CyEnableDigitalArray
1400:./Generated_Source/PSoC5/CyLib.c **** ********************************************************************************
1401:./Generated_Source/PSoC5/CyLib.c **** * Summary:
1402:./Generated_Source/PSoC5/CyLib.c **** *   Uses the PM system to enable the UDB array within the device
1403:./Generated_Source/PSoC5/CyLib.c **** *
1404:./Generated_Source/PSoC5/CyLib.c **** *
1405:./Generated_Source/PSoC5/CyLib.c **** * Parameters:
1406:./Generated_Source/PSoC5/CyLib.c **** *   none
1407:./Generated_Source/PSoC5/CyLib.c **** *
1408:./Generated_Source/PSoC5/CyLib.c **** * Return:
1409:./Generated_Source/PSoC5/CyLib.c **** *   void.
1410:./Generated_Source/PSoC5/CyLib.c **** *
1411:./Generated_Source/PSoC5/CyLib.c **** *
1412:./Generated_Source/PSoC5/CyLib.c **** *******************************************************************************/
1413:./Generated_Source/PSoC5/CyLib.c **** void CyEnableDigitalArray()
1414:./Generated_Source/PSoC5/CyLib.c **** {
 1406              	 r3, #64
 1407              		uxtb	r3, r3
 1408              		strb	r3, [r2, #0]
 1409              		.loc 1 1417 0
 1410 0000 80B4     		ldr	r2, .L157+8
 1411              		ldr	r3, .L157+8
 1412 0002 00AF     		ldrb	r3, [r3, #0]
 1413              		uxtb	r3, r3
 1414              		orr	r3, r3, #16
1415:./Generated_Source/PSoC5/CyLib.c ****     CY_SET_REG8(CYDEV_PM_ACT_CFG0, CY_GET_REG8(CYDEV_PM_ACT_CFG0) | 0x40);
 1415              	 r3
 1416 0004 0D4A     		strb	r3, [r2, #0]
 1417 0006 0D4B     		.loc 1 1418 0
 1418 0008 1B78     		mov	sp, r7
 1419 000a DBB2     		pop	{r7}
 1420 000c 43F04003 		bx	lr
 1421 0010 DBB2     	.L158:
 1422 0012 1370     		.align	2
1416:./Generated_Source/PSoC5/CyLib.c ****     CY_SET_REG8(CYDEV_PM_STBY_CFG0, CY_GET_REG8(CYDEV_PM_STBY_CFG0) | 0x40);
 1423              	.word	1073759136
 1424 0014 0A4A     		.word	1073759152
 1425 0016 0A4B     		.word	1073759170
 1426 0018 1B78     	.LFE18:
 1427 001a DBB2     		.size	CyEnableDigitalArray, .-CyEnableDigitalArray
 1428 001c 43F04003 		.section	.text.CyDisableDigitalArray,"ax",%progbits
 1429 0020 DBB2     		.align	2
 1430 0022 1370     		.global	CyDisableDigitalArray
ARM GAS  C:\Users\blinky\AppData\Local\Temp/ccwJbaaa.s 			page 51


1417:./Generated_Source/PSoC5/CyLib.c ****     CY_SET_REG8(CYDEV_PM_AVAIL_CR2, CY_GET_REG8(CYDEV_PM_AVAIL_CR2) | 0x10);
 1431              		.thumb_func
 1432 0024 074A     		.type	CyDisableDigitalArray, %function
 1433 0026 074B     	CyDisableDigitalArray:
 1434 0028 1B78     	.LFB19:
 1435 002a DBB2     		.loc 1 1436 0
 1436 002c 43F01003 		@ args = 0, pretend = 0, frame = 0
 1437 0030 DBB2     		@ frame_needed = 1, uses_anonymous_args = 0
 1438 0032 1370     		@ link register save eliminated.
1418:./Generated_Source/PSoC5/CyLib.c **** }
 1439              	7}
 1440 0034 BD46     	.LCFI50:
 1441 0036 80BC     		add	r7, sp, #0
 1442 0038 7047     	.LCFI51:
 1443              		@ lr needed for prologue
 1444 003a C046     		.loc 1 1437 0
 1445              		ldr	r1, .L161
 1446 003c A0430040 		ldr	r3, .L161
 1447 0040 B0430040 		ldrb	r3, [r3, #0]
 1448 0044 C2430040 		uxtb	r3, r3
 1449              		mov	r2, #239
 1450              		and	r3, r3, r2
 1451              		strb	r3, [r1, #0]
 1452              		.loc 1 1438 0
 1453              		ldr	r1, .L161+4
 1454              		ldr	r3, .L161+4
 1455              		ldrb	r3, [r3, #0]
 1456              		uxtb	r3, r3
 1457              		mov	r2, #191
 1458              		and	r3, r3, r2
1419:./Generated_Source/PSoC5/CyLib.c **** 
1420:./Generated_Source/PSoC5/CyLib.c **** /*******************************************************************************
1421:./Generated_Source/PSoC5/CyLib.c **** * Function Name: CyDisableDigitalArray
1422:./Generated_Source/PSoC5/CyLib.c **** ********************************************************************************
1423:./Generated_Source/PSoC5/CyLib.c **** * Summary:
1424:./Generated_Source/PSoC5/CyLib.c **** *   Uses the PM system to disable the UDB array within the device
1425:./Generated_Source/PSoC5/CyLib.c **** *
1426:./Generated_Source/PSoC5/CyLib.c **** *
1427:./Generated_Source/PSoC5/CyLib.c **** * Parameters:
1428:./Generated_Source/PSoC5/CyLib.c **** *   none
1429:./Generated_Source/PSoC5/CyLib.c **** *
1430:./Generated_Source/PSoC5/CyLib.c **** * Return:
1431:./Generated_Source/PSoC5/CyLib.c **** *   void.
1432:./Generated_Source/PSoC5/CyLib.c **** *
1433:./Generated_Source/PSoC5/CyLib.c **** *
1434:./Generated_Source/PSoC5/CyLib.c **** *******************************************************************************/
1435:./Generated_Source/PSoC5/CyLib.c **** void CyDisableDigitalArray()
1436:./Generated_Source/PSoC5/CyLib.c **** {
 1459              	.loc 1 1439 0
 1460              		ldr	r1, .L161+8
 1461              		ldr	r3, .L161+8
 1462              		ldrb	r3, [r3, #0]
 1463 0000 80B4     		uxtb	r3, r3
 1464              		mov	r2, #191
 1465 0002 00AF     		and	r3, r3, r2
 1466              		strb	r3, [r1, #0]
 1467              		.loc 1 1440 0
ARM GAS  C:\Users\blinky\AppData\Local\Temp/ccwJbaaa.s 			page 52


1437:./Generated_Source/PSoC5/CyLib.c ****     CY_SET_REG8(CYDEV_PM_AVAIL_CR2, CY_GET_REG8(CYDEV_PM_AVAIL_CR2) & 0xEF);
 1468              	r7
 1469 0004 0E49     		pop	{r7}
 1470 0006 0E4B     		bx	lr
 1471 0008 1B78     	.L162:
 1472 000a DBB2     		.align	2
 1473 000c 4FF0EF02 	.L161:
 1474 0010 03EA0203 		.word	1073759170
 1475 0014 0B70     		.word	1073759152
1438:./Generated_Source/PSoC5/CyLib.c ****     CY_SET_REG8(CYDEV_PM_STBY_CFG0, CY_GET_REG8(CYDEV_PM_STBY_CFG0) & 0xBF);
 1476              	073759136
 1477 0016 0B49     	.LFE19:
 1478 0018 0A4B     		.size	CyDisableDigitalArray, .-CyDisableDigitalArray
 1479 001a 1B78     		.global	cydelay_freq_hz
 1480 001c DBB2     		.data
 1481 001e 4FF0BF02 		.align	2
 1482 0022 03EA0203 		.type	cydelay_freq_hz, %object
 1483 0026 0B70     		.size	cydelay_freq_hz, 4
1439:./Generated_Source/PSoC5/CyLib.c ****     CY_SET_REG8(CYDEV_PM_ACT_CFG0, CY_GET_REG8(CYDEV_PM_ACT_CFG0) & 0xBF);
 1484              	freq_hz:
 1485 0028 0749     		.word	24000000
 1486 002a 074B     		.global	cydelay_freq_khz
 1487 002c 1B78     		.align	2
 1488 002e DBB2     		.type	cydelay_freq_khz, %object
 1489 0030 4FF0BF02 		.size	cydelay_freq_khz, 4
 1490 0034 03EA0203 	cydelay_freq_khz:
 1491 0038 0B70     		.word	24000
1440:./Generated_Source/PSoC5/CyLib.c **** }
 1492              		cydelay_freq_mhz
 1493 003a BD46     		.type	cydelay_freq_mhz, %object
 1494 003c 80BC     		.size	cydelay_freq_mhz, 1
 1495 003e 7047     	cydelay_freq_mhz:
 1496              		.byte	24
 1497              		.global	cydelay_32k_ms
 1498              		.align	2
 1499 0040 C2430040 		.type	cydelay_32k_ms, %object
 1500 0044 B0430040 		.size	cydelay_32k_ms, 4
 1501 0048 A0430040 	cydelay_32k_ms:
 1502              		.word	786432000
 1503              		.section	.text.CyDelay,"ax",%progbits
 1504              		.align	2
 1505              		.global	CyDelay
 1506              		.thumb
 1507              		.thumb_func
 1508              		.type	CyDelay, %function
 1509              	CyDelay:
 1510 0000 00366E01 	.LFB20:
 1511              		.loc 1 1468 0
 1512              		@ args = 0, pretend = 0, frame = 8
 1513              		@ frame_needed = 1, uses_anonymous_args = 0
 1514              		push	{r7, lr}
 1515              	.LCFI52:
 1516 0004 C05D0000 		sub	sp, sp, #8
 1517              	.LCFI53:
 1518              		add	r7, sp, #0
 1519              	.LCFI54:
 1520              		str	r0, [r7, #4]
ARM GAS  C:\Users\blinky\AppData\Local\Temp/ccwJbaaa.s 			page 53


 1521 0008 18       		.loc 1 1469 0
 1522              		b	.L164
 1523 0009 000000   	.L165:
 1524              		.loc 1 1474 0
 1525              		ldr	r3, .L168
 1526              		ldr	r3, [r3, #0]
 1527 000c 0000E02E 		mov	r0, r3
 1528              		bl	CyDelayCycles
 1529              		.loc 1 1475 0
 1530              		ldr	r3, [r7, #4]
 1531              		sub	r3, r3, #32768
 1532              		str	r3, [r7, #4]
 1533              	.L164:
 1534              		.loc 1 1469 0
 1535              		ldr	r3, [r7, #4]
1441:./Generated_Source/PSoC5/CyLib.c **** 
1442:./Generated_Source/PSoC5/CyLib.c **** 
1443:./Generated_Source/PSoC5/CyLib.c **** uint32 cydelay_freq_hz = BCLK__BUS_CLK__HZ;
1444:./Generated_Source/PSoC5/CyLib.c **** uint32 cydelay_freq_khz = (BCLK__BUS_CLK__HZ + 999u) / 1000u;
1445:./Generated_Source/PSoC5/CyLib.c **** uint8 cydelay_freq_mhz = (uint8)((BCLK__BUS_CLK__HZ + 999999u) / 1000000u);
1446:./Generated_Source/PSoC5/CyLib.c **** uint32 cydelay_32k_ms = 32768 * ((BCLK__BUS_CLK__HZ + 999u) / 1000u);
1447:./Generated_Source/PSoC5/CyLib.c **** 
1448:./Generated_Source/PSoC5/CyLib.c **** 
1449:./Generated_Source/PSoC5/CyLib.c **** /*******************************************************************************
1450:./Generated_Source/PSoC5/CyLib.c **** * Function Name: CyDelay
1451:./Generated_Source/PSoC5/CyLib.c **** ********************************************************************************
1452:./Generated_Source/PSoC5/CyLib.c **** * Summary:
1453:./Generated_Source/PSoC5/CyLib.c **** *   Blocks for milliseconds.
1454:./Generated_Source/PSoC5/CyLib.c **** *
1455:./Generated_Source/PSoC5/CyLib.c **** *
1456:./Generated_Source/PSoC5/CyLib.c **** *
1457:./Generated_Source/PSoC5/CyLib.c **** *
1458:./Generated_Source/PSoC5/CyLib.c **** * Parameters:
1459:./Generated_Source/PSoC5/CyLib.c **** *   milliseconds: number of milliseconds to delay.
1460:./Generated_Source/PSoC5/CyLib.c **** *
1461:./Generated_Source/PSoC5/CyLib.c **** *
1462:./Generated_Source/PSoC5/CyLib.c **** * Return:
1463:./Generated_Source/PSoC5/CyLib.c **** *   void.
1464:./Generated_Source/PSoC5/CyLib.c **** *
1465:./Generated_Source/PSoC5/CyLib.c **** *
1466:./Generated_Source/PSoC5/CyLib.c **** *******************************************************************************/
1467:./Generated_Source/PSoC5/CyLib.c **** void CyDelay(uint32 milliseconds)
1468:./Generated_Source/PSoC5/CyLib.c **** {
 1536              	dr	r3, .L168+4
 1537              		ldr	r2, [r3, #0]
 1538              		ldr	r3, [r7, #4]
 1539 0000 80B5     		mul	r3, r3, r2
 1540              		mov	r0, r3
 1541 0002 82B0     		bl	CyDelayCycles
 1542              		.loc 1 1479 0
 1543 0004 00AF     		add	r7, r7, #8
 1544              		mov	sp, r7
 1545 0006 7860     		pop	{r7, pc}
1469:./Generated_Source/PSoC5/CyLib.c **** 	while (milliseconds > 32768)
 1546              	lign	2
 1547 0008 08E0     	.L168:
 1548              		.word	cydelay_32k_ms
ARM GAS  C:\Users\blinky\AppData\Local\Temp/ccwJbaaa.s 			page 54


1470:./Generated_Source/PSoC5/CyLib.c **** 	{
1471:./Generated_Source/PSoC5/CyLib.c **** 		/* This loop prevents overflow.
1472:./Generated_Source/PSoC5/CyLib.c **** 		 * At 100MHz, milliseconds * delay_freq_khz overflows at about 42 seconds
1473:./Generated_Source/PSoC5/CyLib.c **** 		 */
1474:./Generated_Source/PSoC5/CyLib.c **** 		CyDelayCycles(cydelay_32k_ms);
 1549              	ord	cydelay_freq_khz
 1550 000a 0C4B     	.LFE20:
 1551 000c 1B68     		.size	CyDelay, .-CyDelay
 1552 000e 1846     		.section	.text.CyDelayUs,"ax",%progbits
 1553 0010 FFF7FEFF 		.align	2
1475:./Generated_Source/PSoC5/CyLib.c **** 		milliseconds -= 32768;
 1554              	bal	CyDelayUs
 1555 0014 7B68     		.thumb
 1556 0016 A3F50043 		.thumb_func
 1557 001a 7B60     		.type	CyDelayUs, %function
 1558              	CyDelayUs:
 1559              	.LFB21:
 1560 001c 7B68     		.loc 1 1502 0
 1561 001e B3F5004F 		@ args = 0, pretend = 0, frame = 8
 1562 0022 F2D8     		@ frame_needed = 1, uses_anonymous_args = 0
1476:./Generated_Source/PSoC5/CyLib.c **** 	}
1477:./Generated_Source/PSoC5/CyLib.c **** 
1478:./Generated_Source/PSoC5/CyLib.c **** 	CyDelayCycles(milliseconds * cydelay_freq_khz);
 1563              	, lr}
 1564 0024 064B     	.LCFI55:
 1565 0026 1A68     		sub	sp, sp, #8
 1566 0028 7B68     	.LCFI56:
 1567 002a 03FB02F3 		add	r7, sp, #0
 1568 002e 1846     	.LCFI57:
 1569 0030 FFF7FEFF 		mov	r3, r0
1479:./Generated_Source/PSoC5/CyLib.c **** }
 1570              	3, [r7, #6]	@ movhi
 1571 0034 07F10807 		.loc 1 1503 0
 1572 0038 BD46     		ldrh	r2, [r7, #6]
 1573 003a 80BD     		ldr	r3, .L172
 1574              		ldrb	r3, [r3, #0]	@ zero_extendqisi2
 1575              		mul	r3, r3, r2
 1576              		mov	r0, r3
 1577 003c 00000000 		bl	CyDelayCycles
 1578 0040 00000000 		.loc 1 1504 0
 1579              		add	r7, r7, #8
 1580              		mov	sp, r7
 1581              		pop	{r7, pc}
 1582              	.L173:
 1583              		.align	2
 1584              	.L172:
 1585              		.word	cydelay_freq_mhz
 1586              	.LFE21:
 1587              		.size	CyDelayUs, .-CyDelayUs
 1588              		.section	.text.CyDelayFreq,"ax",%progbits
1480:./Generated_Source/PSoC5/CyLib.c **** 
1481:./Generated_Source/PSoC5/CyLib.c **** 
1482:./Generated_Source/PSoC5/CyLib.c **** /*******************************************************************************
1483:./Generated_Source/PSoC5/CyLib.c **** * Function Name: CyDelayUs
1484:./Generated_Source/PSoC5/CyLib.c **** ********************************************************************************
1485:./Generated_Source/PSoC5/CyLib.c **** * Summary:
1486:./Generated_Source/PSoC5/CyLib.c **** *   Blocks for microseconds.
ARM GAS  C:\Users\blinky\AppData\Local\Temp/ccwJbaaa.s 			page 55


1487:./Generated_Source/PSoC5/CyLib.c **** *
1488:./Generated_Source/PSoC5/CyLib.c **** *
1489:./Generated_Source/PSoC5/CyLib.c **** *
1490:./Generated_Source/PSoC5/CyLib.c **** *
1491:./Generated_Source/PSoC5/CyLib.c **** * Parameters:
1492:./Generated_Source/PSoC5/CyLib.c **** *   microseconds: number of microseconds to delay.
1493:./Generated_Source/PSoC5/CyLib.c **** *
1494:./Generated_Source/PSoC5/CyLib.c **** *
1495:./Generated_Source/PSoC5/CyLib.c **** * Return:
1496:./Generated_Source/PSoC5/CyLib.c **** *   void.
1497:./Generated_Source/PSoC5/CyLib.c **** *
1498:./Generated_Source/PSoC5/CyLib.c **** *
1499:./Generated_Source/PSoC5/CyLib.c **** *******************************************************************************/
1500:./Generated_Source/PSoC5/CyLib.c **** #if defined(__GNUC__) || defined(__ARMCC_VERSION)
1501:./Generated_Source/PSoC5/CyLib.c **** void CyDelayUs(uint16 microseconds)
1502:./Generated_Source/PSoC5/CyLib.c **** {
 1589              	CyDelayFreq
 1590              		.thumb
 1591              		.thumb_func
 1592 0000 80B5     		.type	CyDelayFreq, %function
 1593              	CyDelayFreq:
 1594 0002 82B0     	.LFB22:
 1595              		.loc 1 1522 0
 1596 0004 00AF     		@ args = 0, pretend = 0, frame = 8
 1597              		@ frame_needed = 1, uses_anonymous_args = 0
 1598 0006 0346     		@ link register save eliminated.
 1599 0008 FB80     		push	{r7}
1503:./Generated_Source/PSoC5/CyLib.c **** 	CyDelayCycles((uint32)microseconds * cydelay_freq_mhz);
 1600              	ub	sp, sp, #12
 1601 000a FA88     	.LCFI59:
 1602 000c 054B     		add	r7, sp, #0
 1603 000e 1B78     	.LCFI60:
 1604 0010 03FB02F3 		@ lr needed for prologue
 1605 0014 1846     		str	r0, [r7, #4]
 1606 0016 FFF7FEFF 		.loc 1 1523 0
1504:./Generated_Source/PSoC5/CyLib.c **** }
 1607              	, [r7, #4]
 1608 001a 07F10807 		cmp	r3, #0
 1609 001e BD46     		beq	.L175
 1610 0020 80BD     		.loc 1 1524 0
 1611              		ldr	r2, .L179
 1612 0022 C046     		ldr	r3, [r7, #4]
 1613              		str	r3, [r2, #0]
 1614 0024 00000000 		b	.L177
 1615              	.L175:
 1616              		.loc 1 1526 0
 1617              		ldr	r2, .L179
 1618              		ldr	r3, .L179+4
 1619              		str	r3, [r2, #0]
 1620              	.L177:
 1621              		.loc 1 1527 0
 1622              		ldr	r3, .L179
 1623              		ldr	r2, [r3, #0]
 1624              		ldr	r3, .L179+8
1505:./Generated_Source/PSoC5/CyLib.c **** #endif
1506:./Generated_Source/PSoC5/CyLib.c **** 
1507:./Generated_Source/PSoC5/CyLib.c **** 
ARM GAS  C:\Users\blinky\AppData\Local\Temp/ccwJbaaa.s 			page 56


1508:./Generated_Source/PSoC5/CyLib.c **** /*******************************************************************************
1509:./Generated_Source/PSoC5/CyLib.c **** * Function Name: CyDelayFreq
1510:./Generated_Source/PSoC5/CyLib.c **** ********************************************************************************
1511:./Generated_Source/PSoC5/CyLib.c **** * Summary:
1512:./Generated_Source/PSoC5/CyLib.c **** *   Sets clock frequency for CyDelay.
1513:./Generated_Source/PSoC5/CyLib.c **** *
1514:./Generated_Source/PSoC5/CyLib.c **** * Parameters:
1515:./Generated_Source/PSoC5/CyLib.c **** *   freq: Frequency of bus clock in Hertz.
1516:./Generated_Source/PSoC5/CyLib.c **** *
1517:./Generated_Source/PSoC5/CyLib.c **** * Return:
1518:./Generated_Source/PSoC5/CyLib.c **** *   void.
1519:./Generated_Source/PSoC5/CyLib.c **** *
1520:./Generated_Source/PSoC5/CyLib.c **** *******************************************************************************/
1521:./Generated_Source/PSoC5/CyLib.c **** void CyDelayFreq(uint32 freq)
1522:./Generated_Source/PSoC5/CyLib.c **** {
 1625              	dr	r2, .L179+12
 1626              		umull	r1, r3, r2, r3
 1627              		lsr	r3, r3, #18
 1628              		uxtb	r3, r3
 1629 0000 80B4     		ldr	r2, .L179+16
 1630              		strb	r3, [r2, #0]
 1631 0002 83B0     		.loc 1 1528 0
 1632              		ldr	r3, .L179
 1633 0004 00AF     		ldr	r3, [r3, #0]
 1634              		add	r3, r3, #992
 1635              		add	r3, r3, #7
 1636 0006 7860     		ldr	r2, .L179+20
1523:./Generated_Source/PSoC5/CyLib.c **** 	if (freq != 0u)
 1637              	3, r2, r3
 1638 0008 7B68     		lsr	r2, r3, #6
 1639 000a 002B     		ldr	r3, .L179+24
 1640 000c 03D0     		str	r2, [r3, #0]
1524:./Generated_Source/PSoC5/CyLib.c **** 		cydelay_freq_hz = freq;
 1641              	c 1 1529 0
 1642 000e 154A     		ldr	r3, .L179+24
 1643 0010 7B68     		ldr	r3, [r3, #0]
 1644 0012 1360     		lsl	r2, r3, #15
 1645 0014 02E0     		ldr	r3, .L179+28
 1646              		str	r2, [r3, #0]
1525:./Generated_Source/PSoC5/CyLib.c **** 	else
1526:./Generated_Source/PSoC5/CyLib.c **** 		cydelay_freq_hz = BCLK__BUS_CLK__HZ;
 1647              	1 1530 0
 1648 0016 134A     		add	r7, r7, #12
 1649 0018 134B     		mov	sp, r7
 1650 001a 1360     		pop	{r7}
 1651              		bx	lr
1527:./Generated_Source/PSoC5/CyLib.c **** 	cydelay_freq_mhz = (uint8)((cydelay_freq_hz + 999999u) / 1000000u);
 1652              	:
 1653 001c 114B     		.align	2
 1654 001e 1A68     	.L179:
 1655 0020 124B     		.word	cydelay_freq_hz
 1656 0022 1344     		.word	24000000
 1657 0024 124A     		.word	999999
 1658 0026 A2FB0313 		.word	1125899907
 1659 002a 4FEA9343 		.word	cydelay_freq_mhz
 1660 002e DBB2     		.word	274877907
 1661 0030 104A     		.word	cydelay_freq_khz
ARM GAS  C:\Users\blinky\AppData\Local\Temp/ccwJbaaa.s 			page 57


 1662 0032 1370     		.word	cydelay_32k_ms
1528:./Generated_Source/PSoC5/CyLib.c **** 	cydelay_freq_khz = (cydelay_freq_hz + 999u) / 1000u;
 1663              	ize	CyDelayFreq, .-CyDelayFreq
 1664 0034 0B4B     		.section	.text.CyDisableInts,"ax",%progbits
 1665 0036 1B68     		.align	2
 1666 0038 03F57873 		.global	CyDisableInts
 1667 003c 03F10703 		.thumb
 1668 0040 0D4A     		.thumb_func
 1669 0042 A2FB0313 		.type	CyDisableInts, %function
 1670 0046 4FEA9312 	CyDisableInts:
 1671 004a 0C4B     	.LFB23:
 1672 004c 1A60     		.loc 1 1554 0
1529:./Generated_Source/PSoC5/CyLib.c **** 	cydelay_32k_ms = 32768 * cydelay_freq_khz;
 1673              	0, pretend = 0, frame = 8
 1674 004e 0B4B     		@ frame_needed = 1, uses_anonymous_args = 0
 1675 0050 1B68     		@ link register save eliminated.
 1676 0052 4FEAC332 		push	{r7}
 1677 0056 0A4B     	.LCFI61:
 1678 0058 1A60     		sub	sp, sp, #12
1530:./Generated_Source/PSoC5/CyLib.c **** }
 1679              	2:
 1680 005a 07F10C07 		add	r7, sp, #0
 1681 005e BD46     	.LCFI63:
 1682 0060 80BC     		@ lr needed for prologue
 1683 0062 7047     		.loc 1 1559 0
 1684              		ldr	r3, .L183
 1685              		ldr	r3, [r3, #0]
 1686              		str	r3, [r7, #4]
 1687 0064 00000000 		.loc 1 1562 0
 1688 0068 00366E01 		ldr	r2, .L183
 1689 006c 3F420F00 		mov	r3, #-1
 1690 0070 83DE1B43 		str	r3, [r2, #0]
 1691 0074 00000000 		.loc 1 1564 0
 1692 0078 D34D6210 		ldr	r3, [r7, #4]
 1693 007c 00000000 		.loc 1 1565 0
 1694 0080 00000000 		mov	r0, r3
 1695              		add	r7, r7, #12
 1696              		mov	sp, r7
 1697              		pop	{r7}
 1698              		bx	lr
 1699              	.L184:
 1700              		.align	2
 1701              	.L183:
 1702              		.word	-536813184
 1703              	.LFE23:
 1704              		.size	CyDisableInts, .-CyDisableInts
1531:./Generated_Source/PSoC5/CyLib.c **** 
1532:./Generated_Source/PSoC5/CyLib.c **** 
1533:./Generated_Source/PSoC5/CyLib.c **** // Redo when in cydevice.h
1534:./Generated_Source/PSoC5/CyLib.c **** #define NVIC_SET_EN         ((reg32 *) 0xE000E100)
1535:./Generated_Source/PSoC5/CyLib.c **** #define NVIC_CLR_EN         ((reg32 *) 0xE000E180)
1536:./Generated_Source/PSoC5/CyLib.c **** 
1537:./Generated_Source/PSoC5/CyLib.c **** /*******************************************************************************
1538:./Generated_Source/PSoC5/CyLib.c **** * Function Name: CyDisableInts
1539:./Generated_Source/PSoC5/CyLib.c **** ********************************************************************************
1540:./Generated_Source/PSoC5/CyLib.c **** * Summary:
1541:./Generated_Source/PSoC5/CyLib.c **** *  Disables all interrupts.  
ARM GAS  C:\Users\blinky\AppData\Local\Temp/ccwJbaaa.s 			page 58


1542:./Generated_Source/PSoC5/CyLib.c **** *   
1543:./Generated_Source/PSoC5/CyLib.c **** *
1544:./Generated_Source/PSoC5/CyLib.c **** *
1545:./Generated_Source/PSoC5/CyLib.c **** * Parameters: None.
1546:./Generated_Source/PSoC5/CyLib.c **** *   
1547:./Generated_Source/PSoC5/CyLib.c **** *
1548:./Generated_Source/PSoC5/CyLib.c **** *
1549:./Generated_Source/PSoC5/CyLib.c **** * Return: 32 bit mask, of previously enabled interrupts.
1550:./Generated_Source/PSoC5/CyLib.c **** *    
1551:./Generated_Source/PSoC5/CyLib.c **** *
1552:./Generated_Source/PSoC5/CyLib.c **** *******************************************************************************/
1553:./Generated_Source/PSoC5/CyLib.c **** uint32 CyDisableInts(void)
1554:./Generated_Source/PSoC5/CyLib.c **** {
 1705              	ts,"ax",%progbits
 1706              		.align	2
 1707              		.global	CyEnableInts
 1708              		.thumb
 1709 0000 80B4     		.thumb_func
 1710              		.type	CyEnableInts, %function
 1711 0002 83B0     	CyEnableInts:
 1712              	.LFB24:
 1713 0004 00AF     		.loc 1 1583 0
 1714              		@ args = 0, pretend = 0, frame = 8
 1715              		@ frame_needed = 1, uses_anonymous_args = 0
1555:./Generated_Source/PSoC5/CyLib.c ****     uint32 intState;
1556:./Generated_Source/PSoC5/CyLib.c **** 
1557:./Generated_Source/PSoC5/CyLib.c **** 
1558:./Generated_Source/PSoC5/CyLib.c ****     /* Get the curreent interrutp state. */
1559:./Generated_Source/PSoC5/CyLib.c ****     intState = *NVIC_CLR_EN;
 1716              	ister save eliminated.
 1717 0006 074B     		push	{r7}
 1718 0008 1B68     	.LCFI64:
 1719 000a 7B60     		sub	sp, sp, #12
1560:./Generated_Source/PSoC5/CyLib.c **** 
1561:./Generated_Source/PSoC5/CyLib.c ****     /* Disable all of the interrupts. */
1562:./Generated_Source/PSoC5/CyLib.c ****     *NVIC_CLR_EN = 0xFFFFFFFF;
 1720              	I65:
 1721 000c 054A     		add	r7, sp, #0
 1722 000e 4FF0FF33 	.LCFI66:
 1723 0012 1360     		@ lr needed for prologue
1563:./Generated_Source/PSoC5/CyLib.c **** 
1564:./Generated_Source/PSoC5/CyLib.c ****     return intState;
 1724              		r0, [r7, #4]
 1725 0014 7B68     		.loc 1 1585 0
1565:./Generated_Source/PSoC5/CyLib.c **** }
 1726              	dr	r2, .L187
 1727 0016 1846     		ldr	r3, [r7, #4]
 1728 0018 07F10C07 		str	r3, [r2, #0]
 1729 001c BD46     		.loc 1 1586 0
 1730 001e 80BC     		add	r7, r7, #12
 1731 0020 7047     		mov	sp, r7
 1732              		pop	{r7}
 1733 0022 C046     		bx	lr
 1734              	.L188:
 1735 0024 80E100E0 		.align	2
 1736              	.L187:
 1737              		.word	-536813312
ARM GAS  C:\Users\blinky\AppData\Local\Temp/ccwJbaaa.s 			page 59


 1738              	.LFE24:
 1739              		.size	CyEnableInts, .-CyEnableInts
 1740              		.section	.text.CYDEV_FATAL_ABORT,"ax",%progbits
 1741              		.align	2
 1742              		.global	CYDEV_FATAL_ABORT
 1743              		.thumb
 1744              		.thumb_func
 1745              		.type	CYDEV_FATAL_ABORT, %function
1566:./Generated_Source/PSoC5/CyLib.c **** 
1567:./Generated_Source/PSoC5/CyLib.c **** /*******************************************************************************
1568:./Generated_Source/PSoC5/CyLib.c **** * Function Name: CyEnableInts
1569:./Generated_Source/PSoC5/CyLib.c **** ********************************************************************************
1570:./Generated_Source/PSoC5/CyLib.c **** * Summary:
1571:./Generated_Source/PSoC5/CyLib.c **** *  Enables interrupts to a given state.
1572:./Generated_Source/PSoC5/CyLib.c **** *
1573:./Generated_Source/PSoC5/CyLib.c **** *
1574:./Generated_Source/PSoC5/CyLib.c **** * Parameters:
1575:./Generated_Source/PSoC5/CyLib.c **** *   intState, 32 bit mask, of interrupts to enable.
1576:./Generated_Source/PSoC5/CyLib.c **** *
1577:./Generated_Source/PSoC5/CyLib.c **** *
1578:./Generated_Source/PSoC5/CyLib.c **** * Return: Void.
1579:./Generated_Source/PSoC5/CyLib.c **** *   
1580:./Generated_Source/PSoC5/CyLib.c **** *   
1581:./Generated_Source/PSoC5/CyLib.c **** *******************************************************************************/
1582:./Generated_Source/PSoC5/CyLib.c **** void CyEnableInts(uint32 intState)
1583:./Generated_Source/PSoC5/CyLib.c **** {
 1746              	LFB25:
 1747              		.loc 1 1604 0
 1748              		@ args = 0, pretend = 0, frame = 8
 1749              		@ frame_needed = 1, uses_anonymous_args = 0
 1750 0000 80B4     		@ link register save eliminated.
 1751              		push	{r7}
 1752 0002 83B0     	.LCFI67:
 1753              		sub	sp, sp, #12
 1754 0004 00AF     	.LCFI68:
 1755              		add	r7, sp, #0
 1756              	.LCFI69:
 1757 0006 7860     		@ lr needed for prologue
1584:./Generated_Source/PSoC5/CyLib.c ****     /* Set interrupts as enabled. */
1585:./Generated_Source/PSoC5/CyLib.c ****     *NVIC_SET_EN = intState;
 1758              		strb	r3, [r7, #7]
 1759 0008 034A     		.loc 1 1606 0
 1760 000a 7B68     		ldr	r2, .L191
 1761 000c 1360     		mov	r3, #1
1586:./Generated_Source/PSoC5/CyLib.c **** }
 1762              	b	r3, [r2, #0]
 1763 000e 07F10C07 		.loc 1 1607 0
 1764 0012 BD46     		add	r7, r7, #12
 1765 0014 80BC     		mov	sp, r7
 1766 0016 7047     		pop	{r7}
 1767              		bx	lr
 1768              	.L192:
 1769              		.align	2
 1770 0018 00E100E0 	.L191:
 1771              		.word	1073759978
 1772              	.LFE25:
 1773              		.size	CYDEV_FATAL_ABORT, .-CYDEV_FATAL_ABORT
ARM GAS  C:\Users\blinky\AppData\Local\Temp/ccwJbaaa.s 			page 60


 1774              		.section	.text.CySoftwareReset,"ax",%progbits
 1775              		.align	2
 1776              		.global	CySoftwareReset
 1777              		.thumb
 1778              		.thumb_func
 1779              		.type	CySoftwareReset, %function
 1780              	CySoftwareReset:
1587:./Generated_Source/PSoC5/CyLib.c **** 
1588:./Generated_Source/PSoC5/CyLib.c **** /*******************************************************************************
1589:./Generated_Source/PSoC5/CyLib.c **** * Function Name: CYDEV_FATAL_ABORT
1590:./Generated_Source/PSoC5/CyLib.c **** ********************************************************************************
1591:./Generated_Source/PSoC5/CyLib.c **** * Summary:
1592:./Generated_Source/PSoC5/CyLib.c **** *  Halts the CPU 
1593:./Generated_Source/PSoC5/CyLib.c **** *
1594:./Generated_Source/PSoC5/CyLib.c **** *
1595:./Generated_Source/PSoC5/CyLib.c **** * Parameters:
1596:./Generated_Source/PSoC5/CyLib.c **** *   reason, string containing a message explaining the reason for the halt
1597:./Generated_Source/PSoC5/CyLib.c **** *
1598:./Generated_Source/PSoC5/CyLib.c **** *
1599:./Generated_Source/PSoC5/CyLib.c **** * Return: Void.
1600:./Generated_Source/PSoC5/CyLib.c **** *   
1601:./Generated_Source/PSoC5/CyLib.c **** *   
1602:./Generated_Source/PSoC5/CyLib.c **** *******************************************************************************/
1603:./Generated_Source/PSoC5/CyLib.c **** void CYDEV_FATAL_ABORT(unsigned char reason)
1604:./Generated_Source/PSoC5/CyLib.c **** {
 1781              	7 0
 1782              		@ args = 0, pretend = 0, frame = 0
 1783              		@ frame_needed = 1, uses_anonymous_args = 0
 1784              		@ link register save eliminated.
 1785 0000 80B4     		push	{r7}
 1786              	.LCFI70:
 1787 0002 83B0     		add	r7, sp, #0
 1788              	.LCFI71:
 1789 0004 00AF     		@ lr needed for prologue
 1790              		.loc 1 1629 0
 1791              		ldr	r3, .L195
 1792 0006 0346     		mov	r2, #1
 1793 0008 FB71     		strb	r2, [r3, #0]
1605:./Generated_Source/PSoC5/CyLib.c ****     reason = reason;
1606:./Generated_Source/PSoC5/CyLib.c ****     CYDEV_HALT_CPU;
 1794              	0
 1795 000a 044A     		mov	sp, r7
 1796 000c 4FF00103 		pop	{r7}
 1797 0010 1370     		bx	lr
1607:./Generated_Source/PSoC5/CyLib.c **** }
 1798              	6:
 1799 0012 07F10C07 		.align	2
 1800 0016 BD46     	.L195:
 1801 0018 80BC     		.word	1073759990
 1802 001a 7047     	.LFE26:
 1803              		.size	CySoftwareReset, .-CySoftwareReset
 1804              		.section	.text.CyFlushCache,"ax",%progbits
 1805              		.align	2
 1806 001c EA460040 		.global	CyFlushCache
 1807              		.thumb
 1808              		.thumb_func
 1809              		.type	CyFlushCache, %function
ARM GAS  C:\Users\blinky\AppData\Local\Temp/ccwJbaaa.s 			page 61


 1810              	CyFlushCache:
 1811              	.LFB27:
 1812              		.loc 1 1650 0
 1813              		@ args = 0, pretend = 0, frame = 8
 1814              		@ frame_needed = 1, uses_anonymous_args = 0
 1815              		@ link register save eliminated.
 1816              		push	{r7}
1608:./Generated_Source/PSoC5/CyLib.c **** 
1609:./Generated_Source/PSoC5/CyLib.c **** #define RESET_CR2         ((reg8 *) CYDEV_RESET_CR2)
1610:./Generated_Source/PSoC5/CyLib.c **** 
1611:./Generated_Source/PSoC5/CyLib.c **** /*******************************************************************************
1612:./Generated_Source/PSoC5/CyLib.c **** * Function Name: CySoftwareReset
1613:./Generated_Source/PSoC5/CyLib.c **** ********************************************************************************
1614:./Generated_Source/PSoC5/CyLib.c **** * Summary:
1615:./Generated_Source/PSoC5/CyLib.c **** *  Performs a software reset
1616:./Generated_Source/PSoC5/CyLib.c **** *
1617:./Generated_Source/PSoC5/CyLib.c **** *
1618:./Generated_Source/PSoC5/CyLib.c **** * Parameters:
1619:./Generated_Source/PSoC5/CyLib.c **** *  none 
1620:./Generated_Source/PSoC5/CyLib.c **** *
1621:./Generated_Source/PSoC5/CyLib.c **** *
1622:./Generated_Source/PSoC5/CyLib.c **** * Return: Void.
1623:./Generated_Source/PSoC5/CyLib.c **** *   
1624:./Generated_Source/PSoC5/CyLib.c **** *   
1625:./Generated_Source/PSoC5/CyLib.c **** *******************************************************************************/
1626:./Generated_Source/PSoC5/CyLib.c **** void CySoftwareReset()
1627:./Generated_Source/PSoC5/CyLib.c **** {
 1817              	p, #12
 1818              	.LCFI73:
 1819              		add	r7, sp, #0
 1820              	.LCFI74:
 1821 0000 80B4     		@ lr needed for prologue
 1822              		.loc 1 1652 0
 1823 0002 00AF     		ldr	r3, .L199
 1824              		ldrh	r3, [r3, #0]	@ movhi
 1825              		strh	r3, [r7, #6]	@ movhi
1628:./Generated_Source/PSoC5/CyLib.c ****     /* Perform a reset by writing the software reset bit in reset control register 2 */	
1629:./Generated_Source/PSoC5/CyLib.c ****     *RESET_CR2 = 0x1;
 1826              	653 0
 1827 0004 034B     		ldrh	r3, [r7, #6]	@ movhi
 1828 0006 4FF00102 		orr	r3, r3, #4
 1829 000a 1A70     		strh	r3, [r7, #6]	@ movhi
1630:./Generated_Source/PSoC5/CyLib.c **** }
 1830              	c 1 1654 0
 1831 000c BD46     		ldr	r2, .L199
 1832 000e 80BC     		ldrh	r3, [r7, #6]	@ movhi
 1833 0010 7047     		strh	r3, [r2, #0]	@ movhi
 1834              		.loc 1 1660 0
 1835 0012 C046     		NOP
 1836              	
 1837 0014 F6460040 		.loc 1 1661 0
 1838              		NOP
 1839              	
 1840              		.loc 1 1662 0
 1841              		NOP
 1842              	
 1843              		.loc 1 1663 0
ARM GAS  C:\Users\blinky\AppData\Local\Temp/ccwJbaaa.s 			page 62


 1844              		NOP
 1845              	
 1846              		.loc 1 1664 0
 1847              		.thumb
1631:./Generated_Source/PSoC5/CyLib.c **** 
1632:./Generated_Source/PSoC5/CyLib.c **** #define CACHE_CC_CTL         ((reg16 *) CYDEV_CACHE_CC_CTL)
1633:./Generated_Source/PSoC5/CyLib.c **** 
1634:./Generated_Source/PSoC5/CyLib.c **** /*******************************************************************************
1635:./Generated_Source/PSoC5/CyLib.c **** * Function Name: CyFlushCache
1636:./Generated_Source/PSoC5/CyLib.c **** ********************************************************************************
1637:./Generated_Source/PSoC5/CyLib.c **** * Summary:
1638:./Generated_Source/PSoC5/CyLib.c **** *  Performs a cache flush by invalidating the cache contents
1639:./Generated_Source/PSoC5/CyLib.c **** *
1640:./Generated_Source/PSoC5/CyLib.c **** *
1641:./Generated_Source/PSoC5/CyLib.c **** * Parameters:
1642:./Generated_Source/PSoC5/CyLib.c **** *  none 
1643:./Generated_Source/PSoC5/CyLib.c **** *
1644:./Generated_Source/PSoC5/CyLib.c **** *
1645:./Generated_Source/PSoC5/CyLib.c **** * Return: Void.
1646:./Generated_Source/PSoC5/CyLib.c **** *   
1647:./Generated_Source/PSoC5/CyLib.c **** *   
1648:./Generated_Source/PSoC5/CyLib.c **** *******************************************************************************/
1649:./Generated_Source/PSoC5/CyLib.c **** void CyFlushCache()
1650:./Generated_Source/PSoC5/CyLib.c **** {	
 1848              	mov	sp, r7
 1849              		pop	{r7}
 1850              		bx	lr
 1851              	.L200:
 1852 0000 80B4     		.align	2
 1853              	.L199:
 1854 0002 83B0     		.word	1073760256
 1855              	.LFE27:
 1856 0004 00AF     		.size	CyFlushCache, .-CyFlushCache
 1857              		.section	.text.CyIntSetSysVector,"ax",%progbits
 1858              		.align	2
1651:./Generated_Source/PSoC5/CyLib.c ****       /* read the register, set the flush bit, write back */
1652:./Generated_Source/PSoC5/CyLib.c **** 	uint16 ctrlreg = *CACHE_CC_CTL;
 1859              	IntSetSysVector
 1860 0006 094B     		.thumb
 1861 0008 1B88     		.thumb_func
 1862 000a FB80     		.type	CyIntSetSysVector, %function
1653:./Generated_Source/PSoC5/CyLib.c **** 	ctrlreg |= 0x4; // set bit 2
 1863              	tSetSysVector:
 1864 000c FB88     	.LFB28:
 1865 000e 43F00403 		.loc 1 1685 0
 1866 0012 FB80     		@ args = 0, pretend = 0, frame = 16
1654:./Generated_Source/PSoC5/CyLib.c **** 	*CACHE_CC_CTL = ctrlreg;
 1867              	rame_needed = 1, uses_anonymous_args = 0
 1868 0014 054A     		@ link register save eliminated.
 1869 0016 FB88     		push	{r7}
 1870 0018 1380     	.LCFI75:
1655:./Generated_Source/PSoC5/CyLib.c **** 	/* cache is invalidated on next cycle */
1656:./Generated_Source/PSoC5/CyLib.c **** 
1657:./Generated_Source/PSoC5/CyLib.c ****       /* Execute a few NOPs to fill the ARM CM3 pipeline with instructions
1658:./Generated_Source/PSoC5/CyLib.c ****        so that instructions about to execute won't depend on data in the cache,
1659:./Generated_Source/PSoC5/CyLib.c ****        and will maintain data integrity. */
1660:./Generated_Source/PSoC5/CyLib.c **** 	CY_NOP;
ARM GAS  C:\Users\blinky\AppData\Local\Temp/ccwJbaaa.s 			page 63


 1871              		sp, sp, #20
 1872 001a 00BF     	.LCFI76:
 1873              		add	r7, sp, #0
1661:./Generated_Source/PSoC5/CyLib.c **** 	CY_NOP;
 1874              	FI77:
 1875 001c 00BF     		@ lr needed for prologue
 1876              		mov	r3, r0
1662:./Generated_Source/PSoC5/CyLib.c **** 	CY_NOP;
 1877              	r	r1, [r7, #0]
 1878 001e 00BF     		strb	r3, [r7, #7]
 1879              		.loc 1 1691 0
1663:./Generated_Source/PSoC5/CyLib.c **** 	CY_NOP;
 1880              	r	r3, .L203
 1881 0020 00BF     		ldr	r3, [r3, #0]
 1882              		str	r3, [r7, #12]
1664:./Generated_Source/PSoC5/CyLib.c **** }
 1883              	oc 1 1694 0
 1884              		ldrb	r3, [r7, #7]	@ zero_extendqisi2
 1885 0022 07F10C07 		lsl	r3, r3, #2
 1886 0026 BD46     		mov	r2, r3
 1887 0028 80BC     		ldr	r3, [r7, #12]
 1888 002a 7047     		add	r3, r2, r3
 1889              		ldr	r3, [r3, #0]
 1890              		str	r3, [r7, #8]
 1891              		.loc 1 1697 0
 1892 002c 00480040 		ldrb	r3, [r7, #7]	@ zero_extendqisi2
 1893              		lsl	r3, r3, #2
 1894              		mov	r2, r3
 1895              		ldr	r3, [r7, #12]
 1896              		add	r2, r2, r3
 1897              		ldr	r3, [r7, #0]
 1898              		str	r3, [r2, #0]
 1899              		.loc 1 1699 0
 1900              		ldr	r3, [r7, #8]
 1901              		.loc 1 1700 0
 1902              		mov	r0, r3
1665:./Generated_Source/PSoC5/CyLib.c **** 
1666:./Generated_Source/PSoC5/CyLib.c **** /*******************************************************************************
1667:./Generated_Source/PSoC5/CyLib.c **** * Function Name: CyIntSetSysVector
1668:./Generated_Source/PSoC5/CyLib.c **** ********************************************************************************
1669:./Generated_Source/PSoC5/CyLib.c **** * Summary:
1670:./Generated_Source/PSoC5/CyLib.c **** *   Change the ISR vector for the System Interrupts. These are the fault 
1671:./Generated_Source/PSoC5/CyLib.c **** *   handlers, SVCall, Sys Tick and others. We can only set the vectors. The arm
1672:./Generated_Source/PSoC5/CyLib.c **** *   will decide when to call them.
1673:./Generated_Source/PSoC5/CyLib.c **** *
1674:./Generated_Source/PSoC5/CyLib.c **** * Parameters:
1675:./Generated_Source/PSoC5/CyLib.c **** *   address: Address of the System ISR to set in the interrupt vector table.
1676:./Generated_Source/PSoC5/CyLib.c **** *
1677:./Generated_Source/PSoC5/CyLib.c **** *   number: The number of the interrupt, 0 - 14.
1678:./Generated_Source/PSoC5/CyLib.c **** *
1679:./Generated_Source/PSoC5/CyLib.c **** * Return:
1680:./Generated_Source/PSoC5/CyLib.c **** *   The old ISR vector at this location.
1681:./Generated_Source/PSoC5/CyLib.c **** *
1682:./Generated_Source/PSoC5/CyLib.c **** *
1683:./Generated_Source/PSoC5/CyLib.c **** *******************************************************************************/
1684:./Generated_Source/PSoC5/CyLib.c **** cyisraddress CyIntSetSysVector(uint8 number, cyisraddress address)
1685:./Generated_Source/PSoC5/CyLib.c **** {
ARM GAS  C:\Users\blinky\AppData\Local\Temp/ccwJbaaa.s 			page 64


 1903              	v	sp, r7
 1904              		pop	{r7}
 1905              		bx	lr
 1906              	.L204:
 1907 0000 80B4     		.align	2
 1908              	.L203:
 1909 0002 85B0     		.word	-536810232
 1910              	.LFE28:
 1911 0004 00AF     		.size	CyIntSetSysVector, .-CyIntSetSysVector
 1912              		.section	.text.CyIntGetSysVector,"ax",%progbits
 1913              		.align	2
 1914 0006 0346     		.global	CyIntGetSysVector
 1915 0008 3960     		.thumb
 1916 000a FB71     		.thumb_func
1686:./Generated_Source/PSoC5/CyLib.c ****     cyisraddress oldIsr;
1687:./Generated_Source/PSoC5/CyLib.c ****     cyisraddress * ramVectorTable;
1688:./Generated_Source/PSoC5/CyLib.c **** 
1689:./Generated_Source/PSoC5/CyLib.c **** 
1690:./Generated_Source/PSoC5/CyLib.c ****     /* Get a pointer to the Interrupt vector table. */
1691:./Generated_Source/PSoC5/CyLib.c ****     ramVectorTable = (cyisraddress *) *CYINT_VECTORS;
 1917              	tSysVector, %function
 1918 000c 0C4B     	CyIntGetSysVector:
 1919 000e 1B68     	.LFB29:
 1920 0010 FB60     		.loc 1 1720 0
1692:./Generated_Source/PSoC5/CyLib.c **** 
1693:./Generated_Source/PSoC5/CyLib.c ****     /* Save old Interrupt service routine. */
1694:./Generated_Source/PSoC5/CyLib.c ****     oldIsr = (cyisraddress) ramVectorTable[number];
 1921              	rgs = 0, pretend = 0, frame = 16
 1922 0012 FB79     		@ frame_needed = 1, uses_anonymous_args = 0
 1923 0014 4FEA8303 		@ link register save eliminated.
 1924 0018 1A46     		push	{r7}
 1925 001a FB68     	.LCFI78:
 1926 001c 1344     		sub	sp, sp, #20
 1927 001e 1B68     	.LCFI79:
 1928 0020 BB60     		add	r7, sp, #0
1695:./Generated_Source/PSoC5/CyLib.c **** 
1696:./Generated_Source/PSoC5/CyLib.c ****     /* Set new Interrupt service routine. */
1697:./Generated_Source/PSoC5/CyLib.c ****     ramVectorTable[number] = address;
 1929              	
 1930 0022 FB79     		@ lr needed for prologue
 1931 0024 4FEA8303 		mov	r3, r0
 1932 0028 1A46     		strb	r3, [r7, #7]
 1933 002a FB68     		.loc 1 1724 0
 1934 002c 1A44     		ldr	r3, .L207
 1935 002e 3B68     		ldr	r3, [r3, #0]
 1936 0030 1360     		str	r3, [r7, #12]
1698:./Generated_Source/PSoC5/CyLib.c **** 
1699:./Generated_Source/PSoC5/CyLib.c ****     return oldIsr;
 1937              	 1726 0
 1938 0032 BB68     		ldrb	r3, [r7, #7]	@ zero_extendqisi2
1700:./Generated_Source/PSoC5/CyLib.c **** }
 1939              	sl	r3, r3, #2
 1940 0034 1846     		mov	r2, r3
 1941 0036 07F11407 		ldr	r3, [r7, #12]
 1942 003a BD46     		add	r3, r2, r3
 1943 003c 80BC     		ldr	r3, [r3, #0]
 1944 003e 7047     		.loc 1 1727 0
ARM GAS  C:\Users\blinky\AppData\Local\Temp/ccwJbaaa.s 			page 65


 1945              		mov	r0, r3
 1946              		add	r7, r7, #20
 1947              		mov	sp, r7
 1948 0040 08ED00E0 		pop	{r7}
 1949              		bx	lr
 1950              	.L208:
 1951              		.align	2
 1952              	.L207:
 1953              		.word	-536810232
 1954              	.LFE29:
 1955              		.size	CyIntGetSysVector, .-CyIntGetSysVector
 1956              		.section	.text.CyIntSetVector,"ax",%progbits
 1957              		.align	2
 1958              		.global	CyIntSetVector
1701:./Generated_Source/PSoC5/CyLib.c **** 
1702:./Generated_Source/PSoC5/CyLib.c **** /*******************************************************************************
1703:./Generated_Source/PSoC5/CyLib.c **** * Function Name: CyIntGetSysVector
1704:./Generated_Source/PSoC5/CyLib.c **** ********************************************************************************
1705:./Generated_Source/PSoC5/CyLib.c **** * Summary:
1706:./Generated_Source/PSoC5/CyLib.c **** *   Gets the "address" of the current System ISR, located at "number" in the vector
1707:./Generated_Source/PSoC5/CyLib.c **** *   table.
1708:./Generated_Source/PSoC5/CyLib.c **** *
1709:./Generated_Source/PSoC5/CyLib.c **** *
1710:./Generated_Source/PSoC5/CyLib.c **** * Parameters:
1711:./Generated_Source/PSoC5/CyLib.c **** *   number: The number of the interrupt, 0 - 14.
1712:./Generated_Source/PSoC5/CyLib.c **** *
1713:./Generated_Source/PSoC5/CyLib.c **** *
1714:./Generated_Source/PSoC5/CyLib.c **** * Return:
1715:./Generated_Source/PSoC5/CyLib.c **** *   Address of the ISR in the interrupt vector table.
1716:./Generated_Source/PSoC5/CyLib.c **** *
1717:./Generated_Source/PSoC5/CyLib.c **** *
1718:./Generated_Source/PSoC5/CyLib.c **** *******************************************************************************/
1719:./Generated_Source/PSoC5/CyLib.c **** cyisraddress CyIntGetSysVector(uint8 number)
1720:./Generated_Source/PSoC5/CyLib.c **** {
 1959              	
 1960              		.type	CyIntSetVector, %function
 1961              	CyIntSetVector:
 1962              	.LFB30:
 1963 0000 80B4     		.loc 1 1747 0
 1964              		@ args = 0, pretend = 0, frame = 16
 1965 0002 85B0     		@ frame_needed = 1, uses_anonymous_args = 0
 1966              		@ link register save eliminated.
 1967 0004 00AF     		push	{r7}
 1968              	.LCFI81:
 1969              		sub	sp, sp, #20
 1970 0006 0346     	.LCFI82:
 1971 0008 FB71     		add	r7, sp, #0
1721:./Generated_Source/PSoC5/CyLib.c ****     cyisraddress * ramVectorTable;
1722:./Generated_Source/PSoC5/CyLib.c **** 
1723:./Generated_Source/PSoC5/CyLib.c ****     /* Get a pointer to the Interrupt vector table. */
1724:./Generated_Source/PSoC5/CyLib.c ****     ramVectorTable = (cyisraddress *) *CYINT_VECTORS;
 1972              	lr needed for prologue
 1973 000a 084B     		mov	r3, r0
 1974 000c 1B68     		str	r1, [r7, #0]
 1975 000e FB60     		strb	r3, [r7, #7]
1725:./Generated_Source/PSoC5/CyLib.c **** 
1726:./Generated_Source/PSoC5/CyLib.c ****     return (cyisraddress) ramVectorTable[number];
ARM GAS  C:\Users\blinky\AppData\Local\Temp/ccwJbaaa.s 			page 66


 1976              	c 1 1753 0
 1977 0010 FB79     		ldr	r3, .L211
 1978 0012 4FEA8303 		ldr	r3, [r3, #0]
 1979 0016 1A46     		str	r3, [r7, #12]
 1980 0018 FB68     		.loc 1 1756 0
 1981 001a 1344     		ldr	r3, [r7, #12]
 1982 001c 1B68     		add	r2, r3, #64
1727:./Generated_Source/PSoC5/CyLib.c **** }
 1983              	3, [r7, #7]	@ zero_extendqisi2
 1984 001e 1846     		lsl	r3, r3, #2
 1985 0020 07F11407 		add	r3, r2, r3
 1986 0024 BD46     		ldr	r3, [r3, #0]
 1987 0026 80BC     		str	r3, [r7, #8]
 1988 0028 7047     		.loc 1 1759 0
 1989              		ldr	r3, [r7, #12]
 1990 002a C046     		add	r2, r3, #64
 1991              		ldrb	r3, [r7, #7]	@ zero_extendqisi2
 1992 002c 08ED00E0 		lsl	r3, r3, #2
 1993              		add	r2, r2, r3
 1994              		ldr	r3, [r7, #0]
 1995              		str	r3, [r2, #0]
 1996              		.loc 1 1761 0
 1997              		ldr	r3, [r7, #8]
 1998              		.loc 1 1762 0
 1999              		mov	r0, r3
 2000              		add	r7, r7, #20
 2001              		mov	sp, r7
 2002              		pop	{r7}
1728:./Generated_Source/PSoC5/CyLib.c **** 
1729:./Generated_Source/PSoC5/CyLib.c **** /*******************************************************************************
1730:./Generated_Source/PSoC5/CyLib.c **** * Function Name: CyIntSetVector
1731:./Generated_Source/PSoC5/CyLib.c **** ********************************************************************************
1732:./Generated_Source/PSoC5/CyLib.c **** * Summary:
1733:./Generated_Source/PSoC5/CyLib.c **** *   Change the ISR vector for the Interrupt.
1734:./Generated_Source/PSoC5/CyLib.c **** *
1735:./Generated_Source/PSoC5/CyLib.c **** *
1736:./Generated_Source/PSoC5/CyLib.c **** * Parameters:
1737:./Generated_Source/PSoC5/CyLib.c **** *   address: Address of the ISR to set in the interrupt vector table.
1738:./Generated_Source/PSoC5/CyLib.c **** *
1739:./Generated_Source/PSoC5/CyLib.c **** *   number: The number of the interrupt, 0 - 32.
1740:./Generated_Source/PSoC5/CyLib.c **** *
1741:./Generated_Source/PSoC5/CyLib.c **** * Return:
1742:./Generated_Source/PSoC5/CyLib.c **** *   The old ISR vector at this location.
1743:./Generated_Source/PSoC5/CyLib.c **** *
1744:./Generated_Source/PSoC5/CyLib.c **** *
1745:./Generated_Source/PSoC5/CyLib.c **** *******************************************************************************/
1746:./Generated_Source/PSoC5/CyLib.c **** cyisraddress CyIntSetVector(uint8 number, cyisraddress address)
1747:./Generated_Source/PSoC5/CyLib.c **** {
 2003              	n	2
 2004              	.L211:
 2005              		.word	-536810232
 2006              	.LFE30:
 2007 0000 80B4     		.size	CyIntSetVector, .-CyIntSetVector
 2008              		.section	.text.CyIntGetVector,"ax",%progbits
 2009 0002 85B0     		.align	2
 2010              		.global	CyIntGetVector
 2011 0004 00AF     		.thumb
ARM GAS  C:\Users\blinky\AppData\Local\Temp/ccwJbaaa.s 			page 67


 2012              		.thumb_func
 2013              		.type	CyIntGetVector, %function
 2014 0006 0346     	CyIntGetVector:
 2015 0008 3960     	.LFB31:
 2016 000a FB71     		.loc 1 1782 0
1748:./Generated_Source/PSoC5/CyLib.c ****     cyisraddress oldIsr;
1749:./Generated_Source/PSoC5/CyLib.c ****     cyisraddress * ramVectorTable;
1750:./Generated_Source/PSoC5/CyLib.c **** 
1751:./Generated_Source/PSoC5/CyLib.c **** 
1752:./Generated_Source/PSoC5/CyLib.c ****     /* Get a pointer to the Interrupt vector table. */
1753:./Generated_Source/PSoC5/CyLib.c ****     ramVectorTable = (cyisraddress *) *CYINT_VECTORS;
 2017              	retend = 0, frame = 16
 2018 000c 0D4B     		@ frame_needed = 1, uses_anonymous_args = 0
 2019 000e 1B68     		@ link register save eliminated.
 2020 0010 FB60     		push	{r7}
1754:./Generated_Source/PSoC5/CyLib.c **** 
1755:./Generated_Source/PSoC5/CyLib.c ****     /* Save old Interrupt service routine. */
1756:./Generated_Source/PSoC5/CyLib.c ****     oldIsr = (cyisraddress) ramVectorTable[CYINT_IRQ_BASE + number];
 2021              	I84:
 2022 0012 FB68     		sub	sp, sp, #20
 2023 0014 03F14002 	.LCFI85:
 2024 0018 FB79     		add	r7, sp, #0
 2025 001a 4FEA8303 	.LCFI86:
 2026 001e 1344     		@ lr needed for prologue
 2027 0020 1B68     		mov	r3, r0
 2028 0022 BB60     		strb	r3, [r7, #7]
1757:./Generated_Source/PSoC5/CyLib.c **** 
1758:./Generated_Source/PSoC5/CyLib.c ****     /* Set new Interrupt service routine. */
1759:./Generated_Source/PSoC5/CyLib.c ****     ramVectorTable[CYINT_IRQ_BASE + number] = address;
 2029              	1786 0
 2030 0024 FB68     		ldr	r3, .L215
 2031 0026 03F14002 		ldr	r3, [r3, #0]
 2032 002a FB79     		str	r3, [r7, #12]
 2033 002c 4FEA8303 		.loc 1 1788 0
 2034 0030 1A44     		ldr	r3, [r7, #12]
 2035 0032 3B68     		add	r2, r3, #64
 2036 0034 1360     		ldrb	r3, [r7, #7]	@ zero_extendqisi2
1760:./Generated_Source/PSoC5/CyLib.c **** 
1761:./Generated_Source/PSoC5/CyLib.c ****     return oldIsr;
 2037              	 r3, #2
 2038 0036 BB68     		add	r3, r2, r3
1762:./Generated_Source/PSoC5/CyLib.c **** }
 2039              	dr	r3, [r3, #0]
 2040 0038 1846     		.loc 1 1789 0
 2041 003a 07F11407 		mov	r0, r3
 2042 003e BD46     		add	r7, r7, #20
 2043 0040 80BC     		mov	sp, r7
 2044 0042 7047     		pop	{r7}
 2045              		bx	lr
 2046              	.L216:
 2047              		.align	2
 2048 0044 08ED00E0 	.L215:
 2049              		.word	-536810232
 2050              	.LFE31:
 2051              		.size	CyIntGetVector, .-CyIntGetVector
 2052              		.section	.text.CyIntSetPriority,"ax",%progbits
 2053              		.align	2
ARM GAS  C:\Users\blinky\AppData\Local\Temp/ccwJbaaa.s 			page 68


 2054              		.global	CyIntSetPriority
 2055              		.thumb
 2056              		.thumb_func
 2057              		.type	CyIntSetPriority, %function
 2058              	CyIntSetPriority:
1763:./Generated_Source/PSoC5/CyLib.c **** 
1764:./Generated_Source/PSoC5/CyLib.c **** /*******************************************************************************
1765:./Generated_Source/PSoC5/CyLib.c **** * Function Name: CyIntGetVector
1766:./Generated_Source/PSoC5/CyLib.c **** ********************************************************************************
1767:./Generated_Source/PSoC5/CyLib.c **** * Summary:
1768:./Generated_Source/PSoC5/CyLib.c **** *   Gets the "address" of the current ISR, located at "number" in the vector
1769:./Generated_Source/PSoC5/CyLib.c **** *   table.
1770:./Generated_Source/PSoC5/CyLib.c **** *
1771:./Generated_Source/PSoC5/CyLib.c **** *
1772:./Generated_Source/PSoC5/CyLib.c **** * Parameters:
1773:./Generated_Source/PSoC5/CyLib.c **** *   number: The number of the interrupt, 0 - 31.
1774:./Generated_Source/PSoC5/CyLib.c **** *
1775:./Generated_Source/PSoC5/CyLib.c **** *
1776:./Generated_Source/PSoC5/CyLib.c **** * Return:
1777:./Generated_Source/PSoC5/CyLib.c **** *   Address of the ISR in the interrupt vector table.
1778:./Generated_Source/PSoC5/CyLib.c **** *
1779:./Generated_Source/PSoC5/CyLib.c **** *
1780:./Generated_Source/PSoC5/CyLib.c **** *******************************************************************************/
1781:./Generated_Source/PSoC5/CyLib.c **** cyisraddress CyIntGetVector(uint8 number)
1782:./Generated_Source/PSoC5/CyLib.c **** {
 2059              	 0
 2060              		@ args = 0, pretend = 0, frame = 8
 2061              		@ frame_needed = 1, uses_anonymous_args = 0
 2062              		@ link register save eliminated.
 2063 0000 80B4     		push	{r7}
 2064              	.LCFI87:
 2065 0002 85B0     		sub	sp, sp, #12
 2066              	.LCFI88:
 2067 0004 00AF     		add	r7, sp, #0
 2068              	.LCFI89:
 2069              		@ lr needed for prologue
 2070 0006 0346     		mov	r3, r0
 2071 0008 FB71     		mov	r2, r1
1783:./Generated_Source/PSoC5/CyLib.c ****     cyisraddress * ramVectorTable;
1784:./Generated_Source/PSoC5/CyLib.c **** 
1785:./Generated_Source/PSoC5/CyLib.c ****     /* Get a pointer to the Interrupt vector table. */
1786:./Generated_Source/PSoC5/CyLib.c ****     ramVectorTable = (cyisraddress *) *CYINT_VECTORS;
 2072              	, #7]
 2073 000a 084B     		mov	r3, r2
 2074 000c 1B68     		strb	r3, [r7, #6]
 2075 000e FB60     		.loc 1 1810 0
1787:./Generated_Source/PSoC5/CyLib.c **** 
1788:./Generated_Source/PSoC5/CyLib.c ****     return (cyisraddress) ramVectorTable[CYINT_IRQ_BASE + number];
 2076              	b	r3, [r7, #7]	@ zero_extendqisi2
 2077 0010 FB68     		add	r2, r3, #-536870912
 2078 0012 03F14002 		add	r2, r2, #58368
 2079 0016 FB79     		ldrb	r3, [r7, #6]
 2080 0018 4FEA8303 		lsl	r3, r3, #5
 2081 001c 1344     		uxtb	r3, r3
 2082 001e 1B68     		strb	r3, [r2, #0]
1789:./Generated_Source/PSoC5/CyLib.c **** }
 2083              	 1811 0
ARM GAS  C:\Users\blinky\AppData\Local\Temp/ccwJbaaa.s 			page 69


 2084 0020 1846     		add	r7, r7, #12
 2085 0022 07F11407 		mov	sp, r7
 2086 0026 BD46     		pop	{r7}
 2087 0028 80BC     		bx	lr
 2088 002a 7047     	.LFE32:
 2089              		.size	CyIntSetPriority, .-CyIntSetPriority
 2090              		.section	.text.CyIntGetPriority,"ax",%progbits
 2091              		.align	2
 2092 002c 08ED00E0 		.global	CyIntGetPriority
 2093              		.thumb
 2094              		.thumb_func
 2095              		.type	CyIntGetPriority, %function
 2096              	CyIntGetPriority:
 2097              	.LFB33:
 2098              		.loc 1 1830 0
 2099              		@ args = 0, pretend = 0, frame = 16
 2100              		@ frame_needed = 1, uses_anonymous_args = 0
 2101              		@ link register save eliminated.
 2102              		push	{r7}
1790:./Generated_Source/PSoC5/CyLib.c **** 
1791:./Generated_Source/PSoC5/CyLib.c **** /*******************************************************************************
1792:./Generated_Source/PSoC5/CyLib.c **** * Function Name: CyIntSetPriority
1793:./Generated_Source/PSoC5/CyLib.c **** ********************************************************************************
1794:./Generated_Source/PSoC5/CyLib.c **** * Summary:
1795:./Generated_Source/PSoC5/CyLib.c **** *   Sets the Priority of the Interrupt.
1796:./Generated_Source/PSoC5/CyLib.c **** *
1797:./Generated_Source/PSoC5/CyLib.c **** *
1798:./Generated_Source/PSoC5/CyLib.c **** * Parameters:
1799:./Generated_Source/PSoC5/CyLib.c **** *   priority: Priority of the interrupt. 0 - 7, 0 being the highest.
1800:./Generated_Source/PSoC5/CyLib.c **** *
1801:./Generated_Source/PSoC5/CyLib.c **** *   number: The number of the interrupt, 0 - 31.
1802:./Generated_Source/PSoC5/CyLib.c **** *
1803:./Generated_Source/PSoC5/CyLib.c **** * Return:
1804:./Generated_Source/PSoC5/CyLib.c **** *   void.
1805:./Generated_Source/PSoC5/CyLib.c **** *
1806:./Generated_Source/PSoC5/CyLib.c **** *
1807:./Generated_Source/PSoC5/CyLib.c **** *******************************************************************************/
1808:./Generated_Source/PSoC5/CyLib.c **** void CyIntSetPriority(uint8 number, uint8 priority)
1809:./Generated_Source/PSoC5/CyLib.c **** {
 2103              	, #20
 2104              	.LCFI91:
 2105              		add	r7, sp, #0
 2106              	.LCFI92:
 2107 0000 80B4     		@ lr needed for prologue
 2108              		mov	r3, r0
 2109 0002 83B0     		strb	r3, [r7, #7]
 2110              		.loc 1 1834 0
 2111 0004 00AF     		ldrb	r3, [r7, #7]	@ zero_extendqisi2
 2112              		add	r3, r3, #-536870912
 2113              		add	r3, r3, #58368
 2114 0006 0346     		ldrb	r3, [r3, #0]
 2115 0008 0A46     		uxtb	r3, r3
 2116 000a FB71     		lsr	r3, r3, #5
 2117 000c 1346     		strb	r3, [r7, #15]
 2118 000e BB71     		.loc 1 1836 0
1810:./Generated_Source/PSoC5/CyLib.c ****     CYINT_PRIORITY[number] = priority << 5;
 2119              	15]	@ zero_extendqisi2
ARM GAS  C:\Users\blinky\AppData\Local\Temp/ccwJbaaa.s 			page 70


 2120 0010 FB79     		.loc 1 1837 0
 2121 0012 03F16042 		mov	r0, r3
 2122 0016 02F56442 		add	r7, r7, #20
 2123 001a BB79     		mov	sp, r7
 2124 001c 4FEA4313 		pop	{r7}
 2125 0020 DBB2     		bx	lr
 2126 0022 1370     	.LFE33:
1811:./Generated_Source/PSoC5/CyLib.c **** }
 2127              	yIntGetPriority, .-CyIntGetPriority
 2128 0024 07F10C07 		.section	.text.CyIntEnable,"ax",%progbits
 2129 0028 BD46     		.align	2
 2130 002a 80BC     		.global	CyIntEnable
 2131 002c 7047     		.thumb
 2132              		.thumb_func
 2133              		.type	CyIntEnable, %function
 2134 002e C046     	CyIntEnable:
 2135              	.LFB34:
 2136              		.loc 1 1856 0
 2137              		@ args = 0, pretend = 0, frame = 16
 2138              		@ frame_needed = 1, uses_anonymous_args = 0
 2139              		@ link register save eliminated.
 2140              		push	{r7}
 2141              	.LCFI93:
1812:./Generated_Source/PSoC5/CyLib.c **** 
1813:./Generated_Source/PSoC5/CyLib.c **** /*******************************************************************************
1814:./Generated_Source/PSoC5/CyLib.c **** * Function Name: CyIntGetPriority
1815:./Generated_Source/PSoC5/CyLib.c **** ********************************************************************************
1816:./Generated_Source/PSoC5/CyLib.c **** * Summary:
1817:./Generated_Source/PSoC5/CyLib.c **** *   Gets the Priority of the Interrupt.
1818:./Generated_Source/PSoC5/CyLib.c **** *
1819:./Generated_Source/PSoC5/CyLib.c **** *
1820:./Generated_Source/PSoC5/CyLib.c **** * Parameters:
1821:./Generated_Source/PSoC5/CyLib.c **** *   number: The number of the interrupt, 0 - 31.
1822:./Generated_Source/PSoC5/CyLib.c **** *
1823:./Generated_Source/PSoC5/CyLib.c **** *
1824:./Generated_Source/PSoC5/CyLib.c **** * Return:
1825:./Generated_Source/PSoC5/CyLib.c **** *   Priority of the interrupt. 0 - 7, 0 being the highest.
1826:./Generated_Source/PSoC5/CyLib.c **** *
1827:./Generated_Source/PSoC5/CyLib.c **** *
1828:./Generated_Source/PSoC5/CyLib.c **** *******************************************************************************/
1829:./Generated_Source/PSoC5/CyLib.c **** uint8 CyIntGetPriority(uint8 number)
1830:./Generated_Source/PSoC5/CyLib.c **** {
 2142              	0
 2143              	.LCFI94:
 2144              		add	r7, sp, #0
 2145              	.LCFI95:
 2146 0000 80B4     		@ lr needed for prologue
 2147              		mov	r3, r0
 2148 0002 85B0     		strb	r3, [r7, #7]
 2149              		.loc 1 1861 0
 2150 0004 00AF     		ldr	r3, .L223
 2151              		str	r3, [r7, #12]
 2152              		.loc 1 1864 0
 2153 0006 0346     		ldrb	r3, [r7, #7]	@ zero_extendqisi2
 2154 0008 FB71     		and	r2, r3, #31
1831:./Generated_Source/PSoC5/CyLib.c ****     uint8 priority;
1832:./Generated_Source/PSoC5/CyLib.c **** 
ARM GAS  C:\Users\blinky\AppData\Local\Temp/ccwJbaaa.s 			page 71


1833:./Generated_Source/PSoC5/CyLib.c **** 
1834:./Generated_Source/PSoC5/CyLib.c ****     priority = (uint8) CYINT_PRIORITY[number] >> 5;
 2155              	lsl	r3, r3, r2
 2156 000a FB79     		mov	r2, r3
 2157 000c 03F16043 		ldr	r3, [r7, #12]
 2158 0010 03F56443 		str	r2, [r3, #0]
 2159 0014 1B78     		.loc 1 1865 0
 2160 0016 DBB2     		add	r7, r7, #20
 2161 0018 4FEA5313 		mov	sp, r7
 2162 001c FB73     		pop	{r7}
1835:./Generated_Source/PSoC5/CyLib.c **** 
1836:./Generated_Source/PSoC5/CyLib.c ****     return priority;   
 2163              	L224:
 2164 001e FB7B     		.align	2
1837:./Generated_Source/PSoC5/CyLib.c **** }
 2165              	223:
 2166 0020 1846     		.word	-536813312
 2167 0022 07F11407 	.LFE34:
 2168 0026 BD46     		.size	CyIntEnable, .-CyIntEnable
 2169 0028 80BC     		.section	.text.CyIntGetState,"ax",%progbits
 2170 002a 7047     		.align	2
 2171              		.global	CyIntGetState
 2172              		.thumb
 2173              		.thumb_func
 2174              		.type	CyIntGetState, %function
 2175              	CyIntGetState:
 2176              	.LFB35:
 2177              		.loc 1 1884 0
 2178              		@ args = 0, pretend = 0, frame = 16
 2179              		@ frame_needed = 1, uses_anonymous_args = 0
 2180              		@ link register save eliminated.
1838:./Generated_Source/PSoC5/CyLib.c **** 
1839:./Generated_Source/PSoC5/CyLib.c **** /*******************************************************************************
1840:./Generated_Source/PSoC5/CyLib.c **** * Function Name: CyIntEnable
1841:./Generated_Source/PSoC5/CyLib.c **** ********************************************************************************
1842:./Generated_Source/PSoC5/CyLib.c **** * Summary:
1843:./Generated_Source/PSoC5/CyLib.c **** *   Enables the interrupt.
1844:./Generated_Source/PSoC5/CyLib.c **** *
1845:./Generated_Source/PSoC5/CyLib.c **** *
1846:./Generated_Source/PSoC5/CyLib.c **** * Parameters:
1847:./Generated_Source/PSoC5/CyLib.c **** *   number: The number of the interrupt, 0 - 31.
1848:./Generated_Source/PSoC5/CyLib.c **** *
1849:./Generated_Source/PSoC5/CyLib.c **** *
1850:./Generated_Source/PSoC5/CyLib.c **** * Return:
1851:./Generated_Source/PSoC5/CyLib.c **** *   void.
1852:./Generated_Source/PSoC5/CyLib.c **** *
1853:./Generated_Source/PSoC5/CyLib.c **** *
1854:./Generated_Source/PSoC5/CyLib.c **** *******************************************************************************/
1855:./Generated_Source/PSoC5/CyLib.c **** void CyIntEnable(uint8 number)
1856:./Generated_Source/PSoC5/CyLib.c **** {
 2181              	96:
 2182              		sub	sp, sp, #20
 2183              	.LCFI97:
 2184              		add	r7, sp, #0
 2185 0000 80B4     	.LCFI98:
 2186              		@ lr needed for prologue
 2187 0002 85B0     		mov	r3, r0
ARM GAS  C:\Users\blinky\AppData\Local\Temp/ccwJbaaa.s 			page 72


 2188              		strb	r3, [r7, #7]
 2189 0004 00AF     		.loc 1 1889 0
 2190              		ldr	r3, .L227
 2191              		str	r3, [r7, #12]
 2192 0006 0346     		.loc 1 1892 0
 2193 0008 FB71     		ldr	r3, [r7, #12]
1857:./Generated_Source/PSoC5/CyLib.c ****     reg32 * enableReg;
1858:./Generated_Source/PSoC5/CyLib.c **** 
1859:./Generated_Source/PSoC5/CyLib.c **** 
1860:./Generated_Source/PSoC5/CyLib.c ****     /* Get a pointer to the Interrupt enable register. */
1861:./Generated_Source/PSoC5/CyLib.c ****     enableReg = CYINT_ENABLE;
 2194              	 #0]
 2195 000a 084B     		ldrb	r3, [r7, #7]	@ zero_extendqisi2
 2196 000c FB60     		and	r2, r3, #31
1862:./Generated_Source/PSoC5/CyLib.c **** 
1863:./Generated_Source/PSoC5/CyLib.c ****     /* Enable the interrupt. */
1864:./Generated_Source/PSoC5/CyLib.c ****     *enableReg = 1 << (0x1F & number);
 2197              	v	r3, #1
 2198 000e FB79     		lsl	r3, r3, r2
 2199 0010 03F01F02 		and	r3, r1, r3
 2200 0014 4FF00103 		cmp	r3, #0
 2201 0018 03FA02F3 		ite	eq
 2202 001c 1A46     		moveq	r3, #0
 2203 001e FB68     		movne	r3, #1
 2204 0020 1A60     		.loc 1 1893 0
1865:./Generated_Source/PSoC5/CyLib.c **** }
 2205              	 r3
 2206 0022 07F11407 		add	r7, r7, #20
 2207 0026 BD46     		mov	sp, r7
 2208 0028 80BC     		pop	{r7}
 2209 002a 7047     		bx	lr
 2210              	.L228:
 2211              		.align	2
 2212              	.L227:
 2213 002c 00E100E0 		.word	-536813312
 2214              	.LFE35:
 2215              		.size	CyIntGetState, .-CyIntGetState
 2216              		.section	.text.CyIntDisable,"ax",%progbits
 2217              		.align	2
 2218              		.global	CyIntDisable
 2219              		.thumb
 2220              		.thumb_func
 2221              		.type	CyIntDisable, %function
 2222              	CyIntDisable:
 2223              	.LFB36:
1866:./Generated_Source/PSoC5/CyLib.c **** 
1867:./Generated_Source/PSoC5/CyLib.c **** /*******************************************************************************
1868:./Generated_Source/PSoC5/CyLib.c **** * Function Name: CyIntGetState
1869:./Generated_Source/PSoC5/CyLib.c **** ********************************************************************************
1870:./Generated_Source/PSoC5/CyLib.c **** * Summary:
1871:./Generated_Source/PSoC5/CyLib.c **** *   Gets the state (enabled, disabled) of the Interrupt.
1872:./Generated_Source/PSoC5/CyLib.c **** *
1873:./Generated_Source/PSoC5/CyLib.c **** *
1874:./Generated_Source/PSoC5/CyLib.c **** * Parameters:
1875:./Generated_Source/PSoC5/CyLib.c **** *   number: The number of the interrupt, 0 - 31.
1876:./Generated_Source/PSoC5/CyLib.c **** *
1877:./Generated_Source/PSoC5/CyLib.c **** *
ARM GAS  C:\Users\blinky\AppData\Local\Temp/ccwJbaaa.s 			page 73


1878:./Generated_Source/PSoC5/CyLib.c **** * Return:
1879:./Generated_Source/PSoC5/CyLib.c **** *   1 if enabled, 0 if disabled.
1880:./Generated_Source/PSoC5/CyLib.c **** *
1881:./Generated_Source/PSoC5/CyLib.c **** *
1882:./Generated_Source/PSoC5/CyLib.c **** *******************************************************************************/
1883:./Generated_Source/PSoC5/CyLib.c **** uint8 CyIntGetState(uint8 number)
1884:./Generated_Source/PSoC5/CyLib.c **** {
 2224              	rgs = 0, pretend = 0, frame = 16
 2225              		@ frame_needed = 1, uses_anonymous_args = 0
 2226              		@ link register save eliminated.
 2227              		push	{r7}
 2228 0000 80B4     	.LCFI99:
 2229              		sub	sp, sp, #20
 2230 0002 85B0     	.LCFI100:
 2231              		add	r7, sp, #0
 2232 0004 00AF     	.LCFI101:
 2233              		@ lr needed for prologue
 2234              		mov	r3, r0
 2235 0006 0346     		strb	r3, [r7, #7]
 2236 0008 FB71     		.loc 1 1917 0
1885:./Generated_Source/PSoC5/CyLib.c ****     reg32 * stateReg;
1886:./Generated_Source/PSoC5/CyLib.c **** 
1887:./Generated_Source/PSoC5/CyLib.c **** 
1888:./Generated_Source/PSoC5/CyLib.c ****     /* Get a pointer to the Interrupt enable register. */
1889:./Generated_Source/PSoC5/CyLib.c ****     stateReg = CYINT_ENABLE;
 2237              	1
 2238 000a 0B4B     		str	r3, [r7, #12]
 2239 000c FB60     		.loc 1 1920 0
1890:./Generated_Source/PSoC5/CyLib.c **** 
1891:./Generated_Source/PSoC5/CyLib.c ****     /* Get the state of the interrupt. */
1892:./Generated_Source/PSoC5/CyLib.c ****     return (*stateReg & (1 << (0x1F & number))) ? 1:0;
 2240              	rb	r3, [r7, #7]	@ zero_extendqisi2
 2241 000e FB68     		and	r2, r3, #31
 2242 0010 1968     		mov	r3, #1
 2243 0012 FB79     		lsl	r3, r3, r2
 2244 0014 03F01F02 		mov	r2, r3
 2245 0018 4FF00103 		ldr	r3, [r7, #12]
 2246 001c 03FA02F3 		str	r2, [r3, #0]
 2247 0020 01EA0303 		.loc 1 1921 0
 2248 0024 002B     		add	r7, r7, #20
 2249 0026 0CBF     		mov	sp, r7
 2250 0028 0023     		pop	{r7}
 2251 002a 0123     		bx	lr
1893:./Generated_Source/PSoC5/CyLib.c **** }
 2252              	gn	2
 2253 002c 1846     	.L231:
 2254 002e 07F11407 		.word	-536813184
 2255 0032 BD46     	.LFE36:
 2256 0034 80BC     		.size	CyIntDisable, .-CyIntDisable
 2257 0036 7047     		.section	.text.CyIntSetPending,"ax",%progbits
 2258              		.align	2
 2259              		.global	CyIntSetPending
 2260              		.thumb
 2261 0038 00E100E0 		.thumb_func
 2262              		.type	CyIntSetPending, %function
 2263              	CyIntSetPending:
 2264              	.LFB37:
ARM GAS  C:\Users\blinky\AppData\Local\Temp/ccwJbaaa.s 			page 74


 2265              		.loc 1 1941 0
 2266              		@ args = 0, pretend = 0, frame = 16
 2267              		@ frame_needed = 1, uses_anonymous_args = 0
 2268              		@ link register save eliminated.
 2269              		push	{r7}
 2270              	.LCFI102:
 2271              		sub	sp, sp, #20
1894:./Generated_Source/PSoC5/CyLib.c **** 
1895:./Generated_Source/PSoC5/CyLib.c **** /*******************************************************************************
1896:./Generated_Source/PSoC5/CyLib.c **** * Function Name: CyIntDisable
1897:./Generated_Source/PSoC5/CyLib.c **** ********************************************************************************
1898:./Generated_Source/PSoC5/CyLib.c **** * Summary:
1899:./Generated_Source/PSoC5/CyLib.c **** *   Disables the Interrupt.
1900:./Generated_Source/PSoC5/CyLib.c **** *
1901:./Generated_Source/PSoC5/CyLib.c **** *
1902:./Generated_Source/PSoC5/CyLib.c **** * Parameters:
1903:./Generated_Source/PSoC5/CyLib.c **** *   number: The number of the interrupt, 0 - 31.
1904:./Generated_Source/PSoC5/CyLib.c **** *
1905:./Generated_Source/PSoC5/CyLib.c **** *
1906:./Generated_Source/PSoC5/CyLib.c **** * Return:
1907:./Generated_Source/PSoC5/CyLib.c **** *   void.
1908:./Generated_Source/PSoC5/CyLib.c **** *
1909:./Generated_Source/PSoC5/CyLib.c **** *
1910:./Generated_Source/PSoC5/CyLib.c **** *******************************************************************************/
1911:./Generated_Source/PSoC5/CyLib.c **** void CyIntDisable(uint8 number)
1912:./Generated_Source/PSoC5/CyLib.c **** {
 2272              	p, #0
 2273              	.LCFI104:
 2274              		@ lr needed for prologue
 2275              		mov	r3, r0
 2276 0000 80B4     		strb	r3, [r7, #7]
 2277              		.loc 1 1946 0
 2278 0002 85B0     		ldr	r3, .L235
 2279              		str	r3, [r7, #12]
 2280 0004 00AF     		.loc 1 1949 0
 2281              		ldrb	r3, [r7, #7]	@ zero_extendqisi2
 2282              		and	r2, r3, #31
 2283 0006 0346     		mov	r3, #1
 2284 0008 FB71     		lsl	r3, r3, r2
1913:./Generated_Source/PSoC5/CyLib.c ****     reg32 * clearReg;
1914:./Generated_Source/PSoC5/CyLib.c **** 
1915:./Generated_Source/PSoC5/CyLib.c **** 
1916:./Generated_Source/PSoC5/CyLib.c ****     /* Get a pointer to the Interrupt enable register. */
1917:./Generated_Source/PSoC5/CyLib.c ****     clearReg = CYINT_CLEAR;
 2285              	ldr	r3, [r7, #12]
 2286 000a 084B     		str	r2, [r3, #0]
 2287 000c FB60     		.loc 1 1950 0
1918:./Generated_Source/PSoC5/CyLib.c **** 
1919:./Generated_Source/PSoC5/CyLib.c ****     /* Enable the interrupt. */
1920:./Generated_Source/PSoC5/CyLib.c ****     *clearReg = 1 << (0x1F & number);
 2288              	d	r7, r7, #20
 2289 000e FB79     		mov	sp, r7
 2290 0010 03F01F02 		pop	{r7}
 2291 0014 4FF00103 		bx	lr
 2292 0018 03FA02F3 	.L236:
 2293 001c 1A46     		.align	2
 2294 001e FB68     	.L235:
ARM GAS  C:\Users\blinky\AppData\Local\Temp/ccwJbaaa.s 			page 75


 2295 0020 1A60     		.word	-536813056
1921:./Generated_Source/PSoC5/CyLib.c **** }
 2296              		.size	CyIntSetPending, .-CyIntSetPending
 2297 0022 07F11407 		.section	.text.CyIntClearPending,"ax",%progbits
 2298 0026 BD46     		.align	2
 2299 0028 80BC     		.global	CyIntClearPending
 2300 002a 7047     		.thumb
 2301              		.thumb_func
 2302              		.type	CyIntClearPending, %function
 2303              	CyIntClearPending:
 2304 002c 80E100E0 	.LFB38:
 2305              		.loc 1 1969 0
 2306              		@ args = 0, pretend = 0, frame = 16
 2307              		@ frame_needed = 1, uses_anonymous_args = 0
 2308              		@ link register save eliminated.
 2309              		push	{r7}
 2310              	.LCFI105:
 2311              		sub	sp, sp, #20
 2312              	.LCFI106:
 2313              		add	r7, sp, #0
 2314              	.LCFI107:
1922:./Generated_Source/PSoC5/CyLib.c **** 
1923:./Generated_Source/PSoC5/CyLib.c **** /*******************************************************************************
1924:./Generated_Source/PSoC5/CyLib.c **** * Function Name: CyIntSetPending
1925:./Generated_Source/PSoC5/CyLib.c **** ********************************************************************************
1926:./Generated_Source/PSoC5/CyLib.c **** * Summary:
1927:./Generated_Source/PSoC5/CyLib.c **** *   Causes the Interrupt to enter the pending state, a software method of
1928:./Generated_Source/PSoC5/CyLib.c **** *   generating the interrupt.
1929:./Generated_Source/PSoC5/CyLib.c **** *
1930:./Generated_Source/PSoC5/CyLib.c **** *
1931:./Generated_Source/PSoC5/CyLib.c **** * Parameters:
1932:./Generated_Source/PSoC5/CyLib.c **** *   number: The number of the interrupt, 0 - 31.
1933:./Generated_Source/PSoC5/CyLib.c **** *
1934:./Generated_Source/PSoC5/CyLib.c **** *
1935:./Generated_Source/PSoC5/CyLib.c **** * Return:
1936:./Generated_Source/PSoC5/CyLib.c **** *   void.
1937:./Generated_Source/PSoC5/CyLib.c **** *
1938:./Generated_Source/PSoC5/CyLib.c **** *
1939:./Generated_Source/PSoC5/CyLib.c **** *******************************************************************************/
1940:./Generated_Source/PSoC5/CyLib.c **** void CyIntSetPending(uint8 number)
1941:./Generated_Source/PSoC5/CyLib.c **** {
 2315              	ologue
 2316              		mov	r3, r0
 2317              		strb	r3, [r7, #7]
 2318              		.loc 1 1974 0
 2319 0000 80B4     		ldr	r3, .L239
 2320              		str	r3, [r7, #12]
 2321 0002 85B0     		.loc 1 1977 0
 2322              		ldrb	r3, [r7, #7]	@ zero_extendqisi2
 2323 0004 00AF     		and	r2, r3, #31
 2324              		mov	r3, #1
 2325              		lsl	r3, r3, r2
 2326 0006 0346     		mov	r2, r3
 2327 0008 FB71     		ldr	r3, [r7, #12]
1942:./Generated_Source/PSoC5/CyLib.c ****     reg32 * pendReg;
1943:./Generated_Source/PSoC5/CyLib.c **** 
1944:./Generated_Source/PSoC5/CyLib.c **** 
ARM GAS  C:\Users\blinky\AppData\Local\Temp/ccwJbaaa.s 			page 76


1945:./Generated_Source/PSoC5/CyLib.c ****     /* Get a pointer to the Interrupt set pending register. */
1946:./Generated_Source/PSoC5/CyLib.c ****     pendReg = CYINT_SET_PEND;
 2328              	 #0]
 2329 000a 084B     		.loc 1 1978 0
 2330 000c FB60     		add	r7, r7, #20
1947:./Generated_Source/PSoC5/CyLib.c **** 
1948:./Generated_Source/PSoC5/CyLib.c ****     /* Enable the interrupt. */
1949:./Generated_Source/PSoC5/CyLib.c ****     *pendReg = 1 << (0x1F & number);
 2331              	v	sp, r7
 2332 000e FB79     		pop	{r7}
 2333 0010 03F01F02 		bx	lr
 2334 0014 4FF00103 	.L240:
 2335 0018 03FA02F3 		.align	2
 2336 001c 1A46     	.L239:
 2337 001e FB68     		.word	-536812928
 2338 0020 1A60     	.LFE38:
1950:./Generated_Source/PSoC5/CyLib.c **** }
 2339              	yIntClearPending, .-CyIntClearPending
 2340 0022 07F11407 		.section	.debug_frame,"",%progbits
 2341 0026 BD46     	.Lframe0:
 2342 0028 80BC     		.4byte	.LECIE0-.LSCIE0
 2343 002a 7047     	.LSCIE0:
 2344              		.4byte	0xffffffff
 2345              		.byte	0x1
 2346              		.ascii	"\000"
 2347 002c 00E200E0 		.uleb128 0x1
 2348              		.sleb128 -4
 2349              		.byte	0xe
 2350              		.byte	0xc
 2351              		.uleb128 0xd
 2352              		.uleb128 0x0
 2353              		.align	2
 2354              	.LECIE0:
 2355              	.LSFDE0:
 2356              		.4byte	.LEFDE0-.LASFDE0
 2357              	.LASFDE0:
1951:./Generated_Source/PSoC5/CyLib.c **** 
1952:./Generated_Source/PSoC5/CyLib.c **** /*******************************************************************************
1953:./Generated_Source/PSoC5/CyLib.c **** * Function Name: CyIntClearPending
1954:./Generated_Source/PSoC5/CyLib.c **** ********************************************************************************
1955:./Generated_Source/PSoC5/CyLib.c **** * Summary:
1956:./Generated_Source/PSoC5/CyLib.c **** *   Clears a pending interrupt.
1957:./Generated_Source/PSoC5/CyLib.c **** *
1958:./Generated_Source/PSoC5/CyLib.c **** *
1959:./Generated_Source/PSoC5/CyLib.c **** * Parameters:
1960:./Generated_Source/PSoC5/CyLib.c **** *   number: The number of the interrupt, 0 - 31.
1961:./Generated_Source/PSoC5/CyLib.c **** *
1962:./Generated_Source/PSoC5/CyLib.c **** *
1963:./Generated_Source/PSoC5/CyLib.c **** * Return:
1964:./Generated_Source/PSoC5/CyLib.c **** *   void.
1965:./Generated_Source/PSoC5/CyLib.c **** *
1966:./Generated_Source/PSoC5/CyLib.c **** *
1967:./Generated_Source/PSoC5/CyLib.c **** *******************************************************************************/
1968:./Generated_Source/PSoC5/CyLib.c **** void CyIntClearPending(uint8 number)
1969:./Generated_Source/PSoC5/CyLib.c **** {
 2358              	4byte	.LFB2
 2359              		.4byte	.LFE2-.LFB2
ARM GAS  C:\Users\blinky\AppData\Local\Temp/ccwJbaaa.s 			page 77


 2360              		.byte	0x4
 2361              		.4byte	.LCFI0-.LFB2
 2362 0000 80B4     		.byte	0xe
 2363              		.uleb128 0x4
 2364 0002 85B0     		.byte	0x4
 2365              		.4byte	.LCFI1-.LCFI0
 2366 0004 00AF     		.byte	0xe
 2367              		.uleb128 0x20
 2368              		.byte	0x87
 2369 0006 0346     		.uleb128 0x1
 2370 0008 FB71     		.byte	0x4
1970:./Generated_Source/PSoC5/CyLib.c ****     reg32 * pendReg;
1971:./Generated_Source/PSoC5/CyLib.c **** 
1972:./Generated_Source/PSoC5/CyLib.c **** 
1973:./Generated_Source/PSoC5/CyLib.c ****     /* Get a pointer to the Interrupt clear pending register. */
1974:./Generated_Source/PSoC5/CyLib.c ****     pendReg = CYINT_CLR_PEND;
 2371              	2-.LCFI1
 2372 000a 084B     		.byte	0xd
 2373 000c FB60     		.uleb128 0x7
1975:./Generated_Source/PSoC5/CyLib.c **** 
1976:./Generated_Source/PSoC5/CyLib.c ****     /* Enable the interrupt. */
1977:./Generated_Source/PSoC5/CyLib.c ****     *pendReg = 1 << (0x1F & number);
 2374              	lign	2
 2375 000e FB79     	.LEFDE0:
 2376 0010 03F01F02 	.LSFDE2:
 2377 0014 4FF00103 		.4byte	.LEFDE2-.LASFDE2
 2378 0018 03FA02F3 	.LASFDE2:
 2379 001c 1A46     		.4byte	.Lframe0
 2380 001e FB68     		.4byte	.LFB3
 2381 0020 1A60     		.4byte	.LFE3-.LFB3
1978:./Generated_Source/PSoC5/CyLib.c **** }
 2382              	x4
 2383 0022 07F11407 		.4byte	.LCFI3-.LFB3
 2384 0026 BD46     		.byte	0xe
 2385 0028 80BC     		.uleb128 0x4
 2386 002a 7047     		.byte	0x4
 2387              		.4byte	.LCFI4-.LCFI3
 2388              		.byte	0xe
 2389              		.uleb128 0x20
 2390 002c 80E200E0 		.byte	0x87
 2391              		.uleb128 0x1
 2392              		.byte	0x4
 2393              		.4byte	.LCFI5-.LCFI4
 2394              		.byte	0xd
 2395 0000 0C000000 		.uleb128 0x7
 2396              		.align	2
 2397 0004 FFFFFFFF 	.LEFDE2:
 2398 0008 01       	.LSFDE4:
 2399 0009 00       		.4byte	.LEFDE4-.LASFDE4
 2400 000a 01       	.LASFDE4:
 2401 000b 7C       		.4byte	.Lframe0
 2402 000c 0E       		.4byte	.LFB4
 2403 000d 0C       		.4byte	.LFE4-.LFB4
 2404 000e 0D       		.byte	0x4
 2405 000f 00       		.4byte	.LCFI6-.LFB4
 2406              		.byte	0xe
 2407              		.uleb128 0x4
ARM GAS  C:\Users\blinky\AppData\Local\Temp/ccwJbaaa.s 			page 78


 2408              		.byte	0x4
 2409 0010 18000000 		.4byte	.LCFI7-.LCFI6
 2410              		.byte	0xe
 2411 0014 00000000 		.uleb128 0x20
 2412 0018 00000000 		.byte	0x87
 2413 001c 3E000000 		.uleb128 0x1
 2414 0020 42       		.byte	0x4
 2415              		.4byte	.LCFI8-.LCFI7
 2416 0021 0E       		.byte	0xd
 2417 0022 04       		.uleb128 0x7
 2418 0023 42       		.align	2
 2419              	.LEFDE4:
 2420 0024 0E       	.LSFDE6:
 2421 0025 20       		.4byte	.LEFDE6-.LASFDE6
 2422 0026 87       	.LASFDE6:
 2423 0027 01       		.4byte	.Lframe0
 2424 0028 42       		.4byte	.LFB5
 2425              		.4byte	.LFE5-.LFB5
 2426 0029 0D       		.byte	0x4
 2427 002a 07       		.4byte	.LCFI9-.LFB5
 2428 002b 00       		.byte	0xe
 2429              		.uleb128 0x4
 2430              		.byte	0x4
 2431 002c 18000000 		.4byte	.LCFI10-.LCFI9
 2432              		.byte	0xe
 2433 0030 00000000 		.uleb128 0x28
 2434 0034 00000000 		.byte	0x87
 2435 0038 4A000000 		.uleb128 0x1
 2436 003c 42       		.byte	0x4
 2437              		.4byte	.LCFI11-.LCFI10
 2438 003d 0E       		.byte	0xd
 2439 003e 04       		.uleb128 0x7
 2440 003f 42       		.align	2
 2441              	.LEFDE6:
 2442 0040 0E       	.LSFDE8:
 2443 0041 20       		.4byte	.LEFDE8-.LASFDE8
 2444 0042 87       	.LASFDE8:
 2445 0043 01       		.4byte	.Lframe0
 2446 0044 42       		.4byte	.LFB6
 2447              		.4byte	.LFE6-.LFB6
 2448 0045 0D       		.byte	0x4
 2449 0046 07       		.4byte	.LCFI12-.LFB6
 2450 0047 00       		.byte	0xe
 2451              		.uleb128 0x4
 2452              		.byte	0x4
 2453 0048 18000000 		.4byte	.LCFI13-.LCFI12
 2454              		.byte	0xe
 2455 004c 00000000 		.uleb128 0x20
 2456 0050 00000000 		.byte	0x87
 2457 0054 9E000000 		.uleb128 0x1
 2458 0058 42       		.byte	0x4
 2459              		.4byte	.LCFI14-.LCFI13
 2460 0059 0E       		.byte	0xd
 2461 005a 04       		.uleb128 0x7
 2462 005b 42       		.align	2
 2463              	.LEFDE8:
 2464 005c 0E       	.LSFDE10:
ARM GAS  C:\Users\blinky\AppData\Local\Temp/ccwJbaaa.s 			page 79


 2465 005d 20       		.4byte	.LEFDE10-.LASFDE10
 2466 005e 87       	.LASFDE10:
 2467 005f 01       		.4byte	.Lframe0
 2468 0060 42       		.4byte	.LFB7
 2469              		.4byte	.LFE7-.LFB7
 2470 0061 0D       		.byte	0x4
 2471 0062 07       		.4byte	.LCFI15-.LFB7
 2472 0063 00       		.byte	0xe
 2473              		.uleb128 0x4
 2474              		.byte	0x4
 2475 0064 18000000 		.4byte	.LCFI16-.LCFI15
 2476              		.byte	0xe
 2477 0068 00000000 		.uleb128 0x18
 2478 006c 00000000 		.byte	0x87
 2479 0070 68000000 		.uleb128 0x1
 2480 0074 42       		.byte	0x4
 2481              		.4byte	.LCFI17-.LCFI16
 2482 0075 0E       		.byte	0xd
 2483 0076 04       		.uleb128 0x7
 2484 0077 42       		.align	2
 2485              	.LEFDE10:
 2486 0078 0E       	.LSFDE12:
 2487 0079 28       		.4byte	.LEFDE12-.LASFDE12
 2488 007a 87       	.LASFDE12:
 2489 007b 01       		.4byte	.Lframe0
 2490 007c 42       		.4byte	.LFB8
 2491              		.4byte	.LFE8-.LFB8
 2492 007d 0D       		.byte	0x4
 2493 007e 07       		.4byte	.LCFI18-.LFB8
 2494 007f 00       		.byte	0xe
 2495              		.uleb128 0x4
 2496              		.byte	0x4
 2497 0080 18000000 		.4byte	.LCFI19-.LCFI18
 2498              		.byte	0xe
 2499 0084 00000000 		.uleb128 0x18
 2500 0088 00000000 		.byte	0x87
 2501 008c 50000000 		.uleb128 0x1
 2502 0090 42       		.byte	0x4
 2503              		.4byte	.LCFI20-.LCFI19
 2504 0091 0E       		.byte	0xd
 2505 0092 04       		.uleb128 0x7
 2506 0093 42       		.align	2
 2507              	.LEFDE12:
 2508 0094 0E       	.LSFDE14:
 2509 0095 20       		.4byte	.LEFDE14-.LASFDE14
 2510 0096 87       	.LASFDE14:
 2511 0097 01       		.4byte	.Lframe0
 2512 0098 42       		.4byte	.LFB9
 2513              		.4byte	.LFE9-.LFB9
 2514 0099 0D       		.byte	0x4
 2515 009a 07       		.4byte	.LCFI21-.LFB9
 2516 009b 00       		.byte	0xe
 2517              		.uleb128 0x4
 2518              		.byte	0x4
 2519 009c 18000000 		.4byte	.LCFI22-.LCFI21
 2520              		.byte	0xe
 2521 00a0 00000000 		.uleb128 0x28
ARM GAS  C:\Users\blinky\AppData\Local\Temp/ccwJbaaa.s 			page 80


 2522 00a4 00000000 		.byte	0x87
 2523 00a8 52000000 		.uleb128 0x1
 2524 00ac 42       		.byte	0x4
 2525              		.4byte	.LCFI23-.LCFI22
 2526 00ad 0E       		.byte	0xd
 2527 00ae 04       		.uleb128 0x7
 2528 00af 42       		.align	2
 2529              	.LEFDE14:
 2530 00b0 0E       	.LSFDE16:
 2531 00b1 18       		.4byte	.LEFDE16-.LASFDE16
 2532 00b2 87       	.LASFDE16:
 2533 00b3 01       		.4byte	.Lframe0
 2534 00b4 42       		.4byte	.LFB10
 2535              		.4byte	.LFE10-.LFB10
 2536 00b5 0D       		.byte	0x4
 2537 00b6 07       		.4byte	.LCFI24-.LFB10
 2538 00b7 00       		.byte	0xe
 2539              		.uleb128 0x4
 2540              		.byte	0x4
 2541 00b8 18000000 		.4byte	.LCFI25-.LCFI24
 2542              		.byte	0xe
 2543 00bc 00000000 		.uleb128 0x18
 2544 00c0 00000000 		.byte	0x87
 2545 00c4 40000000 		.uleb128 0x1
 2546 00c8 42       		.byte	0x4
 2547              		.4byte	.LCFI26-.LCFI25
 2548 00c9 0E       		.byte	0xd
 2549 00ca 04       		.uleb128 0x7
 2550 00cb 42       		.align	2
 2551              	.LEFDE16:
 2552 00cc 0E       	.LSFDE18:
 2553 00cd 18       		.4byte	.LEFDE18-.LASFDE18
 2554 00ce 87       	.LASFDE18:
 2555 00cf 01       		.4byte	.Lframe0
 2556 00d0 42       		.4byte	.LFB11
 2557              		.4byte	.LFE11-.LFB11
 2558 00d1 0D       		.byte	0x4
 2559 00d2 07       		.4byte	.LCFI27-.LFB11
 2560 00d3 00       		.byte	0xe
 2561              		.uleb128 0x4
 2562              		.byte	0x4
 2563 00d4 18000000 		.4byte	.LCFI28-.LCFI27
 2564              		.byte	0xe
 2565 00d8 00000000 		.uleb128 0x18
 2566 00dc 00000000 		.byte	0x87
 2567 00e0 76000000 		.uleb128 0x1
 2568 00e4 42       		.byte	0x4
 2569              		.4byte	.LCFI29-.LCFI28
 2570 00e5 0E       		.byte	0xd
 2571 00e6 04       		.uleb128 0x7
 2572 00e7 42       		.align	2
 2573              	.LEFDE18:
 2574 00e8 0E       	.LSFDE20:
 2575 00e9 28       		.4byte	.LEFDE20-.LASFDE20
 2576 00ea 87       	.LASFDE20:
 2577 00eb 01       		.4byte	.Lframe0
 2578 00ec 42       		.4byte	.LFB12
ARM GAS  C:\Users\blinky\AppData\Local\Temp/ccwJbaaa.s 			page 81


 2579              		.4byte	.LFE12-.LFB12
 2580 00ed 0D       		.byte	0x4
 2581 00ee 07       		.4byte	.LCFI30-.LFB12
 2582 00ef 00       		.byte	0xe
 2583              		.uleb128 0x4
 2584              		.byte	0x4
 2585 00f0 18000000 		.4byte	.LCFI31-.LCFI30
 2586              		.byte	0xe
 2587 00f4 00000000 		.uleb128 0x20
 2588 00f8 00000000 		.byte	0x87
 2589 00fc 3E000000 		.uleb128 0x1
 2590 0100 42       		.byte	0x4
 2591              		.4byte	.LCFI32-.LCFI31
 2592 0101 0E       		.byte	0xd
 2593 0102 04       		.uleb128 0x7
 2594 0103 42       		.align	2
 2595              	.LEFDE20:
 2596 0104 0E       	.LSFDE22:
 2597 0105 18       		.4byte	.LEFDE22-.LASFDE22
 2598 0106 87       	.LASFDE22:
 2599 0107 01       		.4byte	.Lframe0
 2600 0108 42       		.4byte	.LFB13
 2601              		.4byte	.LFE13-.LFB13
 2602 0109 0D       		.byte	0x4
 2603 010a 07       		.4byte	.LCFI33-.LFB13
 2604 010b 00       		.byte	0xe
 2605              		.uleb128 0x4
 2606              		.byte	0x4
 2607 010c 18000000 		.4byte	.LCFI34-.LCFI33
 2608              		.byte	0xe
 2609 0110 00000000 		.uleb128 0x20
 2610 0114 00000000 		.byte	0x87
 2611 0118 60000000 		.uleb128 0x1
 2612 011c 42       		.byte	0x4
 2613              		.4byte	.LCFI35-.LCFI34
 2614 011d 0E       		.byte	0xd
 2615 011e 04       		.uleb128 0x7
 2616 011f 42       		.align	2
 2617              	.LEFDE22:
 2618 0120 0E       	.LSFDE24:
 2619 0121 18       		.4byte	.LEFDE24-.LASFDE24
 2620 0122 87       	.LASFDE24:
 2621 0123 01       		.4byte	.Lframe0
 2622 0124 42       		.4byte	.LFB14
 2623              		.4byte	.LFE14-.LFB14
 2624 0125 0D       		.byte	0x4
 2625 0126 07       		.4byte	.LCFI36-.LFB14
 2626 0127 00       		.byte	0xe
 2627              		.uleb128 0x4
 2628              		.byte	0x4
 2629 0128 18000000 		.4byte	.LCFI37-.LCFI36
 2630              		.byte	0xe
 2631 012c 00000000 		.uleb128 0x18
 2632 0130 00000000 		.byte	0x87
 2633 0134 70000000 		.uleb128 0x1
 2634 0138 42       		.byte	0x4
 2635              		.4byte	.LCFI38-.LCFI37
ARM GAS  C:\Users\blinky\AppData\Local\Temp/ccwJbaaa.s 			page 82


 2636 0139 0E       		.byte	0xd
 2637 013a 04       		.uleb128 0x7
 2638 013b 42       		.align	2
 2639              	.LEFDE24:
 2640 013c 0E       	.LSFDE26:
 2641 013d 20       		.4byte	.LEFDE26-.LASFDE26
 2642 013e 87       	.LASFDE26:
 2643 013f 01       		.4byte	.Lframe0
 2644 0140 42       		.4byte	.LFB15
 2645              		.4byte	.LFE15-.LFB15
 2646 0141 0D       		.byte	0x4
 2647 0142 07       		.4byte	.LCFI39-.LFB15
 2648 0143 00       		.byte	0xe
 2649              		.uleb128 0x4
 2650              		.byte	0x4
 2651 0144 18000000 		.4byte	.LCFI40-.LCFI39
 2652              		.byte	0xe
 2653 0148 00000000 		.uleb128 0x18
 2654 014c 00000000 		.byte	0x87
 2655 0150 6C000000 		.uleb128 0x1
 2656 0154 42       		.byte	0x4
 2657              		.4byte	.LCFI41-.LCFI40
 2658 0155 0E       		.byte	0xd
 2659 0156 04       		.uleb128 0x7
 2660 0157 42       		.align	2
 2661              	.LEFDE26:
 2662 0158 0E       	.LSFDE28:
 2663 0159 20       		.4byte	.LEFDE28-.LASFDE28
 2664 015a 87       	.LASFDE28:
 2665 015b 01       		.4byte	.Lframe0
 2666 015c 42       		.4byte	.LFB16
 2667              		.4byte	.LFE16-.LFB16
 2668 015d 0D       		.byte	0x4
 2669 015e 07       		.4byte	.LCFI42-.LFB16
 2670 015f 00       		.byte	0xe
 2671              		.uleb128 0x8
 2672              		.byte	0x4
 2673 0160 18000000 		.4byte	.LCFI43-.LCFI42
 2674              		.byte	0xe
 2675 0164 00000000 		.uleb128 0x18
 2676 0168 00000000 		.byte	0x8e
 2677 016c 4A000000 		.uleb128 0x1
 2678 0170 42       		.byte	0x87
 2679              		.uleb128 0x2
 2680 0171 0E       		.byte	0x4
 2681 0172 04       		.4byte	.LCFI44-.LCFI43
 2682 0173 42       		.byte	0xd
 2683              		.uleb128 0x7
 2684 0174 0E       		.align	2
 2685 0175 18       	.LEFDE28:
 2686 0176 87       	.LSFDE30:
 2687 0177 01       		.4byte	.LEFDE30-.LASFDE30
 2688 0178 42       	.LASFDE30:
 2689              		.4byte	.Lframe0
 2690 0179 0D       		.4byte	.LFB17
 2691 017a 07       		.4byte	.LFE17-.LFB17
 2692 017b 00       		.byte	0x4
ARM GAS  C:\Users\blinky\AppData\Local\Temp/ccwJbaaa.s 			page 83


 2693              		.4byte	.LCFI45-.LFB17
 2694              		.byte	0xe
 2695 017c 18000000 		.uleb128 0x4
 2696              		.byte	0x4
 2697 0180 00000000 		.4byte	.LCFI46-.LCFI45
 2698 0184 00000000 		.byte	0xe
 2699 0188 40000000 		.uleb128 0x40
 2700 018c 42       		.byte	0x87
 2701              		.uleb128 0x1
 2702 018d 0E       		.byte	0x4
 2703 018e 04       		.4byte	.LCFI47-.LCFI46
 2704 018f 42       		.byte	0xd
 2705              		.uleb128 0x7
 2706 0190 0E       		.align	2
 2707 0191 18       	.LEFDE30:
 2708 0192 87       	.LSFDE32:
 2709 0193 01       		.4byte	.LEFDE32-.LASFDE32
 2710 0194 42       	.LASFDE32:
 2711              		.4byte	.Lframe0
 2712 0195 0D       		.4byte	.LFB18
 2713 0196 07       		.4byte	.LFE18-.LFB18
 2714 0197 00       		.byte	0x4
 2715              		.4byte	.LCFI48-.LFB18
 2716              		.byte	0xe
 2717 0198 1C000000 		.uleb128 0x4
 2718              		.byte	0x87
 2719 019c 00000000 		.uleb128 0x1
 2720 01a0 00000000 		.byte	0x4
 2721 01a4 4E000000 		.4byte	.LCFI49-.LCFI48
 2722 01a8 42       		.byte	0xd
 2723              		.uleb128 0x7
 2724 01a9 0E       		.align	2
 2725 01aa 08       	.LEFDE32:
 2726 01ab 42       	.LSFDE34:
 2727              		.4byte	.LEFDE34-.LASFDE34
 2728 01ac 0E       	.LASFDE34:
 2729 01ad 18       		.4byte	.Lframe0
 2730 01ae 8E       		.4byte	.LFB19
 2731 01af 01       		.4byte	.LFE19-.LFB19
 2732 01b0 87       		.byte	0x4
 2733 01b1 02       		.4byte	.LCFI50-.LFB19
 2734 01b2 42       		.byte	0xe
 2735              		.uleb128 0x4
 2736 01b3 0D       		.byte	0x87
 2737 01b4 07       		.uleb128 0x1
 2738 01b5 000000   		.byte	0x4
 2739              		.4byte	.LCFI51-.LCFI50
 2740              		.byte	0xd
 2741 01b8 18000000 		.uleb128 0x7
 2742              		.align	2
 2743 01bc 00000000 	.LEFDE34:
 2744 01c0 00000000 	.LSFDE36:
 2745 01c4 08020000 		.4byte	.LEFDE36-.LASFDE36
 2746 01c8 42       	.LASFDE36:
 2747              		.4byte	.Lframe0
 2748 01c9 0E       		.4byte	.LFB20
 2749 01ca 04       		.4byte	.LFE20-.LFB20
ARM GAS  C:\Users\blinky\AppData\Local\Temp/ccwJbaaa.s 			page 84


 2750 01cb 42       		.byte	0x4
 2751              		.4byte	.LCFI52-.LFB20
 2752 01cc 0E       		.byte	0xe
 2753 01cd 40       		.uleb128 0x8
 2754 01ce 87       		.byte	0x4
 2755 01cf 01       		.4byte	.LCFI53-.LCFI52
 2756 01d0 42       		.byte	0xe
 2757              		.uleb128 0x10
 2758 01d1 0D       		.byte	0x8e
 2759 01d2 07       		.uleb128 0x1
 2760 01d3 00       		.byte	0x87
 2761              		.uleb128 0x2
 2762              		.byte	0x4
 2763 01d4 14000000 		.4byte	.LCFI54-.LCFI53
 2764              		.byte	0xd
 2765 01d8 00000000 		.uleb128 0x7
 2766 01dc 00000000 		.align	2
 2767 01e0 48000000 	.LEFDE36:
 2768 01e4 42       	.LSFDE38:
 2769              		.4byte	.LEFDE38-.LASFDE38
 2770 01e5 0E       	.LASFDE38:
 2771 01e6 04       		.4byte	.Lframe0
 2772 01e7 87       		.4byte	.LFB21
 2773 01e8 01       		.4byte	.LFE21-.LFB21
 2774 01e9 42       		.byte	0x4
 2775              		.4byte	.LCFI55-.LFB21
 2776 01ea 0D       		.byte	0xe
 2777 01eb 07       		.uleb128 0x8
 2778              		.byte	0x4
 2779              		.4byte	.LCFI56-.LCFI55
 2780              		.byte	0xe
 2781 01ec 14000000 		.uleb128 0x10
 2782              		.byte	0x8e
 2783 01f0 00000000 		.uleb128 0x1
 2784 01f4 00000000 		.byte	0x87
 2785 01f8 4C000000 		.uleb128 0x2
 2786 01fc 42       		.byte	0x4
 2787              		.4byte	.LCFI57-.LCFI56
 2788 01fd 0E       		.byte	0xd
 2789 01fe 04       		.uleb128 0x7
 2790 01ff 87       		.align	2
 2791 0200 01       	.LEFDE38:
 2792 0201 42       	.LSFDE40:
 2793              		.4byte	.LEFDE40-.LASFDE40
 2794 0202 0D       	.LASFDE40:
 2795 0203 07       		.4byte	.Lframe0
 2796              		.4byte	.LFB22
 2797              		.4byte	.LFE22-.LFB22
 2798              		.byte	0x4
 2799 0204 1C000000 		.4byte	.LCFI58-.LFB22
 2800              		.byte	0xe
 2801 0208 00000000 		.uleb128 0x4
 2802 020c 00000000 		.byte	0x4
 2803 0210 44000000 		.4byte	.LCFI59-.LCFI58
 2804 0214 42       		.byte	0xe
 2805              		.uleb128 0x10
 2806 0215 0E       		.byte	0x87
ARM GAS  C:\Users\blinky\AppData\Local\Temp/ccwJbaaa.s 			page 85


 2807 0216 08       		.uleb128 0x1
 2808 0217 42       		.byte	0x4
 2809              		.4byte	.LCFI60-.LCFI59
 2810 0218 0E       		.byte	0xd
 2811 0219 10       		.uleb128 0x7
 2812 021a 8E       		.align	2
 2813 021b 01       	.LEFDE40:
 2814 021c 87       	.LSFDE42:
 2815 021d 02       		.4byte	.LEFDE42-.LASFDE42
 2816 021e 42       	.LASFDE42:
 2817              		.4byte	.Lframe0
 2818 021f 0D       		.4byte	.LFB23
 2819 0220 07       		.4byte	.LFE23-.LFB23
 2820 0221 000000   		.byte	0x4
 2821              		.4byte	.LCFI61-.LFB23
 2822              		.byte	0xe
 2823 0224 1C000000 		.uleb128 0x4
 2824              		.byte	0x4
 2825 0228 00000000 		.4byte	.LCFI62-.LCFI61
 2826 022c 00000000 		.byte	0xe
 2827 0230 28000000 		.uleb128 0x10
 2828 0234 42       		.byte	0x87
 2829              		.uleb128 0x1
 2830 0235 0E       		.byte	0x4
 2831 0236 08       		.4byte	.LCFI63-.LCFI62
 2832 0237 42       		.byte	0xd
 2833              		.uleb128 0x7
 2834 0238 0E       		.align	2
 2835 0239 10       	.LEFDE42:
 2836 023a 8E       	.LSFDE44:
 2837 023b 01       		.4byte	.LEFDE44-.LASFDE44
 2838 023c 87       	.LASFDE44:
 2839 023d 02       		.4byte	.Lframe0
 2840 023e 42       		.4byte	.LFB24
 2841              		.4byte	.LFE24-.LFB24
 2842 023f 0D       		.byte	0x4
 2843 0240 07       		.4byte	.LCFI64-.LFB24
 2844 0241 000000   		.byte	0xe
 2845              		.uleb128 0x4
 2846              		.byte	0x4
 2847 0244 18000000 		.4byte	.LCFI65-.LCFI64
 2848              		.byte	0xe
 2849 0248 00000000 		.uleb128 0x10
 2850 024c 00000000 		.byte	0x87
 2851 0250 84000000 		.uleb128 0x1
 2852 0254 42       		.byte	0x4
 2853              		.4byte	.LCFI66-.LCFI65
 2854 0255 0E       		.byte	0xd
 2855 0256 04       		.uleb128 0x7
 2856 0257 42       		.align	2
 2857              	.LEFDE44:
 2858 0258 0E       	.LSFDE46:
 2859 0259 10       		.4byte	.LEFDE46-.LASFDE46
 2860 025a 87       	.LASFDE46:
 2861 025b 01       		.4byte	.Lframe0
 2862 025c 42       		.4byte	.LFB25
 2863              		.4byte	.LFE25-.LFB25
ARM GAS  C:\Users\blinky\AppData\Local\Temp/ccwJbaaa.s 			page 86


 2864 025d 0D       		.byte	0x4
 2865 025e 07       		.4byte	.LCFI67-.LFB25
 2866 025f 00       		.byte	0xe
 2867              		.uleb128 0x4
 2868              		.byte	0x4
 2869 0260 18000000 		.4byte	.LCFI68-.LCFI67
 2870              		.byte	0xe
 2871 0264 00000000 		.uleb128 0x10
 2872 0268 00000000 		.byte	0x87
 2873 026c 28000000 		.uleb128 0x1
 2874 0270 42       		.byte	0x4
 2875              		.4byte	.LCFI69-.LCFI68
 2876 0271 0E       		.byte	0xd
 2877 0272 04       		.uleb128 0x7
 2878 0273 42       		.align	2
 2879              	.LEFDE46:
 2880 0274 0E       	.LSFDE48:
 2881 0275 10       		.4byte	.LEFDE48-.LASFDE48
 2882 0276 87       	.LASFDE48:
 2883 0277 01       		.4byte	.Lframe0
 2884 0278 42       		.4byte	.LFB26
 2885              		.4byte	.LFE26-.LFB26
 2886 0279 0D       		.byte	0x4
 2887 027a 07       		.4byte	.LCFI70-.LFB26
 2888 027b 00       		.byte	0xe
 2889              		.uleb128 0x4
 2890              		.byte	0x87
 2891 027c 18000000 		.uleb128 0x1
 2892              		.byte	0x4
 2893 0280 00000000 		.4byte	.LCFI71-.LCFI70
 2894 0284 00000000 		.byte	0xd
 2895 0288 1C000000 		.uleb128 0x7
 2896 028c 42       		.align	2
 2897              	.LEFDE48:
 2898 028d 0E       	.LSFDE50:
 2899 028e 04       		.4byte	.LEFDE50-.LASFDE50
 2900 028f 42       	.LASFDE50:
 2901              		.4byte	.Lframe0
 2902 0290 0E       		.4byte	.LFB27
 2903 0291 10       		.4byte	.LFE27-.LFB27
 2904 0292 87       		.byte	0x4
 2905 0293 01       		.4byte	.LCFI72-.LFB27
 2906 0294 42       		.byte	0xe
 2907              		.uleb128 0x4
 2908 0295 0D       		.byte	0x4
 2909 0296 07       		.4byte	.LCFI73-.LCFI72
 2910 0297 00       		.byte	0xe
 2911              		.uleb128 0x10
 2912              		.byte	0x87
 2913 0298 18000000 		.uleb128 0x1
 2914              		.byte	0x4
 2915 029c 00000000 		.4byte	.LCFI74-.LCFI73
 2916 02a0 00000000 		.byte	0xd
 2917 02a4 20000000 		.uleb128 0x7
 2918 02a8 42       		.align	2
 2919              	.LEFDE50:
 2920 02a9 0E       	.LSFDE52:
ARM GAS  C:\Users\blinky\AppData\Local\Temp/ccwJbaaa.s 			page 87


 2921 02aa 04       		.4byte	.LEFDE52-.LASFDE52
 2922 02ab 42       	.LASFDE52:
 2923              		.4byte	.Lframe0
 2924 02ac 0E       		.4byte	.LFB28
 2925 02ad 10       		.4byte	.LFE28-.LFB28
 2926 02ae 87       		.byte	0x4
 2927 02af 01       		.4byte	.LCFI75-.LFB28
 2928 02b0 42       		.byte	0xe
 2929              		.uleb128 0x4
 2930 02b1 0D       		.byte	0x4
 2931 02b2 07       		.4byte	.LCFI76-.LCFI75
 2932 02b3 00       		.byte	0xe
 2933              		.uleb128 0x18
 2934              		.byte	0x87
 2935 02b4 14000000 		.uleb128 0x1
 2936              		.byte	0x4
 2937 02b8 00000000 		.4byte	.LCFI77-.LCFI76
 2938 02bc 00000000 		.byte	0xd
 2939 02c0 18000000 		.uleb128 0x7
 2940 02c4 42       		.align	2
 2941              	.LEFDE52:
 2942 02c5 0E       	.LSFDE54:
 2943 02c6 04       		.4byte	.LEFDE54-.LASFDE54
 2944 02c7 87       	.LASFDE54:
 2945 02c8 01       		.4byte	.Lframe0
 2946 02c9 42       		.4byte	.LFB29
 2947              		.4byte	.LFE29-.LFB29
 2948 02ca 0D       		.byte	0x4
 2949 02cb 07       		.4byte	.LCFI78-.LFB29
 2950              		.byte	0xe
 2951              		.uleb128 0x4
 2952              		.byte	0x4
 2953 02cc 18000000 		.4byte	.LCFI79-.LCFI78
 2954              		.byte	0xe
 2955 02d0 00000000 		.uleb128 0x18
 2956 02d4 00000000 		.byte	0x87
 2957 02d8 30000000 		.uleb128 0x1
 2958 02dc 42       		.byte	0x4
 2959              		.4byte	.LCFI80-.LCFI79
 2960 02dd 0E       		.byte	0xd
 2961 02de 04       		.uleb128 0x7
 2962 02df 42       		.align	2
 2963              	.LEFDE54:
 2964 02e0 0E       	.LSFDE56:
 2965 02e1 10       		.4byte	.LEFDE56-.LASFDE56
 2966 02e2 87       	.LASFDE56:
 2967 02e3 01       		.4byte	.Lframe0
 2968 02e4 42       		.4byte	.LFB30
 2969              		.4byte	.LFE30-.LFB30
 2970 02e5 0D       		.byte	0x4
 2971 02e6 07       		.4byte	.LCFI81-.LFB30
 2972 02e7 00       		.byte	0xe
 2973              		.uleb128 0x4
 2974              		.byte	0x4
 2975 02e8 18000000 		.4byte	.LCFI82-.LCFI81
 2976              		.byte	0xe
 2977 02ec 00000000 		.uleb128 0x18
ARM GAS  C:\Users\blinky\AppData\Local\Temp/ccwJbaaa.s 			page 88


 2978 02f0 00000000 		.byte	0x87
 2979 02f4 44000000 		.uleb128 0x1
 2980 02f8 42       		.byte	0x4
 2981              		.4byte	.LCFI83-.LCFI82
 2982 02f9 0E       		.byte	0xd
 2983 02fa 04       		.uleb128 0x7
 2984 02fb 42       		.align	2
 2985              	.LEFDE56:
 2986 02fc 0E       	.LSFDE58:
 2987 02fd 18       		.4byte	.LEFDE58-.LASFDE58
 2988 02fe 87       	.LASFDE58:
 2989 02ff 01       		.4byte	.Lframe0
 2990 0300 42       		.4byte	.LFB31
 2991              		.4byte	.LFE31-.LFB31
 2992 0301 0D       		.byte	0x4
 2993 0302 07       		.4byte	.LCFI84-.LFB31
 2994 0303 00       		.byte	0xe
 2995              		.uleb128 0x4
 2996              		.byte	0x4
 2997 0304 18000000 		.4byte	.LCFI85-.LCFI84
 2998              		.byte	0xe
 2999 0308 00000000 		.uleb128 0x18
 3000 030c 00000000 		.byte	0x87
 3001 0310 30000000 		.uleb128 0x1
 3002 0314 42       		.byte	0x4
 3003              		.4byte	.LCFI86-.LCFI85
 3004 0315 0E       		.byte	0xd
 3005 0316 04       		.uleb128 0x7
 3006 0317 42       		.align	2
 3007              	.LEFDE58:
 3008 0318 0E       	.LSFDE60:
 3009 0319 18       		.4byte	.LEFDE60-.LASFDE60
 3010 031a 87       	.LASFDE60:
 3011 031b 01       		.4byte	.Lframe0
 3012 031c 42       		.4byte	.LFB32
 3013              		.4byte	.LFE32-.LFB32
 3014 031d 0D       		.byte	0x4
 3015 031e 07       		.4byte	.LCFI87-.LFB32
 3016 031f 00       		.byte	0xe
 3017              		.uleb128 0x4
 3018              		.byte	0x4
 3019 0320 18000000 		.4byte	.LCFI88-.LCFI87
 3020              		.byte	0xe
 3021 0324 00000000 		.uleb128 0x10
 3022 0328 00000000 		.byte	0x87
 3023 032c 48000000 		.uleb128 0x1
 3024 0330 42       		.byte	0x4
 3025              		.4byte	.LCFI89-.LCFI88
 3026 0331 0E       		.byte	0xd
 3027 0332 04       		.uleb128 0x7
 3028 0333 42       		.align	2
 3029              	.LEFDE60:
 3030 0334 0E       	.LSFDE62:
 3031 0335 18       		.4byte	.LEFDE62-.LASFDE62
 3032 0336 87       	.LASFDE62:
 3033 0337 01       		.4byte	.Lframe0
 3034 0338 42       		.4byte	.LFB33
ARM GAS  C:\Users\blinky\AppData\Local\Temp/ccwJbaaa.s 			page 89


 3035              		.4byte	.LFE33-.LFB33
 3036 0339 0D       		.byte	0x4
 3037 033a 07       		.4byte	.LCFI90-.LFB33
 3038 033b 00       		.byte	0xe
 3039              		.uleb128 0x4
 3040              		.byte	0x4
 3041 033c 18000000 		.4byte	.LCFI91-.LCFI90
 3042              		.byte	0xe
 3043 0340 00000000 		.uleb128 0x18
 3044 0344 00000000 		.byte	0x87
 3045 0348 30000000 		.uleb128 0x1
 3046 034c 42       		.byte	0x4
 3047              		.4byte	.LCFI92-.LCFI91
 3048 034d 0E       		.byte	0xd
 3049 034e 04       		.uleb128 0x7
 3050 034f 42       		.align	2
 3051              	.LEFDE62:
 3052 0350 0E       	.LSFDE64:
 3053 0351 18       		.4byte	.LEFDE64-.LASFDE64
 3054 0352 87       	.LASFDE64:
 3055 0353 01       		.4byte	.Lframe0
 3056 0354 42       		.4byte	.LFB34
 3057              		.4byte	.LFE34-.LFB34
 3058 0355 0D       		.byte	0x4
 3059 0356 07       		.4byte	.LCFI93-.LFB34
 3060 0357 00       		.byte	0xe
 3061              		.uleb128 0x4
 3062              		.byte	0x4
 3063 0358 18000000 		.4byte	.LCFI94-.LCFI93
 3064              		.byte	0xe
 3065 035c 00000000 		.uleb128 0x18
 3066 0360 00000000 		.byte	0x87
 3067 0364 2E000000 		.uleb128 0x1
 3068 0368 42       		.byte	0x4
 3069              		.4byte	.LCFI95-.LCFI94
 3070 0369 0E       		.byte	0xd
 3071 036a 04       		.uleb128 0x7
 3072 036b 42       		.align	2
 3073              	.LEFDE64:
 3074 036c 0E       	.LSFDE66:
 3075 036d 10       		.4byte	.LEFDE66-.LASFDE66
 3076 036e 87       	.LASFDE66:
 3077 036f 01       		.4byte	.Lframe0
 3078 0370 42       		.4byte	.LFB35
 3079              		.4byte	.LFE35-.LFB35
 3080 0371 0D       		.byte	0x4
 3081 0372 07       		.4byte	.LCFI96-.LFB35
 3082 0373 00       		.byte	0xe
 3083              		.uleb128 0x4
 3084              		.byte	0x4
 3085 0374 18000000 		.4byte	.LCFI97-.LCFI96
 3086              		.byte	0xe
 3087 0378 00000000 		.uleb128 0x18
 3088 037c 00000000 		.byte	0x87
 3089 0380 2C000000 		.uleb128 0x1
 3090 0384 42       		.byte	0x4
 3091              		.4byte	.LCFI98-.LCFI97
ARM GAS  C:\Users\blinky\AppData\Local\Temp/ccwJbaaa.s 			page 90


 3092 0385 0E       		.byte	0xd
 3093 0386 04       		.uleb128 0x7
 3094 0387 42       		.align	2
 3095              	.LEFDE66:
 3096 0388 0E       	.LSFDE68:
 3097 0389 18       		.4byte	.LEFDE68-.LASFDE68
 3098 038a 87       	.LASFDE68:
 3099 038b 01       		.4byte	.Lframe0
 3100 038c 42       		.4byte	.LFB36
 3101              		.4byte	.LFE36-.LFB36
 3102 038d 0D       		.byte	0x4
 3103 038e 07       		.4byte	.LCFI99-.LFB36
 3104 038f 00       		.byte	0xe
 3105              		.uleb128 0x4
 3106              		.byte	0x4
 3107 0390 18000000 		.4byte	.LCFI100-.LCFI99
 3108              		.byte	0xe
 3109 0394 00000000 		.uleb128 0x18
 3110 0398 00000000 		.byte	0x87
 3111 039c 30000000 		.uleb128 0x1
 3112 03a0 42       		.byte	0x4
 3113              		.4byte	.LCFI101-.LCFI100
 3114 03a1 0E       		.byte	0xd
 3115 03a2 04       		.uleb128 0x7
 3116 03a3 42       		.align	2
 3117              	.LEFDE68:
 3118 03a4 0E       	.LSFDE70:
 3119 03a5 18       		.4byte	.LEFDE70-.LASFDE70
 3120 03a6 87       	.LASFDE70:
 3121 03a7 01       		.4byte	.Lframe0
 3122 03a8 42       		.4byte	.LFB37
 3123              		.4byte	.LFE37-.LFB37
 3124 03a9 0D       		.byte	0x4
 3125 03aa 07       		.4byte	.LCFI102-.LFB37
 3126 03ab 00       		.byte	0xe
 3127              		.uleb128 0x4
 3128              		.byte	0x4
 3129 03ac 18000000 		.4byte	.LCFI103-.LCFI102
 3130              		.byte	0xe
 3131 03b0 00000000 		.uleb128 0x18
 3132 03b4 00000000 		.byte	0x87
 3133 03b8 3C000000 		.uleb128 0x1
 3134 03bc 42       		.byte	0x4
 3135              		.4byte	.LCFI104-.LCFI103
 3136 03bd 0E       		.byte	0xd
 3137 03be 04       		.uleb128 0x7
 3138 03bf 42       		.align	2
 3139              	.LEFDE70:
 3140 03c0 0E       	.LSFDE72:
 3141 03c1 18       		.4byte	.LEFDE72-.LASFDE72
 3142 03c2 87       	.LASFDE72:
 3143 03c3 01       		.4byte	.Lframe0
 3144 03c4 42       		.4byte	.LFB38
 3145              		.4byte	.LFE38-.LFB38
 3146 03c5 0D       		.byte	0x4
 3147 03c6 07       		.4byte	.LCFI105-.LFB38
 3148 03c7 00       		.byte	0xe
ARM GAS  C:\Users\blinky\AppData\Local\Temp/ccwJbaaa.s 			page 91


 3149              		.uleb128 0x4
 3150              		.byte	0x4
 3151 03c8 18000000 		.4byte	.LCFI106-.LCFI105
 3152              		.byte	0xe
 3153 03cc 00000000 		.uleb128 0x18
 3154 03d0 00000000 		.byte	0x87
 3155 03d4 30000000 		.uleb128 0x1
 3156 03d8 42       		.byte	0x4
 3157              		.4byte	.LCFI107-.LCFI106
 3158 03d9 0E       		.byte	0xd
 3159 03da 04       		.uleb128 0x7
 3160 03db 42       		.align	2
 3161              	.LEFDE72:
 3162 03dc 0E       		.text
 3163 03dd 18       	.Letext0:
 3164 03de 87       		.section	.debug_loc,"",%progbits
 3165 03df 01       	.Ldebug_loc0:
 3166 03e0 42       	.LLST0:
 3167              		.4byte	.LFB2
 3168 03e1 0D       		.4byte	.LCFI0
 3169 03e2 07       		.2byte	0x1
 3170 03e3 00       		.byte	0x5d
 3171              		.4byte	.LCFI0
 3172              		.4byte	.LCFI1
 3173 03e4 18000000 		.2byte	0x2
 3174              		.byte	0x7d
 3175 03e8 00000000 		.sleb128 4
 3176 03ec 00000000 		.4byte	.LCFI1
 3177 03f0 30000000 		.4byte	.LCFI2
 3178 03f4 42       		.2byte	0x2
 3179              		.byte	0x7d
 3180 03f5 0E       		.sleb128 32
 3181 03f6 04       		.4byte	.LCFI2
 3182 03f7 42       		.4byte	.LFE2
 3183              		.2byte	0x2
 3184 03f8 0E       		.byte	0x77
 3185 03f9 18       		.sleb128 32
 3186 03fa 87       		.4byte	0x0
 3187 03fb 01       		.4byte	0x0
 3188 03fc 42       	.LLST1:
 3189              		.4byte	.LFB3
 3190 03fd 0D       		.4byte	.LCFI3
 3191 03fe 07       		.2byte	0x1
 3192 03ff 00       		.byte	0x5d
 3193              		.4byte	.LCFI3
 3194              		.4byte	.LCFI4
 3195 0400 18000000 		.2byte	0x2
 3196              		.byte	0x7d
 3197 0404 00000000 		.sleb128 4
 3198 0408 00000000 		.4byte	.LCFI4
 3199 040c 30000000 		.4byte	.LCFI5
 3200 0410 42       		.2byte	0x2
 3201              		.byte	0x7d
 3202 0411 0E       		.sleb128 32
 3203 0412 04       		.4byte	.LCFI5
 3204 0413 42       		.4byte	.LFE3
 3205              		.2byte	0x2
ARM GAS  C:\Users\blinky\AppData\Local\Temp/ccwJbaaa.s 			page 92


 3206 0414 0E       		.byte	0x77
 3207 0415 18       		.sleb128 32
 3208 0416 87       		.4byte	0x0
 3209 0417 01       		.4byte	0x0
 3210 0418 42       	.LLST2:
 3211              		.4byte	.LFB4
 3212 0419 0D       		.4byte	.LCFI6
 3213 041a 07       		.2byte	0x1
 3214 041b 00       		.byte	0x5d
 3215              		.4byte	.LCFI6
 3216              		.4byte	.LCFI7
 3217              		.2byte	0x2
 3218              		.byte	0x7d
 3219              		.sleb128 4
 3220              		.4byte	.LCFI7
 3221 0000 00000000 		.4byte	.LCFI8
 3222 0004 02000000 		.2byte	0x2
 3223 0008 0100     		.byte	0x7d
 3224 000a 5D       		.sleb128 32
 3225 000b 02000000 		.4byte	.LCFI8
 3226 000f 04000000 		.4byte	.LFE4
 3227 0013 0200     		.2byte	0x2
 3228 0015 7D       		.byte	0x77
 3229 0016 04       		.sleb128 32
 3230 0017 04000000 		.4byte	0x0
 3231 001b 06000000 		.4byte	0x0
 3232 001f 0200     	.LLST3:
 3233 0021 7D       		.4byte	.LFB5
 3234 0022 20       		.4byte	.LCFI9
 3235 0023 06000000 		.2byte	0x1
 3236 0027 3E000000 		.byte	0x5d
 3237 002b 0200     		.4byte	.LCFI9
 3238 002d 77       		.4byte	.LCFI10
 3239 002e 20       		.2byte	0x2
 3240 002f 00000000 		.byte	0x7d
 3241 0033 00000000 		.sleb128 4
 3242              		.4byte	.LCFI10
 3243 0037 00000000 		.4byte	.LCFI11
 3244 003b 02000000 		.2byte	0x2
 3245 003f 0100     		.byte	0x7d
 3246 0041 5D       		.sleb128 40
 3247 0042 02000000 		.4byte	.LCFI11
 3248 0046 04000000 		.4byte	.LFE5
 3249 004a 0200     		.2byte	0x2
 3250 004c 7D       		.byte	0x77
 3251 004d 04       		.sleb128 40
 3252 004e 04000000 		.4byte	0x0
 3253 0052 06000000 		.4byte	0x0
 3254 0056 0200     	.LLST4:
 3255 0058 7D       		.4byte	.LFB6
 3256 0059 20       		.4byte	.LCFI12
 3257 005a 06000000 		.2byte	0x1
 3258 005e 4A000000 		.byte	0x5d
 3259 0062 0200     		.4byte	.LCFI12
 3260 0064 77       		.4byte	.LCFI13
 3261 0065 20       		.2byte	0x2
 3262 0066 00000000 		.byte	0x7d
ARM GAS  C:\Users\blinky\AppData\Local\Temp/ccwJbaaa.s 			page 93


 3263 006a 00000000 		.sleb128 4
 3264              		.4byte	.LCFI13
 3265 006e 00000000 		.4byte	.LCFI14
 3266 0072 02000000 		.2byte	0x2
 3267 0076 0100     		.byte	0x7d
 3268 0078 5D       		.sleb128 32
 3269 0079 02000000 		.4byte	.LCFI14
 3270 007d 04000000 		.4byte	.LFE6
 3271 0081 0200     		.2byte	0x2
 3272 0083 7D       		.byte	0x77
 3273 0084 04       		.sleb128 32
 3274 0085 04000000 		.4byte	0x0
 3275 0089 06000000 		.4byte	0x0
 3276 008d 0200     	.LLST5:
 3277 008f 7D       		.4byte	.LFB7
 3278 0090 20       		.4byte	.LCFI15
 3279 0091 06000000 		.2byte	0x1
 3280 0095 9E000000 		.byte	0x5d
 3281 0099 0200     		.4byte	.LCFI15
 3282 009b 77       		.4byte	.LCFI16
 3283 009c 20       		.2byte	0x2
 3284 009d 00000000 		.byte	0x7d
 3285 00a1 00000000 		.sleb128 4
 3286              		.4byte	.LCFI16
 3287 00a5 00000000 		.4byte	.LCFI17
 3288 00a9 02000000 		.2byte	0x2
 3289 00ad 0100     		.byte	0x7d
 3290 00af 5D       		.sleb128 24
 3291 00b0 02000000 		.4byte	.LCFI17
 3292 00b4 04000000 		.4byte	.LFE7
 3293 00b8 0200     		.2byte	0x2
 3294 00ba 7D       		.byte	0x77
 3295 00bb 04       		.sleb128 24
 3296 00bc 04000000 		.4byte	0x0
 3297 00c0 06000000 		.4byte	0x0
 3298 00c4 0200     	.LLST6:
 3299 00c6 7D       		.4byte	.LFB8
 3300 00c7 28       		.4byte	.LCFI18
 3301 00c8 06000000 		.2byte	0x1
 3302 00cc 68000000 		.byte	0x5d
 3303 00d0 0200     		.4byte	.LCFI18
 3304 00d2 77       		.4byte	.LCFI19
 3305 00d3 28       		.2byte	0x2
 3306 00d4 00000000 		.byte	0x7d
 3307 00d8 00000000 		.sleb128 4
 3308              		.4byte	.LCFI19
 3309 00dc 00000000 		.4byte	.LCFI20
 3310 00e0 02000000 		.2byte	0x2
 3311 00e4 0100     		.byte	0x7d
 3312 00e6 5D       		.sleb128 24
 3313 00e7 02000000 		.4byte	.LCFI20
 3314 00eb 04000000 		.4byte	.LFE8
 3315 00ef 0200     		.2byte	0x2
 3316 00f1 7D       		.byte	0x77
 3317 00f2 04       		.sleb128 24
 3318 00f3 04000000 		.4byte	0x0
 3319 00f7 06000000 		.4byte	0x0
ARM GAS  C:\Users\blinky\AppData\Local\Temp/ccwJbaaa.s 			page 94


 3320 00fb 0200     	.LLST7:
 3321 00fd 7D       		.4byte	.LFB9
 3322 00fe 20       		.4byte	.LCFI21
 3323 00ff 06000000 		.2byte	0x1
 3324 0103 50000000 		.byte	0x5d
 3325 0107 0200     		.4byte	.LCFI21
 3326 0109 77       		.4byte	.LCFI22
 3327 010a 20       		.2byte	0x2
 3328 010b 00000000 		.byte	0x7d
 3329 010f 00000000 		.sleb128 4
 3330              		.4byte	.LCFI22
 3331 0113 00000000 		.4byte	.LCFI23
 3332 0117 02000000 		.2byte	0x2
 3333 011b 0100     		.byte	0x7d
 3334 011d 5D       		.sleb128 40
 3335 011e 02000000 		.4byte	.LCFI23
 3336 0122 04000000 		.4byte	.LFE9
 3337 0126 0200     		.2byte	0x2
 3338 0128 7D       		.byte	0x77
 3339 0129 04       		.sleb128 40
 3340 012a 04000000 		.4byte	0x0
 3341 012e 06000000 		.4byte	0x0
 3342 0132 0200     	.LLST8:
 3343 0134 7D       		.4byte	.LFB10
 3344 0135 18       		.4byte	.LCFI24
 3345 0136 06000000 		.2byte	0x1
 3346 013a 52000000 		.byte	0x5d
 3347 013e 0200     		.4byte	.LCFI24
 3348 0140 77       		.4byte	.LCFI25
 3349 0141 18       		.2byte	0x2
 3350 0142 00000000 		.byte	0x7d
 3351 0146 00000000 		.sleb128 4
 3352              		.4byte	.LCFI25
 3353 014a 00000000 		.4byte	.LCFI26
 3354 014e 02000000 		.2byte	0x2
 3355 0152 0100     		.byte	0x7d
 3356 0154 5D       		.sleb128 24
 3357 0155 02000000 		.4byte	.LCFI26
 3358 0159 04000000 		.4byte	.LFE10
 3359 015d 0200     		.2byte	0x2
 3360 015f 7D       		.byte	0x77
 3361 0160 04       		.sleb128 24
 3362 0161 04000000 		.4byte	0x0
 3363 0165 06000000 		.4byte	0x0
 3364 0169 0200     	.LLST9:
 3365 016b 7D       		.4byte	.LFB11
 3366 016c 18       		.4byte	.LCFI27
 3367 016d 06000000 		.2byte	0x1
 3368 0171 40000000 		.byte	0x5d
 3369 0175 0200     		.4byte	.LCFI27
 3370 0177 77       		.4byte	.LCFI28
 3371 0178 18       		.2byte	0x2
 3372 0179 00000000 		.byte	0x7d
 3373 017d 00000000 		.sleb128 4
 3374              		.4byte	.LCFI28
 3375 0181 00000000 		.4byte	.LCFI29
 3376 0185 02000000 		.2byte	0x2
ARM GAS  C:\Users\blinky\AppData\Local\Temp/ccwJbaaa.s 			page 95


 3377 0189 0100     		.byte	0x7d
 3378 018b 5D       		.sleb128 24
 3379 018c 02000000 		.4byte	.LCFI29
 3380 0190 04000000 		.4byte	.LFE11
 3381 0194 0200     		.2byte	0x2
 3382 0196 7D       		.byte	0x77
 3383 0197 04       		.sleb128 24
 3384 0198 04000000 		.4byte	0x0
 3385 019c 06000000 		.4byte	0x0
 3386 01a0 0200     	.LLST10:
 3387 01a2 7D       		.4byte	.LFB12
 3388 01a3 28       		.4byte	.LCFI30
 3389 01a4 06000000 		.2byte	0x1
 3390 01a8 76000000 		.byte	0x5d
 3391 01ac 0200     		.4byte	.LCFI30
 3392 01ae 77       		.4byte	.LCFI31
 3393 01af 28       		.2byte	0x2
 3394 01b0 00000000 		.byte	0x7d
 3395 01b4 00000000 		.sleb128 4
 3396              		.4byte	.LCFI31
 3397 01b8 00000000 		.4byte	.LCFI32
 3398 01bc 02000000 		.2byte	0x2
 3399 01c0 0100     		.byte	0x7d
 3400 01c2 5D       		.sleb128 32
 3401 01c3 02000000 		.4byte	.LCFI32
 3402 01c7 04000000 		.4byte	.LFE12
 3403 01cb 0200     		.2byte	0x2
 3404 01cd 7D       		.byte	0x77
 3405 01ce 04       		.sleb128 32
 3406 01cf 04000000 		.4byte	0x0
 3407 01d3 06000000 		.4byte	0x0
 3408 01d7 0200     	.LLST11:
 3409 01d9 7D       		.4byte	.LFB13
 3410 01da 18       		.4byte	.LCFI33
 3411 01db 06000000 		.2byte	0x1
 3412 01df 3E000000 		.byte	0x5d
 3413 01e3 0200     		.4byte	.LCFI33
 3414 01e5 77       		.4byte	.LCFI34
 3415 01e6 18       		.2byte	0x2
 3416 01e7 00000000 		.byte	0x7d
 3417 01eb 00000000 		.sleb128 4
 3418              		.4byte	.LCFI34
 3419 01ef 00000000 		.4byte	.LCFI35
 3420 01f3 02000000 		.2byte	0x2
 3421 01f7 0100     		.byte	0x7d
 3422 01f9 5D       		.sleb128 32
 3423 01fa 02000000 		.4byte	.LCFI35
 3424 01fe 04000000 		.4byte	.LFE13
 3425 0202 0200     		.2byte	0x2
 3426 0204 7D       		.byte	0x77
 3427 0205 04       		.sleb128 32
 3428 0206 04000000 		.4byte	0x0
 3429 020a 06000000 		.4byte	0x0
 3430 020e 0200     	.LLST12:
 3431 0210 7D       		.4byte	.LFB14
 3432 0211 18       		.4byte	.LCFI36
 3433 0212 06000000 		.2byte	0x1
ARM GAS  C:\Users\blinky\AppData\Local\Temp/ccwJbaaa.s 			page 96


 3434 0216 60000000 		.byte	0x5d
 3435 021a 0200     		.4byte	.LCFI36
 3436 021c 77       		.4byte	.LCFI37
 3437 021d 18       		.2byte	0x2
 3438 021e 00000000 		.byte	0x7d
 3439 0222 00000000 		.sleb128 4
 3440              		.4byte	.LCFI37
 3441 0226 00000000 		.4byte	.LCFI38
 3442 022a 02000000 		.2byte	0x2
 3443 022e 0100     		.byte	0x7d
 3444 0230 5D       		.sleb128 24
 3445 0231 02000000 		.4byte	.LCFI38
 3446 0235 04000000 		.4byte	.LFE14
 3447 0239 0200     		.2byte	0x2
 3448 023b 7D       		.byte	0x77
 3449 023c 04       		.sleb128 24
 3450 023d 04000000 		.4byte	0x0
 3451 0241 06000000 		.4byte	0x0
 3452 0245 0200     	.LLST13:
 3453 0247 7D       		.4byte	.LFB15
 3454 0248 20       		.4byte	.LCFI39
 3455 0249 06000000 		.2byte	0x1
 3456 024d 70000000 		.byte	0x5d
 3457 0251 0200     		.4byte	.LCFI39
 3458 0253 77       		.4byte	.LCFI40
 3459 0254 20       		.2byte	0x2
 3460 0255 00000000 		.byte	0x7d
 3461 0259 00000000 		.sleb128 4
 3462              		.4byte	.LCFI40
 3463 025d 00000000 		.4byte	.LCFI41
 3464 0261 02000000 		.2byte	0x2
 3465 0265 0100     		.byte	0x7d
 3466 0267 5D       		.sleb128 24
 3467 0268 02000000 		.4byte	.LCFI41
 3468 026c 04000000 		.4byte	.LFE15
 3469 0270 0200     		.2byte	0x2
 3470 0272 7D       		.byte	0x77
 3471 0273 04       		.sleb128 24
 3472 0274 04000000 		.4byte	0x0
 3473 0278 06000000 		.4byte	0x0
 3474 027c 0200     	.LLST14:
 3475 027e 7D       		.4byte	.LFB16
 3476 027f 20       		.4byte	.LCFI42
 3477 0280 06000000 		.2byte	0x1
 3478 0284 6C000000 		.byte	0x5d
 3479 0288 0200     		.4byte	.LCFI42
 3480 028a 77       		.4byte	.LCFI43
 3481 028b 20       		.2byte	0x2
 3482 028c 00000000 		.byte	0x7d
 3483 0290 00000000 		.sleb128 8
 3484              		.4byte	.LCFI43
 3485 0294 00000000 		.4byte	.LCFI44
 3486 0298 02000000 		.2byte	0x2
 3487 029c 0100     		.byte	0x7d
 3488 029e 5D       		.sleb128 24
 3489 029f 02000000 		.4byte	.LCFI44
 3490 02a3 04000000 		.4byte	.LFE16
ARM GAS  C:\Users\blinky\AppData\Local\Temp/ccwJbaaa.s 			page 97


 3491 02a7 0200     		.2byte	0x2
 3492 02a9 7D       		.byte	0x77
 3493 02aa 04       		.sleb128 24
 3494 02ab 04000000 		.4byte	0x0
 3495 02af 06000000 		.4byte	0x0
 3496 02b3 0200     	.LLST15:
 3497 02b5 7D       		.4byte	.LFB17
 3498 02b6 18       		.4byte	.LCFI45
 3499 02b7 06000000 		.2byte	0x1
 3500 02bb 4A000000 		.byte	0x5d
 3501 02bf 0200     		.4byte	.LCFI45
 3502 02c1 77       		.4byte	.LCFI46
 3503 02c2 18       		.2byte	0x2
 3504 02c3 00000000 		.byte	0x7d
 3505 02c7 00000000 		.sleb128 4
 3506              		.4byte	.LCFI46
 3507 02cb 00000000 		.4byte	.LCFI47
 3508 02cf 02000000 		.2byte	0x3
 3509 02d3 0100     		.byte	0x7d
 3510 02d5 5D       		.sleb128 64
 3511 02d6 02000000 		.4byte	.LCFI47
 3512 02da 04000000 		.4byte	.LFE17
 3513 02de 0200     		.2byte	0x3
 3514 02e0 7D       		.byte	0x77
 3515 02e1 04       		.sleb128 64
 3516 02e2 04000000 		.4byte	0x0
 3517 02e6 06000000 		.4byte	0x0
 3518 02ea 0200     	.LLST16:
 3519 02ec 7D       		.4byte	.LFB18
 3520 02ed 18       		.4byte	.LCFI48
 3521 02ee 06000000 		.2byte	0x1
 3522 02f2 40000000 		.byte	0x5d
 3523 02f6 0200     		.4byte	.LCFI48
 3524 02f8 77       		.4byte	.LCFI49
 3525 02f9 18       		.2byte	0x2
 3526 02fa 00000000 		.byte	0x7d
 3527 02fe 00000000 		.sleb128 4
 3528              		.4byte	.LCFI49
 3529 0302 00000000 		.4byte	.LFE18
 3530 0306 02000000 		.2byte	0x2
 3531 030a 0100     		.byte	0x77
 3532 030c 5D       		.sleb128 4
 3533 030d 02000000 		.4byte	0x0
 3534 0311 04000000 		.4byte	0x0
 3535 0315 0200     	.LLST17:
 3536 0317 7D       		.4byte	.LFB19
 3537 0318 08       		.4byte	.LCFI50
 3538 0319 04000000 		.2byte	0x1
 3539 031d 06000000 		.byte	0x5d
 3540 0321 0200     		.4byte	.LCFI50
 3541 0323 7D       		.4byte	.LCFI51
 3542 0324 18       		.2byte	0x2
 3543 0325 06000000 		.byte	0x7d
 3544 0329 4E000000 		.sleb128 4
 3545 032d 0200     		.4byte	.LCFI51
 3546 032f 77       		.4byte	.LFE19
 3547 0330 18       		.2byte	0x2
ARM GAS  C:\Users\blinky\AppData\Local\Temp/ccwJbaaa.s 			page 98


 3548 0331 00000000 		.byte	0x77
 3549 0335 00000000 		.sleb128 4
 3550              		.4byte	0x0
 3551 0339 00000000 		.4byte	0x0
 3552 033d 02000000 	.LLST18:
 3553 0341 0100     		.4byte	.LFB20
 3554 0343 5D       		.4byte	.LCFI52
 3555 0344 02000000 		.2byte	0x1
 3556 0348 04000000 		.byte	0x5d
 3557 034c 0200     		.4byte	.LCFI52
 3558 034e 7D       		.4byte	.LCFI53
 3559 034f 04       		.2byte	0x2
 3560 0350 04000000 		.byte	0x7d
 3561 0354 06000000 		.sleb128 8
 3562 0358 0300     		.4byte	.LCFI53
 3563 035a 7D       		.4byte	.LCFI54
 3564 035b C000     		.2byte	0x2
 3565 035d 06000000 		.byte	0x7d
 3566 0361 08020000 		.sleb128 16
 3567 0365 0300     		.4byte	.LCFI54
 3568 0367 77       		.4byte	.LFE20
 3569 0368 C000     		.2byte	0x2
 3570 036a 00000000 		.byte	0x77
 3571 036e 00000000 		.sleb128 16
 3572              		.4byte	0x0
 3573 0372 00000000 		.4byte	0x0
 3574 0376 02000000 	.LLST19:
 3575 037a 0100     		.4byte	.LFB21
 3576 037c 5D       		.4byte	.LCFI55
 3577 037d 02000000 		.2byte	0x1
 3578 0381 04000000 		.byte	0x5d
 3579 0385 0200     		.4byte	.LCFI55
 3580 0387 7D       		.4byte	.LCFI56
 3581 0388 04       		.2byte	0x2
 3582 0389 04000000 		.byte	0x7d
 3583 038d 48000000 		.sleb128 8
 3584 0391 0200     		.4byte	.LCFI56
 3585 0393 77       		.4byte	.LCFI57
 3586 0394 04       		.2byte	0x2
 3587 0395 00000000 		.byte	0x7d
 3588 0399 00000000 		.sleb128 16
 3589              		.4byte	.LCFI57
 3590 039d 00000000 		.4byte	.LFE21
 3591 03a1 02000000 		.2byte	0x2
 3592 03a5 0100     		.byte	0x77
 3593 03a7 5D       		.sleb128 16
 3594 03a8 02000000 		.4byte	0x0
 3595 03ac 04000000 		.4byte	0x0
 3596 03b0 0200     	.LLST20:
 3597 03b2 7D       		.4byte	.LFB22
 3598 03b3 04       		.4byte	.LCFI58
 3599 03b4 04000000 		.2byte	0x1
 3600 03b8 4C000000 		.byte	0x5d
 3601 03bc 0200     		.4byte	.LCFI58
 3602 03be 77       		.4byte	.LCFI59
 3603 03bf 04       		.2byte	0x2
 3604 03c0 00000000 		.byte	0x7d
ARM GAS  C:\Users\blinky\AppData\Local\Temp/ccwJbaaa.s 			page 99


 3605 03c4 00000000 		.sleb128 4
 3606              		.4byte	.LCFI59
 3607 03c8 00000000 		.4byte	.LCFI60
 3608 03cc 02000000 		.2byte	0x2
 3609 03d0 0100     		.byte	0x7d
 3610 03d2 5D       		.sleb128 16
 3611 03d3 02000000 		.4byte	.LCFI60
 3612 03d7 04000000 		.4byte	.LFE22
 3613 03db 0200     		.2byte	0x2
 3614 03dd 7D       		.byte	0x77
 3615 03de 08       		.sleb128 16
 3616 03df 04000000 		.4byte	0x0
 3617 03e3 06000000 		.4byte	0x0
 3618 03e7 0200     	.LLST21:
 3619 03e9 7D       		.4byte	.LFB23
 3620 03ea 10       		.4byte	.LCFI61
 3621 03eb 06000000 		.2byte	0x1
 3622 03ef 44000000 		.byte	0x5d
 3623 03f3 0200     		.4byte	.LCFI61
 3624 03f5 77       		.4byte	.LCFI62
 3625 03f6 10       		.2byte	0x2
 3626 03f7 00000000 		.byte	0x7d
 3627 03fb 00000000 		.sleb128 4
 3628              		.4byte	.LCFI62
 3629 03ff 00000000 		.4byte	.LCFI63
 3630 0403 02000000 		.2byte	0x2
 3631 0407 0100     		.byte	0x7d
 3632 0409 5D       		.sleb128 16
 3633 040a 02000000 		.4byte	.LCFI63
 3634 040e 04000000 		.4byte	.LFE23
 3635 0412 0200     		.2byte	0x2
 3636 0414 7D       		.byte	0x77
 3637 0415 08       		.sleb128 16
 3638 0416 04000000 		.4byte	0x0
 3639 041a 06000000 		.4byte	0x0
 3640 041e 0200     	.LLST22:
 3641 0420 7D       		.4byte	.LFB24
 3642 0421 10       		.4byte	.LCFI64
 3643 0422 06000000 		.2byte	0x1
 3644 0426 28000000 		.byte	0x5d
 3645 042a 0200     		.4byte	.LCFI64
 3646 042c 77       		.4byte	.LCFI65
 3647 042d 10       		.2byte	0x2
 3648 042e 00000000 		.byte	0x7d
 3649 0432 00000000 		.sleb128 4
 3650              		.4byte	.LCFI65
 3651 0436 00000000 		.4byte	.LCFI66
 3652 043a 02000000 		.2byte	0x2
 3653 043e 0100     		.byte	0x7d
 3654 0440 5D       		.sleb128 16
 3655 0441 02000000 		.4byte	.LCFI66
 3656 0445 04000000 		.4byte	.LFE24
 3657 0449 0200     		.2byte	0x2
 3658 044b 7D       		.byte	0x77
 3659 044c 04       		.sleb128 16
 3660 044d 04000000 		.4byte	0x0
 3661 0451 06000000 		.4byte	0x0
ARM GAS  C:\Users\blinky\AppData\Local\Temp/ccwJbaaa.s 			page 100


 3662 0455 0200     	.LLST23:
 3663 0457 7D       		.4byte	.LFB25
 3664 0458 10       		.4byte	.LCFI67
 3665 0459 06000000 		.2byte	0x1
 3666 045d 84000000 		.byte	0x5d
 3667 0461 0200     		.4byte	.LCFI67
 3668 0463 77       		.4byte	.LCFI68
 3669 0464 10       		.2byte	0x2
 3670 0465 00000000 		.byte	0x7d
 3671 0469 00000000 		.sleb128 4
 3672              		.4byte	.LCFI68
 3673 046d 00000000 		.4byte	.LCFI69
 3674 0471 02000000 		.2byte	0x2
 3675 0475 0100     		.byte	0x7d
 3676 0477 5D       		.sleb128 16
 3677 0478 02000000 		.4byte	.LCFI69
 3678 047c 04000000 		.4byte	.LFE25
 3679 0480 0200     		.2byte	0x2
 3680 0482 7D       		.byte	0x77
 3681 0483 04       		.sleb128 16
 3682 0484 04000000 		.4byte	0x0
 3683 0488 06000000 		.4byte	0x0
 3684 048c 0200     	.LLST24:
 3685 048e 7D       		.4byte	.LFB26
 3686 048f 10       		.4byte	.LCFI70
 3687 0490 06000000 		.2byte	0x1
 3688 0494 28000000 		.byte	0x5d
 3689 0498 0200     		.4byte	.LCFI70
 3690 049a 77       		.4byte	.LCFI71
 3691 049b 10       		.2byte	0x2
 3692 049c 00000000 		.byte	0x7d
 3693 04a0 00000000 		.sleb128 4
 3694              		.4byte	.LCFI71
 3695 04a4 00000000 		.4byte	.LFE26
 3696 04a8 02000000 		.2byte	0x2
 3697 04ac 0100     		.byte	0x77
 3698 04ae 5D       		.sleb128 4
 3699 04af 02000000 		.4byte	0x0
 3700 04b3 04000000 		.4byte	0x0
 3701 04b7 0200     	.LLST25:
 3702 04b9 7D       		.4byte	.LFB27
 3703 04ba 04       		.4byte	.LCFI72
 3704 04bb 04000000 		.2byte	0x1
 3705 04bf 06000000 		.byte	0x5d
 3706 04c3 0200     		.4byte	.LCFI72
 3707 04c5 7D       		.4byte	.LCFI73
 3708 04c6 10       		.2byte	0x2
 3709 04c7 06000000 		.byte	0x7d
 3710 04cb 1C000000 		.sleb128 4
 3711 04cf 0200     		.4byte	.LCFI73
 3712 04d1 77       		.4byte	.LCFI74
 3713 04d2 10       		.2byte	0x2
 3714 04d3 00000000 		.byte	0x7d
 3715 04d7 00000000 		.sleb128 16
 3716              		.4byte	.LCFI74
 3717 04db 00000000 		.4byte	.LFE27
 3718 04df 02000000 		.2byte	0x2
ARM GAS  C:\Users\blinky\AppData\Local\Temp/ccwJbaaa.s 			page 101


 3719 04e3 0100     		.byte	0x77
 3720 04e5 5D       		.sleb128 16
 3721 04e6 02000000 		.4byte	0x0
 3722 04ea 04000000 		.4byte	0x0
 3723 04ee 0200     	.LLST26:
 3724 04f0 7D       		.4byte	.LFB28
 3725 04f1 04       		.4byte	.LCFI75
 3726 04f2 04000000 		.2byte	0x1
 3727 04f6 06000000 		.byte	0x5d
 3728 04fa 0200     		.4byte	.LCFI75
 3729 04fc 7D       		.4byte	.LCFI76
 3730 04fd 10       		.2byte	0x2
 3731 04fe 06000000 		.byte	0x7d
 3732 0502 20000000 		.sleb128 4
 3733 0506 0200     		.4byte	.LCFI76
 3734 0508 77       		.4byte	.LCFI77
 3735 0509 10       		.2byte	0x2
 3736 050a 00000000 		.byte	0x7d
 3737 050e 00000000 		.sleb128 24
 3738              		.4byte	.LCFI77
 3739 0512 00000000 		.4byte	.LFE28
 3740 0516 02000000 		.2byte	0x2
 3741 051a 0100     		.byte	0x77
 3742 051c 5D       		.sleb128 24
 3743 051d 02000000 		.4byte	0x0
 3744 0521 04000000 		.4byte	0x0
 3745 0525 0200     	.LLST27:
 3746 0527 7D       		.4byte	.LFB29
 3747 0528 04       		.4byte	.LCFI78
 3748 0529 04000000 		.2byte	0x1
 3749 052d 18000000 		.byte	0x5d
 3750 0531 0200     		.4byte	.LCFI78
 3751 0533 77       		.4byte	.LCFI79
 3752 0534 04       		.2byte	0x2
 3753 0535 00000000 		.byte	0x7d
 3754 0539 00000000 		.sleb128 4
 3755              		.4byte	.LCFI79
 3756 053d 00000000 		.4byte	.LCFI80
 3757 0541 02000000 		.2byte	0x2
 3758 0545 0100     		.byte	0x7d
 3759 0547 5D       		.sleb128 24
 3760 0548 02000000 		.4byte	.LCFI80
 3761 054c 04000000 		.4byte	.LFE29
 3762 0550 0200     		.2byte	0x2
 3763 0552 7D       		.byte	0x77
 3764 0553 04       		.sleb128 24
 3765 0554 04000000 		.4byte	0x0
 3766 0558 06000000 		.4byte	0x0
 3767 055c 0200     	.LLST28:
 3768 055e 7D       		.4byte	.LFB30
 3769 055f 10       		.4byte	.LCFI81
 3770 0560 06000000 		.2byte	0x1
 3771 0564 30000000 		.byte	0x5d
 3772 0568 0200     		.4byte	.LCFI81
 3773 056a 77       		.4byte	.LCFI82
 3774 056b 10       		.2byte	0x2
 3775 056c 00000000 		.byte	0x7d
ARM GAS  C:\Users\blinky\AppData\Local\Temp/ccwJbaaa.s 			page 102


 3776 0570 00000000 		.sleb128 4
 3777              		.4byte	.LCFI82
 3778 0574 00000000 		.4byte	.LCFI83
 3779 0578 02000000 		.2byte	0x2
 3780 057c 0100     		.byte	0x7d
 3781 057e 5D       		.sleb128 24
 3782 057f 02000000 		.4byte	.LCFI83
 3783 0583 04000000 		.4byte	.LFE30
 3784 0587 0200     		.2byte	0x2
 3785 0589 7D       		.byte	0x77
 3786 058a 04       		.sleb128 24
 3787 058b 04000000 		.4byte	0x0
 3788 058f 06000000 		.4byte	0x0
 3789 0593 0200     	.LLST29:
 3790 0595 7D       		.4byte	.LFB31
 3791 0596 18       		.4byte	.LCFI84
 3792 0597 06000000 		.2byte	0x1
 3793 059b 44000000 		.byte	0x5d
 3794 059f 0200     		.4byte	.LCFI84
 3795 05a1 77       		.4byte	.LCFI85
 3796 05a2 18       		.2byte	0x2
 3797 05a3 00000000 		.byte	0x7d
 3798 05a7 00000000 		.sleb128 4
 3799              		.4byte	.LCFI85
 3800 05ab 00000000 		.4byte	.LCFI86
 3801 05af 02000000 		.2byte	0x2
 3802 05b3 0100     		.byte	0x7d
 3803 05b5 5D       		.sleb128 24
 3804 05b6 02000000 		.4byte	.LCFI86
 3805 05ba 04000000 		.4byte	.LFE31
 3806 05be 0200     		.2byte	0x2
 3807 05c0 7D       		.byte	0x77
 3808 05c1 04       		.sleb128 24
 3809 05c2 04000000 		.4byte	0x0
 3810 05c6 06000000 		.4byte	0x0
 3811 05ca 0200     	.LLST30:
 3812 05cc 7D       		.4byte	.LFB32
 3813 05cd 18       		.4byte	.LCFI87
 3814 05ce 06000000 		.2byte	0x1
 3815 05d2 30000000 		.byte	0x5d
 3816 05d6 0200     		.4byte	.LCFI87
 3817 05d8 77       		.4byte	.LCFI88
 3818 05d9 18       		.2byte	0x2
 3819 05da 00000000 		.byte	0x7d
 3820 05de 00000000 		.sleb128 4
 3821              		.4byte	.LCFI88
 3822 05e2 00000000 		.4byte	.LCFI89
 3823 05e6 02000000 		.2byte	0x2
 3824 05ea 0100     		.byte	0x7d
 3825 05ec 5D       		.sleb128 16
 3826 05ed 02000000 		.4byte	.LCFI89
 3827 05f1 04000000 		.4byte	.LFE32
 3828 05f5 0200     		.2byte	0x2
 3829 05f7 7D       		.byte	0x77
 3830 05f8 04       		.sleb128 16
 3831 05f9 04000000 		.4byte	0x0
 3832 05fd 06000000 		.4byte	0x0
ARM GAS  C:\Users\blinky\AppData\Local\Temp/ccwJbaaa.s 			page 103


 3833 0601 0200     	.LLST31:
 3834 0603 7D       		.4byte	.LFB33
 3835 0604 18       		.4byte	.LCFI90
 3836 0605 06000000 		.2byte	0x1
 3837 0609 48000000 		.byte	0x5d
 3838 060d 0200     		.4byte	.LCFI90
 3839 060f 77       		.4byte	.LCFI91
 3840 0610 18       		.2byte	0x2
 3841 0611 00000000 		.byte	0x7d
 3842 0615 00000000 		.sleb128 4
 3843              		.4byte	.LCFI91
 3844 0619 00000000 		.4byte	.LCFI92
 3845 061d 02000000 		.2byte	0x2
 3846 0621 0100     		.byte	0x7d
 3847 0623 5D       		.sleb128 24
 3848 0624 02000000 		.4byte	.LCFI92
 3849 0628 04000000 		.4byte	.LFE33
 3850 062c 0200     		.2byte	0x2
 3851 062e 7D       		.byte	0x77
 3852 062f 04       		.sleb128 24
 3853 0630 04000000 		.4byte	0x0
 3854 0634 06000000 		.4byte	0x0
 3855 0638 0200     	.LLST32:
 3856 063a 7D       		.4byte	.LFB34
 3857 063b 18       		.4byte	.LCFI93
 3858 063c 06000000 		.2byte	0x1
 3859 0640 30000000 		.byte	0x5d
 3860 0644 0200     		.4byte	.LCFI93
 3861 0646 77       		.4byte	.LCFI94
 3862 0647 18       		.2byte	0x2
 3863 0648 00000000 		.byte	0x7d
 3864 064c 00000000 		.sleb128 4
 3865              		.4byte	.LCFI94
 3866 0650 00000000 		.4byte	.LCFI95
 3867 0654 02000000 		.2byte	0x2
 3868 0658 0100     		.byte	0x7d
 3869 065a 5D       		.sleb128 24
 3870 065b 02000000 		.4byte	.LCFI95
 3871 065f 04000000 		.4byte	.LFE34
 3872 0663 0200     		.2byte	0x2
 3873 0665 7D       		.byte	0x77
 3874 0666 04       		.sleb128 24
 3875 0667 04000000 		.4byte	0x0
 3876 066b 06000000 		.4byte	0x0
 3877 066f 0200     	.LLST33:
 3878 0671 7D       		.4byte	.LFB35
 3879 0672 10       		.4byte	.LCFI96
 3880 0673 06000000 		.2byte	0x1
 3881 0677 2E000000 		.byte	0x5d
 3882 067b 0200     		.4byte	.LCFI96
 3883 067d 77       		.4byte	.LCFI97
 3884 067e 10       		.2byte	0x2
 3885 067f 00000000 		.byte	0x7d
 3886 0683 00000000 		.sleb128 4
 3887              		.4byte	.LCFI97
 3888 0687 00000000 		.4byte	.LCFI98
 3889 068b 02000000 		.2byte	0x2
ARM GAS  C:\Users\blinky\AppData\Local\Temp/ccwJbaaa.s 			page 104


 3890 068f 0100     		.byte	0x7d
 3891 0691 5D       		.sleb128 24
 3892 0692 02000000 		.4byte	.LCFI98
 3893 0696 04000000 		.4byte	.LFE35
 3894 069a 0200     		.2byte	0x2
 3895 069c 7D       		.byte	0x77
 3896 069d 04       		.sleb128 24
 3897 069e 04000000 		.4byte	0x0
 3898 06a2 06000000 		.4byte	0x0
 3899 06a6 0200     	.LLST34:
 3900 06a8 7D       		.4byte	.LFB36
 3901 06a9 18       		.4byte	.LCFI99
 3902 06aa 06000000 		.2byte	0x1
 3903 06ae 2C000000 		.byte	0x5d
 3904 06b2 0200     		.4byte	.LCFI99
 3905 06b4 77       		.4byte	.LCFI100
 3906 06b5 18       		.2byte	0x2
 3907 06b6 00000000 		.byte	0x7d
 3908 06ba 00000000 		.sleb128 4
 3909              		.4byte	.LCFI100
 3910 06be 00000000 		.4byte	.LCFI101
 3911 06c2 02000000 		.2byte	0x2
 3912 06c6 0100     		.byte	0x7d
 3913 06c8 5D       		.sleb128 24
 3914 06c9 02000000 		.4byte	.LCFI101
 3915 06cd 04000000 		.4byte	.LFE36
 3916 06d1 0200     		.2byte	0x2
 3917 06d3 7D       		.byte	0x77
 3918 06d4 04       		.sleb128 24
 3919 06d5 04000000 		.4byte	0x0
 3920 06d9 06000000 		.4byte	0x0
 3921 06dd 0200     	.LLST35:
 3922 06df 7D       		.4byte	.LFB37
 3923 06e0 18       		.4byte	.LCFI102
 3924 06e1 06000000 		.2byte	0x1
 3925 06e5 30000000 		.byte	0x5d
 3926 06e9 0200     		.4byte	.LCFI102
 3927 06eb 77       		.4byte	.LCFI103
 3928 06ec 18       		.2byte	0x2
 3929 06ed 00000000 		.byte	0x7d
 3930 06f1 00000000 		.sleb128 4
 3931              		.4byte	.LCFI103
 3932 06f5 00000000 		.4byte	.LCFI104
 3933 06f9 02000000 		.2byte	0x2
 3934 06fd 0100     		.byte	0x7d
 3935 06ff 5D       		.sleb128 24
 3936 0700 02000000 		.4byte	.LCFI104
 3937 0704 04000000 		.4byte	.LFE37
 3938 0708 0200     		.2byte	0x2
 3939 070a 7D       		.byte	0x77
 3940 070b 04       		.sleb128 24
 3941 070c 04000000 		.4byte	0x0
 3942 0710 06000000 		.4byte	0x0
 3943 0714 0200     	.LLST36:
 3944 0716 7D       		.4byte	.LFB38
 3945 0717 18       		.4byte	.LCFI105
 3946 0718 06000000 		.2byte	0x1
ARM GAS  C:\Users\blinky\AppData\Local\Temp/ccwJbaaa.s 			page 105


 3947 071c 3C000000 		.byte	0x5d
 3948 0720 0200     		.4byte	.LCFI105
 3949 0722 77       		.4byte	.LCFI106
 3950 0723 18       		.2byte	0x2
 3951 0724 00000000 		.byte	0x7d
 3952 0728 00000000 		.sleb128 4
 3953              		.4byte	.LCFI106
 3954 072c 00000000 		.4byte	.LCFI107
 3955 0730 02000000 		.2byte	0x2
 3956 0734 0100     		.byte	0x7d
 3957 0736 5D       		.sleb128 24
 3958 0737 02000000 		.4byte	.LCFI107
 3959 073b 04000000 		.4byte	.LFE38
 3960 073f 0200     		.2byte	0x2
 3961 0741 7D       		.byte	0x77
 3962 0742 04       		.sleb128 24
 3963 0743 04000000 		.4byte	0x0
 3964 0747 06000000 		.4byte	0x0
 3965 074b 0200     		.file 2 "./Generated_Source/PSoC5/cytypes.h"
 3966 074d 7D       		.file 3 "c:\\program files\\cypress\\psoc creator\\1.0\\psoc creator\\import\\gnu_cs\\cm3\\4.2\\bi
 3967 074e 18       		.section	.debug_info
 3968 074f 06000000 		.4byte	0xdc7
 3969 0753 30000000 		.2byte	0x2
 3970 0757 0200     		.4byte	.Ldebug_abbrev0
 3971 0759 77       		.byte	0x4
 3972 075a 18       		.uleb128 0x1
 3973 075b 00000000 		.ascii	"GNU C 4.2.1\000"
 3974 075f 00000000 		.byte	0x1
 3975              		.ascii	"./Generated_Source/PSoC5/CyLib.c\000"
 3976 0763 00000000 		.ascii	"C:\\Users\\blinky\\Documents\\PSoC Creator\\CarStai"
 3977 0767 02000000 		.ascii	"ro\\CarStairo.cydsn\000"
 3978 076b 0100     		.4byte	0x0
 3979 076d 5D       		.4byte	.Ldebug_line0
 3980 076e 02000000 		.uleb128 0x2
 3981 0772 04000000 		.byte	0x1
 3982 0776 0200     		.byte	0x8
 3983 0778 7D       		.ascii	"unsigned char\000"
 3984 0779 04       		.uleb128 0x3
 3985 077a 04000000 		.ascii	"uint8\000"
 3986 077e 06000000 		.byte	0x2
 3987 0782 0200     		.byte	0x25
 3988 0784 7D       		.4byte	0x83
 3989 0785 18       		.uleb128 0x3
 3990 0786 06000000 		.ascii	"uint16\000"
 3991 078a 30000000 		.byte	0x2
 3992 078e 0200     		.byte	0x26
 3993 0790 77       		.4byte	0xaf
 3994 0791 18       		.uleb128 0x2
 3995 0792 00000000 		.byte	0x2
 3996 0796 00000000 		.byte	0x7
 3997              		.ascii	"short unsigned int\000"
 3998 079a 00000000 		.uleb128 0x3
 3999 079e 02000000 		.ascii	"uint32\000"
 4000 07a2 0100     		.byte	0x2
 4001 07a4 5D       		.byte	0x27
 4002 07a5 02000000 		.4byte	0xd3
 4003 07a9 04000000 		.uleb128 0x2
ARM GAS  C:\Users\blinky\AppData\Local\Temp/ccwJbaaa.s 			page 106


 4004 07ad 0200     		.byte	0x4
 4005 07af 7D       		.byte	0x7
 4006 07b0 04       		.ascii	"long unsigned int\000"
 4007 07b1 04000000 		.uleb128 0x3
 4008 07b5 06000000 		.ascii	"int8\000"
 4009 07b9 0200     		.byte	0x2
 4010 07bb 7D       		.byte	0x29
 4011 07bc 18       		.4byte	0xf4
 4012 07bd 06000000 		.uleb128 0x2
 4013 07c1 30000000 		.byte	0x1
 4014 07c5 0200     		.byte	0x6
 4015 07c7 77       		.ascii	"signed char\000"
 4016 07c8 18       		.uleb128 0x2
 4017 07c9 00000000 		.byte	0x2
 4018 07cd 00000000 		.byte	0x5
 4019              		.ascii	"short int\000"
 4020              		.uleb128 0x3
 4021              		.ascii	"int32\000"
 4022 0000 C70D0000 		.byte	0x2
 4023 0004 0200     		.byte	0x2b
 4024 0006 00000000 		.4byte	0x11d
 4025 000a 04       		.uleb128 0x2
 4026 000b 01       		.byte	0x4
 4027 000c 474E5520 		.byte	0x5
 4027      4320342E 
 4027      322E3100 
 4028 0018 01       		.ascii	"long int\000"
 4029 0019 2E2F4765 		.uleb128 0x3
 4029      6E657261 
 4029      7465645F 
 4029      536F7572 
 4029      63652F50 
 4030 003a 433A5C55 		.ascii	"cyisraddress\000"
 4030      73657273 
 4030      5C626C69 
 4030      6E6B795C 
 4030      446F6375 
 4031 0068 726F5C43 		.byte	0x2
 4031      61725374 
 4031      6169726F 
 4031      2E637964 
 4031      736E00
 4032 007b 00000000 		.byte	0x2f
 4033 007f 00000000 		.4byte	0x13d
 4034 0083 02       		.uleb128 0x4
 4035 0084 01       		.byte	0x4
 4036 0085 08       		.4byte	0x143
 4037 0086 756E7369 		.uleb128 0x5
 4037      676E6564 
 4037      20636861 
 4037      7200
 4038 0094 03       		.byte	0x1
 4039 0095 75696E74 		.uleb128 0x6
 4039      3800
 4040 009b 02       		.4byte	0xd3
 4041 009c 25       		.uleb128 0x7
 4042 009d 83000000 		.byte	0x1
ARM GAS  C:\Users\blinky\AppData\Local\Temp/ccwJbaaa.s 			page 107


 4043 00a1 03       		.ascii	"cymemset\000"
 4044 00a2 75696E74 		.byte	0x1
 4044      313600
 4045 00a9 02       		.2byte	0x22a
 4046 00aa 26       		.byte	0x1
 4047 00ab AF000000 		.4byte	0x1a3
 4048 00af 02       		.4byte	.LFB2
 4049 00b0 02       		.4byte	.LFE2
 4050 00b1 07       		.4byte	.LLST0
 4051 00b2 73686F72 		.4byte	0x1a3
 4051      7420756E 
 4051      7369676E 
 4051      65642069 
 4051      6E7400
 4052 00c5 03       		.uleb128 0x8
 4053 00c6 75696E74 		.ascii	"s\000"
 4053      333200
 4054 00cd 02       		.byte	0x1
 4055 00ce 27       		.2byte	0x229
 4056 00cf D3000000 		.4byte	0x1a3
 4057 00d3 02       		.byte	0x2
 4058 00d4 04       		.byte	0x91
 4059 00d5 07       		.sleb128 -20
 4060 00d6 6C6F6E67 		.uleb128 0x8
 4060      20756E73 
 4060      69676E65 
 4060      6420696E 
 4060      7400
 4061 00e8 03       		.ascii	"c\000"
 4062 00e9 696E7438 		.byte	0x1
 4062      00
 4063 00ee 02       		.2byte	0x229
 4064 00ef 29       		.4byte	0x110
 4065 00f0 F4000000 		.byte	0x2
 4066 00f4 02       		.byte	0x91
 4067 00f5 01       		.sleb128 -24
 4068 00f6 06       		.uleb128 0x8
 4069 00f7 7369676E 		.ascii	"n\000"
 4069      65642063 
 4069      68617200 
 4070 0103 02       		.byte	0x1
 4071 0104 02       		.2byte	0x229
 4072 0105 05       		.4byte	0x110
 4073 0106 73686F72 		.byte	0x2
 4073      7420696E 
 4073      7400
 4074 0110 03       		.byte	0x91
 4075 0111 696E7433 		.sleb128 -28
 4075      3200
 4076 0117 02       		.uleb128 0x9
 4077 0118 2B       		.ascii	"ss\000"
 4078 0119 1D010000 		.byte	0x1
 4079 011d 02       		.2byte	0x22b
 4080 011e 04       		.4byte	0x1a3
 4081 011f 05       		.byte	0x2
 4082 0120 6C6F6E67 		.byte	0x91
 4082      20696E74 
ARM GAS  C:\Users\blinky\AppData\Local\Temp/ccwJbaaa.s 			page 108


 4082      00
 4083 0129 03       		.sleb128 -12
 4084 012a 63796973 		.byte	0x0
 4084      72616464 
 4084      72657373 
 4084      00
 4085 0137 02       		.uleb128 0xa
 4086 0138 2F       		.byte	0x4
 4087 0139 3D010000 		.uleb128 0x7
 4088 013d 04       		.byte	0x1
 4089 013e 04       		.ascii	"cymemcpy\000"
 4090 013f 43010000 		.byte	0x1
 4091 0143 05       		.2byte	0x252
 4092 0144 01       		.byte	0x1
 4093 0145 06       		.4byte	0x1a3
 4094 0146 D3000000 		.4byte	.LFB3
 4095 014a 07       		.4byte	.LFE3
 4096 014b 01       		.4byte	.LLST1
 4097 014c 63796D65 		.4byte	0x210
 4097      6D736574 
 4097      00
 4098 0155 01       		.uleb128 0x8
 4099 0156 2A02     		.ascii	"s1\000"
 4100 0158 01       		.byte	0x1
 4101 0159 A3010000 		.2byte	0x251
 4102 015d 00000000 		.4byte	0x1a3
 4103 0161 3E000000 		.byte	0x2
 4104 0165 00000000 		.byte	0x91
 4105 0169 A3010000 		.sleb128 -20
 4106 016d 08       		.uleb128 0x8
 4107 016e 7300     		.ascii	"s2\000"
 4108 0170 01       		.byte	0x1
 4109 0171 2902     		.2byte	0x251
 4110 0173 A3010000 		.4byte	0x210
 4111 0177 02       		.byte	0x2
 4112 0178 91       		.byte	0x91
 4113 0179 6C       		.sleb128 -24
 4114 017a 08       		.uleb128 0x8
 4115 017b 6300     		.ascii	"n\000"
 4116 017d 01       		.byte	0x1
 4117 017e 2902     		.2byte	0x251
 4118 0180 10010000 		.4byte	0x110
 4119 0184 02       		.byte	0x2
 4120 0185 91       		.byte	0x91
 4121 0186 68       		.sleb128 -28
 4122 0187 08       		.uleb128 0x9
 4123 0188 6E00     		.ascii	"ss1\000"
 4124 018a 01       		.byte	0x1
 4125 018b 2902     		.2byte	0x253
 4126 018d 10010000 		.4byte	0x217
 4127 0191 02       		.byte	0x2
 4128 0192 91       		.byte	0x91
 4129 0193 64       		.sleb128 -16
 4130 0194 09       		.uleb128 0x9
 4131 0195 737300   		.ascii	"ss2\000"
 4132 0198 01       		.byte	0x1
 4133 0199 2B02     		.2byte	0x254
ARM GAS  C:\Users\blinky\AppData\Local\Temp/ccwJbaaa.s 			page 109


 4134 019b A3010000 		.4byte	0x217
 4135 019f 02       		.byte	0x2
 4136 01a0 91       		.byte	0x91
 4137 01a1 74       		.sleb128 -12
 4138 01a2 00       		.byte	0x0
 4139 01a3 0A       		.uleb128 0x4
 4140 01a4 04       		.byte	0x4
 4141 01a5 07       		.4byte	0x216
 4142 01a6 01       		.uleb128 0xb
 4143 01a7 63796D65 		.uleb128 0x4
 4143      6D637079 
 4143      00
 4144 01b0 01       		.byte	0x4
 4145 01b1 5202     		.4byte	0xe8
 4146 01b3 01       		.uleb128 0x7
 4147 01b4 A3010000 		.byte	0x1
 4148 01b8 00000000 		.ascii	"cymemmove\000"
 4149 01bc 4A000000 		.byte	0x1
 4150 01c0 37000000 		.2byte	0x27d
 4151 01c4 10020000 		.byte	0x1
 4152 01c8 08       		.4byte	0x1a3
 4153 01c9 733100   		.4byte	.LFB4
 4154 01cc 01       		.4byte	.LFE4
 4155 01cd 5102     		.4byte	.LLST2
 4156 01cf A3010000 		.4byte	0x289
 4157 01d3 02       		.uleb128 0x8
 4158 01d4 91       		.ascii	"s1\000"
 4159 01d5 6C       		.byte	0x1
 4160 01d6 08       		.2byte	0x27c
 4161 01d7 733200   		.4byte	0x1a3
 4162 01da 01       		.byte	0x2
 4163 01db 5102     		.byte	0x91
 4164 01dd 10020000 		.sleb128 -20
 4165 01e1 02       		.uleb128 0x8
 4166 01e2 91       		.ascii	"s2\000"
 4167 01e3 68       		.byte	0x1
 4168 01e4 08       		.2byte	0x27c
 4169 01e5 6E00     		.4byte	0x1a3
 4170 01e7 01       		.byte	0x2
 4171 01e8 5102     		.byte	0x91
 4172 01ea 10010000 		.sleb128 -24
 4173 01ee 02       		.uleb128 0x8
 4174 01ef 91       		.ascii	"n\000"
 4175 01f0 64       		.byte	0x1
 4176 01f1 09       		.2byte	0x27c
 4177 01f2 73733100 		.4byte	0x110
 4178 01f6 01       		.byte	0x2
 4179 01f7 5302     		.byte	0x91
 4180 01f9 17020000 		.sleb128 -28
 4181 01fd 02       		.uleb128 0x9
 4182 01fe 91       		.ascii	"ss1\000"
 4183 01ff 70       		.byte	0x1
 4184 0200 09       		.2byte	0x27e
 4185 0201 73733200 		.4byte	0x217
 4186 0205 01       		.byte	0x2
 4187 0206 5402     		.byte	0x91
 4188 0208 17020000 		.sleb128 -16
ARM GAS  C:\Users\blinky\AppData\Local\Temp/ccwJbaaa.s 			page 110


 4189 020c 02       		.uleb128 0x9
 4190 020d 91       		.ascii	"ss2\000"
 4191 020e 74       		.byte	0x1
 4192 020f 00       		.2byte	0x27f
 4193 0210 04       		.4byte	0x217
 4194 0211 04       		.byte	0x2
 4195 0212 16020000 		.byte	0x91
 4196 0216 0B       		.sleb128 -12
 4197 0217 04       		.byte	0x0
 4198 0218 04       		.uleb128 0x7
 4199 0219 E8000000 		.byte	0x1
 4200 021d 07       		.ascii	"cymemcmp\000"
 4201 021e 01       		.byte	0x1
 4202 021f 63796D65 		.2byte	0x2bc
 4202      6D6D6F76 
 4202      6500
 4203 0229 01       		.byte	0x1
 4204 022a 7D02     		.4byte	0x301
 4205 022c 01       		.4byte	.LFB5
 4206 022d A3010000 		.4byte	.LFE5
 4207 0231 00000000 		.4byte	.LLST3
 4208 0235 9E000000 		.4byte	0x301
 4209 0239 6E000000 		.uleb128 0x8
 4210 023d 89020000 		.ascii	"s1\000"
 4211 0241 08       		.byte	0x1
 4212 0242 733100   		.2byte	0x2bb
 4213 0245 01       		.4byte	0x210
 4214 0246 7C02     		.byte	0x2
 4215 0248 A3010000 		.byte	0x91
 4216 024c 02       		.sleb128 -28
 4217 024d 91       		.uleb128 0x8
 4218 024e 6C       		.ascii	"s2\000"
 4219 024f 08       		.byte	0x1
 4220 0250 733200   		.2byte	0x2bb
 4221 0253 01       		.4byte	0x210
 4222 0254 7C02     		.byte	0x2
 4223 0256 A3010000 		.byte	0x91
 4224 025a 02       		.sleb128 -32
 4225 025b 91       		.uleb128 0x8
 4226 025c 68       		.ascii	"n\000"
 4227 025d 08       		.byte	0x1
 4228 025e 6E00     		.2byte	0x2bb
 4229 0260 01       		.4byte	0xc5
 4230 0261 7C02     		.byte	0x2
 4231 0263 10010000 		.byte	0x91
 4232 0267 02       		.sleb128 -36
 4233 0268 91       		.uleb128 0x9
 4234 0269 64       		.ascii	"c\000"
 4235 026a 09       		.byte	0x1
 4236 026b 73733100 		.2byte	0x2bd
 4237 026f 01       		.4byte	0xe8
 4238 0270 7E02     		.byte	0x2
 4239 0272 17020000 		.byte	0x91
 4240 0276 02       		.sleb128 -17
 4241 0277 91       		.uleb128 0x9
 4242 0278 70       		.ascii	"ss1\000"
 4243 0279 09       		.byte	0x1
ARM GAS  C:\Users\blinky\AppData\Local\Temp/ccwJbaaa.s 			page 111


 4244 027a 73733200 		.2byte	0x2be
 4245 027e 01       		.4byte	0x308
 4246 027f 7F02     		.byte	0x2
 4247 0281 17020000 		.byte	0x91
 4248 0285 02       		.sleb128 -16
 4249 0286 91       		.uleb128 0x9
 4250 0287 74       		.ascii	"ss2\000"
 4251 0288 00       		.byte	0x1
 4252 0289 07       		.2byte	0x2bf
 4253 028a 01       		.4byte	0x308
 4254 028b 63796D65 		.byte	0x2
 4254      6D636D70 
 4254      00
 4255 0294 01       		.byte	0x91
 4256 0295 BC02     		.sleb128 -12
 4257 0297 01       		.byte	0x0
 4258 0298 01030000 		.uleb128 0x2
 4259 029c 00000000 		.byte	0x4
 4260 02a0 68000000 		.byte	0x5
 4261 02a4 A5000000 		.ascii	"int\000"
 4262 02a8 01030000 		.uleb128 0x4
 4263 02ac 08       		.byte	0x4
 4264 02ad 733100   		.4byte	0x30e
 4265 02b0 01       		.uleb128 0xc
 4266 02b1 BB02     		.4byte	0x94
 4267 02b3 10020000 		.uleb128 0x7
 4268 02b7 02       		.byte	0x1
 4269 02b8 91       		.ascii	"cymemchr\000"
 4270 02b9 64       		.byte	0x1
 4271 02ba 08       		.2byte	0x2ee
 4272 02bb 733200   		.byte	0x1
 4273 02be 01       		.4byte	0x1a3
 4274 02bf BB02     		.4byte	.LFB6
 4275 02c1 10020000 		.4byte	.LFE6
 4276 02c5 02       		.4byte	.LLST4
 4277 02c6 91       		.4byte	0x36c
 4278 02c7 60       		.uleb128 0x8
 4279 02c8 08       		.ascii	"s\000"
 4280 02c9 6E00     		.byte	0x1
 4281 02cb 01       		.2byte	0x2ed
 4282 02cc BB02     		.4byte	0x210
 4283 02ce C5000000 		.byte	0x2
 4284 02d2 02       		.byte	0x91
 4285 02d3 91       		.sleb128 -20
 4286 02d4 5C       		.uleb128 0x8
 4287 02d5 09       		.ascii	"c\000"
 4288 02d6 6300     		.byte	0x1
 4289 02d8 01       		.2byte	0x2ed
 4290 02d9 BD02     		.4byte	0x301
 4291 02db E8000000 		.byte	0x2
 4292 02df 02       		.byte	0x91
 4293 02e0 91       		.sleb128 -24
 4294 02e1 6F       		.uleb128 0x8
 4295 02e2 09       		.ascii	"n\000"
 4296 02e3 73733100 		.byte	0x1
 4297 02e7 01       		.2byte	0x2ed
 4298 02e8 BE02     		.4byte	0xc5
ARM GAS  C:\Users\blinky\AppData\Local\Temp/ccwJbaaa.s 			page 112


 4299 02ea 08030000 		.byte	0x2
 4300 02ee 02       		.byte	0x91
 4301 02ef 91       		.sleb128 -28
 4302 02f0 70       		.uleb128 0x9
 4303 02f1 09       		.ascii	"ss\000"
 4304 02f2 73733200 		.byte	0x1
 4305 02f6 01       		.2byte	0x2ef
 4306 02f7 BF02     		.4byte	0x36c
 4307 02f9 08030000 		.byte	0x2
 4308 02fd 02       		.byte	0x91
 4309 02fe 91       		.sleb128 -12
 4310 02ff 74       		.byte	0x0
 4311 0300 00       		.uleb128 0x4
 4312 0301 02       		.byte	0x4
 4313 0302 04       		.4byte	0x94
 4314 0303 05       		.uleb128 0x7
 4315 0304 696E7400 		.byte	0x1
 4316 0308 04       		.ascii	"cystrcat\000"
 4317 0309 04       		.byte	0x1
 4318 030a 0E030000 		.2byte	0x31a
 4319 030e 0C       		.byte	0x1
 4320 030f 94000000 		.4byte	0x3ce
 4321 0313 07       		.4byte	.LFB7
 4322 0314 01       		.4byte	.LFE7
 4323 0315 63796D65 		.4byte	.LLST5
 4323      6D636872 
 4323      00
 4324 031e 01       		.4byte	0x3ce
 4325 031f EE02     		.uleb128 0x8
 4326 0321 01       		.ascii	"s1\000"
 4327 0322 A3010000 		.byte	0x1
 4328 0326 00000000 		.2byte	0x319
 4329 032a 50000000 		.4byte	0x3ce
 4330 032e DC000000 		.byte	0x2
 4331 0332 6C030000 		.byte	0x91
 4332 0336 08       		.sleb128 -20
 4333 0337 7300     		.uleb128 0x8
 4334 0339 01       		.ascii	"s2\000"
 4335 033a ED02     		.byte	0x1
 4336 033c 10020000 		.2byte	0x319
 4337 0340 02       		.4byte	0x3ce
 4338 0341 91       		.byte	0x2
 4339 0342 6C       		.byte	0x91
 4340 0343 08       		.sleb128 -24
 4341 0344 6300     		.uleb128 0x9
 4342 0346 01       		.ascii	"c\000"
 4343 0347 ED02     		.byte	0x1
 4344 0349 01030000 		.2byte	0x31b
 4345 034d 02       		.4byte	0x3d4
 4346 034e 91       		.byte	0x2
 4347 034f 68       		.byte	0x91
 4348 0350 08       		.sleb128 -13
 4349 0351 6E00     		.uleb128 0x9
 4350 0353 01       		.ascii	"ss1\000"
 4351 0354 ED02     		.byte	0x1
 4352 0356 C5000000 		.2byte	0x31c
 4353 035a 02       		.4byte	0x3ce
ARM GAS  C:\Users\blinky\AppData\Local\Temp/ccwJbaaa.s 			page 113


 4354 035b 91       		.byte	0x2
 4355 035c 64       		.byte	0x91
 4356 035d 09       		.sleb128 -12
 4357 035e 737300   		.byte	0x0
 4358 0361 01       		.uleb128 0x4
 4359 0362 EF02     		.byte	0x4
 4360 0364 6C030000 		.4byte	0x3d4
 4361 0368 02       		.uleb128 0x2
 4362 0369 91       		.byte	0x1
 4363 036a 74       		.byte	0x8
 4364 036b 00       		.ascii	"char\000"
 4365 036c 04       		.uleb128 0x7
 4366 036d 04       		.byte	0x1
 4367 036e 94000000 		.ascii	"cystrcpy\000"
 4368 0372 07       		.byte	0x1
 4369 0373 01       		.2byte	0x348
 4370 0374 63797374 		.byte	0x1
 4370      72636174 
 4370      00
 4371 037d 01       		.4byte	0x3ce
 4372 037e 1A03     		.4byte	.LFB8
 4373 0380 01       		.4byte	.LFE8
 4374 0381 CE030000 		.4byte	.LLST6
 4375 0385 00000000 		.4byte	0x438
 4376 0389 52000000 		.uleb128 0x8
 4377 038d 13010000 		.ascii	"s1\000"
 4378 0391 CE030000 		.byte	0x1
 4379 0395 08       		.2byte	0x347
 4380 0396 733100   		.4byte	0x3ce
 4381 0399 01       		.byte	0x2
 4382 039a 1903     		.byte	0x91
 4383 039c CE030000 		.sleb128 -20
 4384 03a0 02       		.uleb128 0x8
 4385 03a1 91       		.ascii	"s2\000"
 4386 03a2 6C       		.byte	0x1
 4387 03a3 08       		.2byte	0x347
 4388 03a4 733200   		.4byte	0x3ce
 4389 03a7 01       		.byte	0x2
 4390 03a8 1903     		.byte	0x91
 4391 03aa CE030000 		.sleb128 -24
 4392 03ae 02       		.uleb128 0x9
 4393 03af 91       		.ascii	"c\000"
 4394 03b0 68       		.byte	0x1
 4395 03b1 09       		.2byte	0x349
 4396 03b2 6300     		.4byte	0x3d4
 4397 03b4 01       		.byte	0x2
 4398 03b5 1B03     		.byte	0x91
 4399 03b7 D4030000 		.sleb128 -13
 4400 03bb 02       		.uleb128 0x9
 4401 03bc 91       		.ascii	"ss1\000"
 4402 03bd 73       		.byte	0x1
 4403 03be 09       		.2byte	0x34a
 4404 03bf 73733100 		.4byte	0x3ce
 4405 03c3 01       		.byte	0x2
 4406 03c4 1C03     		.byte	0x91
 4407 03c6 CE030000 		.sleb128 -12
 4408 03ca 02       		.byte	0x0
ARM GAS  C:\Users\blinky\AppData\Local\Temp/ccwJbaaa.s 			page 114


 4409 03cb 91       		.uleb128 0x7
 4410 03cc 74       		.byte	0x1
 4411 03cd 00       		.ascii	"cystrncpy\000"
 4412 03ce 04       		.byte	0x1
 4413 03cf 04       		.2byte	0x370
 4414 03d0 D4030000 		.byte	0x1
 4415 03d4 02       		.4byte	0x3ce
 4416 03d5 01       		.4byte	.LFB9
 4417 03d6 08       		.4byte	.LFE9
 4418 03d7 63686172 		.4byte	.LLST7
 4418      00
 4419 03dc 07       		.4byte	0x4b2
 4420 03dd 01       		.uleb128 0x8
 4421 03de 63797374 		.ascii	"s1\000"
 4421      72637079 
 4421      00
 4422 03e7 01       		.byte	0x1
 4423 03e8 4803     		.2byte	0x36f
 4424 03ea 01       		.4byte	0x3ce
 4425 03eb CE030000 		.byte	0x2
 4426 03ef 00000000 		.byte	0x91
 4427 03f3 40000000 		.sleb128 -28
 4428 03f7 4A010000 		.uleb128 0x8
 4429 03fb 38040000 		.ascii	"s2\000"
 4430 03ff 08       		.byte	0x1
 4431 0400 733100   		.2byte	0x36f
 4432 0403 01       		.4byte	0x3ce
 4433 0404 4703     		.byte	0x2
 4434 0406 CE030000 		.byte	0x91
 4435 040a 02       		.sleb128 -32
 4436 040b 91       		.uleb128 0x8
 4437 040c 6C       		.ascii	"n\000"
 4438 040d 08       		.byte	0x1
 4439 040e 733200   		.2byte	0x36f
 4440 0411 01       		.4byte	0xc5
 4441 0412 4703     		.byte	0x2
 4442 0414 CE030000 		.byte	0x91
 4443 0418 02       		.sleb128 -36
 4444 0419 91       		.uleb128 0x9
 4445 041a 68       		.ascii	"ch\000"
 4446 041b 09       		.byte	0x1
 4447 041c 6300     		.2byte	0x371
 4448 041e 01       		.4byte	0x3d4
 4449 041f 4903     		.byte	0x2
 4450 0421 D4030000 		.byte	0x91
 4451 0425 02       		.sleb128 -17
 4452 0426 91       		.uleb128 0x9
 4453 0427 73       		.ascii	"ss1\000"
 4454 0428 09       		.byte	0x1
 4455 0429 73733100 		.2byte	0x372
 4456 042d 01       		.4byte	0x3ce
 4457 042e 4A03     		.byte	0x2
 4458 0430 CE030000 		.byte	0x91
 4459 0434 02       		.sleb128 -16
 4460 0435 91       		.uleb128 0x9
 4461 0436 74       		.ascii	"ss2\000"
 4462 0437 00       		.byte	0x1
ARM GAS  C:\Users\blinky\AppData\Local\Temp/ccwJbaaa.s 			page 115


 4463 0438 07       		.2byte	0x373
 4464 0439 01       		.4byte	0x3ce
 4465 043a 63797374 		.byte	0x2
 4465      726E6370 
 4465      7900
 4466 0444 01       		.byte	0x91
 4467 0445 7003     		.sleb128 -12
 4468 0447 01       		.byte	0x0
 4469 0448 CE030000 		.uleb128 0x7
 4470 044c 00000000 		.byte	0x1
 4471 0450 76000000 		.ascii	"cystrlen\000"
 4472 0454 81010000 		.byte	0x1
 4473 0458 B2040000 		.2byte	0x3a5
 4474 045c 08       		.byte	0x1
 4475 045d 733100   		.4byte	0xc5
 4476 0460 01       		.4byte	.LFB10
 4477 0461 6F03     		.4byte	.LFE10
 4478 0463 CE030000 		.4byte	.LLST8
 4479 0467 02       		.4byte	0x4f0
 4480 0468 91       		.uleb128 0x8
 4481 0469 64       		.ascii	"s\000"
 4482 046a 08       		.byte	0x1
 4483 046b 733200   		.2byte	0x3a4
 4484 046e 01       		.4byte	0x4f0
 4485 046f 6F03     		.byte	0x2
 4486 0471 CE030000 		.byte	0x91
 4487 0475 02       		.sleb128 -20
 4488 0476 91       		.uleb128 0x9
 4489 0477 60       		.ascii	"l\000"
 4490 0478 08       		.byte	0x1
 4491 0479 6E00     		.2byte	0x3a6
 4492 047b 01       		.4byte	0xc5
 4493 047c 6F03     		.byte	0x2
 4494 047e C5000000 		.byte	0x91
 4495 0482 02       		.sleb128 -12
 4496 0483 91       		.byte	0x0
 4497 0484 5C       		.uleb128 0x4
 4498 0485 09       		.byte	0x4
 4499 0486 636800   		.4byte	0x4f6
 4500 0489 01       		.uleb128 0xc
 4501 048a 7103     		.4byte	0x3d4
 4502 048c D4030000 		.uleb128 0x7
 4503 0490 02       		.byte	0x1
 4504 0491 91       		.ascii	"cystrcmp\000"
 4505 0492 6F       		.byte	0x1
 4506 0493 09       		.2byte	0x3c8
 4507 0494 73733100 		.byte	0x1
 4508 0498 01       		.4byte	0x110
 4509 0499 7203     		.4byte	.LFB11
 4510 049b CE030000 		.4byte	.LFE11
 4511 049f 02       		.4byte	.LLST9
 4512 04a0 91       		.4byte	0x548
 4513 04a1 70       		.uleb128 0x8
 4514 04a2 09       		.ascii	"s1\000"
 4515 04a3 73733200 		.byte	0x1
 4516 04a7 01       		.2byte	0x3c7
 4517 04a8 7303     		.4byte	0x3ce
ARM GAS  C:\Users\blinky\AppData\Local\Temp/ccwJbaaa.s 			page 116


 4518 04aa CE030000 		.byte	0x2
 4519 04ae 02       		.byte	0x91
 4520 04af 91       		.sleb128 -20
 4521 04b0 74       		.uleb128 0x8
 4522 04b1 00       		.ascii	"s2\000"
 4523 04b2 07       		.byte	0x1
 4524 04b3 01       		.2byte	0x3c7
 4525 04b4 63797374 		.4byte	0x3ce
 4525      726C656E 
 4525      00
 4526 04bd 01       		.byte	0x2
 4527 04be A503     		.byte	0x91
 4528 04c0 01       		.sleb128 -24
 4529 04c1 C5000000 		.uleb128 0x9
 4530 04c5 00000000 		.ascii	"c\000"
 4531 04c9 3E000000 		.byte	0x1
 4532 04cd B8010000 		.2byte	0x3c9
 4533 04d1 F0040000 		.4byte	0x110
 4534 04d5 08       		.byte	0x2
 4535 04d6 7300     		.byte	0x91
 4536 04d8 01       		.sleb128 -12
 4537 04d9 A403     		.byte	0x0
 4538 04db F0040000 		.uleb128 0x7
 4539 04df 02       		.byte	0x1
 4540 04e0 91       		.ascii	"cystrncmp\000"
 4541 04e1 6C       		.byte	0x1
 4542 04e2 09       		.2byte	0x3f9
 4543 04e3 6C00     		.byte	0x1
 4544 04e5 01       		.4byte	0x110
 4545 04e6 A603     		.4byte	.LFB12
 4546 04e8 C5000000 		.4byte	.LFE12
 4547 04ec 02       		.4byte	.LLST10
 4548 04ed 91       		.4byte	0x5a3
 4549 04ee 74       		.uleb128 0x8
 4550 04ef 00       		.ascii	"s1\000"
 4551 04f0 04       		.byte	0x1
 4552 04f1 04       		.2byte	0x3f8
 4553 04f2 F6040000 		.4byte	0x4f0
 4554 04f6 0C       		.byte	0x2
 4555 04f7 D4030000 		.byte	0x91
 4556 04fb 07       		.sleb128 -20
 4557 04fc 01       		.uleb128 0x8
 4558 04fd 63797374 		.ascii	"s2\000"
 4558      72636D70 
 4558      00
 4559 0506 01       		.byte	0x1
 4560 0507 C803     		.2byte	0x3f8
 4561 0509 01       		.4byte	0x4f0
 4562 050a 10010000 		.byte	0x2
 4563 050e 00000000 		.byte	0x91
 4564 0512 60000000 		.sleb128 -24
 4565 0516 EF010000 		.uleb128 0x8
 4566 051a 48050000 		.ascii	"n\000"
 4567 051e 08       		.byte	0x1
 4568 051f 733100   		.2byte	0x3f8
 4569 0522 01       		.4byte	0xc5
 4570 0523 C703     		.byte	0x2
ARM GAS  C:\Users\blinky\AppData\Local\Temp/ccwJbaaa.s 			page 117


 4571 0525 CE030000 		.byte	0x91
 4572 0529 02       		.sleb128 -28
 4573 052a 91       		.uleb128 0x9
 4574 052b 6C       		.ascii	"c\000"
 4575 052c 08       		.byte	0x1
 4576 052d 733200   		.2byte	0x3fa
 4577 0530 01       		.4byte	0x110
 4578 0531 C703     		.byte	0x2
 4579 0533 CE030000 		.byte	0x91
 4580 0537 02       		.sleb128 -12
 4581 0538 91       		.byte	0x0
 4582 0539 68       		.uleb128 0x7
 4583 053a 09       		.byte	0x1
 4584 053b 6300     		.ascii	"cystrncat\000"
 4585 053d 01       		.byte	0x1
 4586 053e C903     		.2byte	0x42b
 4587 0540 10010000 		.byte	0x1
 4588 0544 02       		.4byte	0x3ce
 4589 0545 91       		.4byte	.LFB13
 4590 0546 74       		.4byte	.LFE13
 4591 0547 00       		.4byte	.LLST11
 4592 0548 07       		.4byte	0x610
 4593 0549 01       		.uleb128 0x8
 4594 054a 63797374 		.ascii	"s1\000"
 4594      726E636D 
 4594      7000
 4595 0554 01       		.byte	0x1
 4596 0555 F903     		.2byte	0x42a
 4597 0557 01       		.4byte	0x3ce
 4598 0558 10010000 		.byte	0x2
 4599 055c 00000000 		.byte	0x91
 4600 0560 70000000 		.sleb128 -20
 4601 0564 26020000 		.uleb128 0x8
 4602 0568 A3050000 		.ascii	"s2\000"
 4603 056c 08       		.byte	0x1
 4604 056d 733100   		.2byte	0x42a
 4605 0570 01       		.4byte	0x4f0
 4606 0571 F803     		.byte	0x2
 4607 0573 F0040000 		.byte	0x91
 4608 0577 02       		.sleb128 -24
 4609 0578 91       		.uleb128 0x8
 4610 0579 6C       		.ascii	"n\000"
 4611 057a 08       		.byte	0x1
 4612 057b 733200   		.2byte	0x42a
 4613 057e 01       		.4byte	0xc5
 4614 057f F803     		.byte	0x2
 4615 0581 F0040000 		.byte	0x91
 4616 0585 02       		.sleb128 -28
 4617 0586 91       		.uleb128 0x9
 4618 0587 68       		.ascii	"ss1\000"
 4619 0588 08       		.byte	0x1
 4620 0589 6E00     		.2byte	0x42c
 4621 058b 01       		.4byte	0x3ce
 4622 058c F803     		.byte	0x2
 4623 058e C5000000 		.byte	0x91
 4624 0592 02       		.sleb128 -16
 4625 0593 91       		.uleb128 0x9
ARM GAS  C:\Users\blinky\AppData\Local\Temp/ccwJbaaa.s 			page 118


 4626 0594 64       		.ascii	"temp\000"
 4627 0595 09       		.byte	0x1
 4628 0596 6300     		.2byte	0x42d
 4629 0598 01       		.4byte	0x3d4
 4630 0599 FA03     		.byte	0x2
 4631 059b 10010000 		.byte	0x91
 4632 059f 02       		.sleb128 -9
 4633 05a0 91       		.byte	0x0
 4634 05a1 74       		.uleb128 0x7
 4635 05a2 00       		.byte	0x1
 4636 05a3 07       		.ascii	"cystrchr\000"
 4637 05a4 01       		.byte	0x1
 4638 05a5 63797374 		.2byte	0x463
 4638      726E6361 
 4638      7400
 4639 05af 01       		.byte	0x1
 4640 05b0 2B04     		.4byte	0x3ce
 4641 05b2 01       		.4byte	.LFB14
 4642 05b3 CE030000 		.4byte	.LFE14
 4643 05b7 00000000 		.4byte	.LLST12
 4644 05bb 6C000000 		.4byte	0x65c
 4645 05bf 5D020000 		.uleb128 0x8
 4646 05c3 10060000 		.ascii	"s\000"
 4647 05c7 08       		.byte	0x1
 4648 05c8 733100   		.2byte	0x462
 4649 05cb 01       		.4byte	0x4f0
 4650 05cc 2A04     		.byte	0x2
 4651 05ce CE030000 		.byte	0x91
 4652 05d2 02       		.sleb128 -20
 4653 05d3 91       		.uleb128 0x8
 4654 05d4 6C       		.ascii	"c\000"
 4655 05d5 08       		.byte	0x1
 4656 05d6 733200   		.2byte	0x462
 4657 05d9 01       		.4byte	0x3d4
 4658 05da 2A04     		.byte	0x2
 4659 05dc F0040000 		.byte	0x91
 4660 05e0 02       		.sleb128 -21
 4661 05e1 91       		.uleb128 0x9
 4662 05e2 68       		.ascii	"ss\000"
 4663 05e3 08       		.byte	0x1
 4664 05e4 6E00     		.2byte	0x464
 4665 05e6 01       		.4byte	0x3ce
 4666 05e7 2A04     		.byte	0x2
 4667 05e9 C5000000 		.byte	0x91
 4668 05ed 02       		.sleb128 -12
 4669 05ee 91       		.byte	0x0
 4670 05ef 64       		.uleb128 0x7
 4671 05f0 09       		.byte	0x1
 4672 05f1 73733100 		.ascii	"cystrrchr\000"
 4673 05f5 01       		.byte	0x1
 4674 05f6 2C04     		.2byte	0x48c
 4675 05f8 CE030000 		.byte	0x1
 4676 05fc 02       		.4byte	0x3ce
 4677 05fd 91       		.4byte	.LFB15
 4678 05fe 70       		.4byte	.LFE15
 4679 05ff 09       		.4byte	.LLST13
 4680 0600 74656D70 		.4byte	0x6a9
ARM GAS  C:\Users\blinky\AppData\Local\Temp/ccwJbaaa.s 			page 119


 4680      00
 4681 0605 01       		.uleb128 0x8
 4682 0606 2D04     		.ascii	"s\000"
 4683 0608 D4030000 		.byte	0x1
 4684 060c 02       		.2byte	0x48b
 4685 060d 91       		.4byte	0x4f0
 4686 060e 77       		.byte	0x2
 4687 060f 00       		.byte	0x91
 4688 0610 07       		.sleb128 -20
 4689 0611 01       		.uleb128 0x8
 4690 0612 63797374 		.ascii	"c\000"
 4690      72636872 
 4690      00
 4691 061b 01       		.byte	0x1
 4692 061c 6304     		.2byte	0x48b
 4693 061e 01       		.4byte	0x3d4
 4694 061f CE030000 		.byte	0x2
 4695 0623 00000000 		.byte	0x91
 4696 0627 4A000000 		.sleb128 -21
 4697 062b 94020000 		.uleb128 0x9
 4698 062f 5C060000 		.ascii	"ss\000"
 4699 0633 08       		.byte	0x1
 4700 0634 7300     		.2byte	0x48d
 4701 0636 01       		.4byte	0x3ce
 4702 0637 6204     		.byte	0x2
 4703 0639 F0040000 		.byte	0x91
 4704 063d 02       		.sleb128 -12
 4705 063e 91       		.byte	0x0
 4706 063f 6C       		.uleb128 0x7
 4707 0640 08       		.byte	0x1
 4708 0641 6300     		.ascii	"cystrstr\000"
 4709 0643 01       		.byte	0x1
 4710 0644 6204     		.2byte	0x4b4
 4711 0646 D4030000 		.byte	0x1
 4712 064a 02       		.4byte	0x3ce
 4713 064b 91       		.4byte	.LFB16
 4714 064c 6B       		.4byte	.LFE16
 4715 064d 09       		.4byte	.LLST14
 4716 064e 737300   		.4byte	0x704
 4717 0651 01       		.uleb128 0x8
 4718 0652 6404     		.ascii	"s1\000"
 4719 0654 CE030000 		.byte	0x1
 4720 0658 02       		.2byte	0x4b3
 4721 0659 91       		.4byte	0x4f0
 4722 065a 74       		.byte	0x2
 4723 065b 00       		.byte	0x91
 4724 065c 07       		.sleb128 -20
 4725 065d 01       		.uleb128 0x8
 4726 065e 63797374 		.ascii	"s2\000"
 4726      72726368 
 4726      7200
 4727 0668 01       		.byte	0x1
 4728 0669 8C04     		.2byte	0x4b3
 4729 066b 01       		.4byte	0x4f0
 4730 066c CE030000 		.byte	0x2
 4731 0670 00000000 		.byte	0x91
 4732 0674 40000000 		.sleb128 -24
ARM GAS  C:\Users\blinky\AppData\Local\Temp/ccwJbaaa.s 			page 120


 4733 0678 CB020000 		.uleb128 0x9
 4734 067c A9060000 		.ascii	"ss\000"
 4735 0680 08       		.byte	0x1
 4736 0681 7300     		.2byte	0x4b5
 4737 0683 01       		.4byte	0x3ce
 4738 0684 8B04     		.byte	0x2
 4739 0686 F0040000 		.byte	0x91
 4740 068a 02       		.sleb128 -16
 4741 068b 91       		.uleb128 0x9
 4742 068c 6C       		.ascii	"n\000"
 4743 068d 08       		.byte	0x1
 4744 068e 6300     		.2byte	0x4b6
 4745 0690 01       		.4byte	0xc5
 4746 0691 8B04     		.byte	0x2
 4747 0693 D4030000 		.byte	0x91
 4748 0697 02       		.sleb128 -12
 4749 0698 91       		.byte	0x0
 4750 0699 6B       		.uleb128 0x7
 4751 069a 09       		.byte	0x1
 4752 069b 737300   		.ascii	"cystrtol\000"
 4753 069e 01       		.byte	0x1
 4754 069f 8D04     		.2byte	0x4f3
 4755 06a1 CE030000 		.byte	0x1
 4756 06a5 02       		.4byte	0x110
 4757 06a6 91       		.4byte	.LFB17
 4758 06a7 74       		.4byte	.LFE17
 4759 06a8 00       		.4byte	.LLST15
 4760 06a9 07       		.4byte	0x7c7
 4761 06aa 01       		.uleb128 0x8
 4762 06ab 63797374 		.ascii	"s\000"
 4762      72737472 
 4762      00
 4763 06b4 01       		.byte	0x1
 4764 06b5 B404     		.2byte	0x4f2
 4765 06b7 01       		.4byte	0x4f0
 4766 06b8 CE030000 		.byte	0x2
 4767 06bc 00000000 		.byte	0x91
 4768 06c0 4E000000 		.sleb128 -44
 4769 06c4 02030000 		.uleb128 0x8
 4770 06c8 04070000 		.ascii	"e\000"
 4771 06cc 08       		.byte	0x1
 4772 06cd 733100   		.2byte	0x4f2
 4773 06d0 01       		.4byte	0x7c7
 4774 06d1 B304     		.byte	0x2
 4775 06d3 F0040000 		.byte	0x91
 4776 06d7 02       		.sleb128 -48
 4777 06d8 91       		.uleb128 0x8
 4778 06d9 6C       		.ascii	"b\000"
 4779 06da 08       		.byte	0x1
 4780 06db 733200   		.2byte	0x4f2
 4781 06de 01       		.4byte	0xe8
 4782 06df B304     		.byte	0x2
 4783 06e1 F0040000 		.byte	0x91
 4784 06e5 02       		.sleb128 -49
 4785 06e6 91       		.uleb128 0x9
 4786 06e7 68       		.ascii	"digit\000"
 4787 06e8 09       		.byte	0x1
ARM GAS  C:\Users\blinky\AppData\Local\Temp/ccwJbaaa.s 			page 121


 4788 06e9 737300   		.2byte	0x4f4
 4789 06ec 01       		.4byte	0x3d4
 4790 06ed B504     		.byte	0x2
 4791 06ef CE030000 		.byte	0x91
 4792 06f3 02       		.sleb128 -33
 4793 06f4 91       		.uleb128 0x9
 4794 06f5 70       		.ascii	"some\000"
 4795 06f6 09       		.byte	0x1
 4796 06f7 6E00     		.2byte	0x4f5
 4797 06f9 01       		.4byte	0x110
 4798 06fa B604     		.byte	0x2
 4799 06fc C5000000 		.byte	0x91
 4800 0700 02       		.sleb128 -32
 4801 0701 91       		.uleb128 0x9
 4802 0702 74       		.ascii	"cutlim\000"
 4803 0703 00       		.byte	0x1
 4804 0704 07       		.2byte	0x4f6
 4805 0705 01       		.4byte	0x110
 4806 0706 63797374 		.byte	0x2
 4806      72746F6C 
 4806      00
 4807 070f 01       		.byte	0x91
 4808 0710 F304     		.sleb128 -28
 4809 0712 01       		.uleb128 0x9
 4810 0713 10010000 		.ascii	"negitive\000"
 4811 0717 00000000 		.byte	0x1
 4812 071b 08020000 		.2byte	0x4f7
 4813 071f 39030000 		.4byte	0x110
 4814 0723 C7070000 		.byte	0x2
 4815 0727 08       		.byte	0x91
 4816 0728 7300     		.sleb128 -24
 4817 072a 01       		.uleb128 0x9
 4818 072b F204     		.ascii	"value\000"
 4819 072d F0040000 		.byte	0x1
 4820 0731 02       		.2byte	0x4f8
 4821 0732 91       		.4byte	0xc5
 4822 0733 54       		.byte	0x2
 4823 0734 08       		.byte	0x91
 4824 0735 6500     		.sleb128 -20
 4825 0737 01       		.uleb128 0x9
 4826 0738 F204     		.ascii	"cutoff\000"
 4827 073a C7070000 		.byte	0x1
 4828 073e 02       		.2byte	0x4f9
 4829 073f 91       		.4byte	0xc5
 4830 0740 50       		.byte	0x2
 4831 0741 08       		.byte	0x91
 4832 0742 6200     		.sleb128 -16
 4833 0744 01       		.uleb128 0x9
 4834 0745 F204     		.ascii	"ss\000"
 4835 0747 E8000000 		.byte	0x1
 4836 074b 02       		.2byte	0x4fa
 4837 074c 91       		.4byte	0x4f0
 4838 074d 4F       		.byte	0x2
 4839 074e 09       		.byte	0x91
 4840 074f 64696769 		.sleb128 -12
 4840      7400
 4841 0755 01       		.byte	0x0
ARM GAS  C:\Users\blinky\AppData\Local\Temp/ccwJbaaa.s 			page 122


 4842 0756 F404     		.uleb128 0x4
 4843 0758 D4030000 		.byte	0x4
 4844 075c 02       		.4byte	0x3ce
 4845 075d 91       		.uleb128 0xd
 4846 075e 5F       		.byte	0x1
 4847 075f 09       		.ascii	"CyEnableDigitalArray\000"
 4848 0760 736F6D65 		.byte	0x1
 4848      00
 4849 0765 01       		.2byte	0x586
 4850 0766 F504     		.byte	0x1
 4851 0768 10010000 		.4byte	.LFB18
 4852 076c 02       		.4byte	.LFE18
 4853 076d 91       		.4byte	.LLST16
 4854 076e 60       		.uleb128 0xd
 4855 076f 09       		.byte	0x1
 4856 0770 6375746C 		.ascii	"CyDisableDigitalArray\000"
 4856      696D00
 4857 0777 01       		.byte	0x1
 4858 0778 F604     		.2byte	0x59c
 4859 077a 10010000 		.byte	0x1
 4860 077e 02       		.4byte	.LFB19
 4861 077f 91       		.4byte	.LFE19
 4862 0780 64       		.4byte	.LLST17
 4863 0781 09       		.uleb128 0xe
 4864 0782 6E656769 		.byte	0x1
 4864      74697665 
 4864      00
 4865 078b 01       		.ascii	"CyDelay\000"
 4866 078c F704     		.byte	0x1
 4867 078e 10010000 		.2byte	0x5bc
 4868 0792 02       		.byte	0x1
 4869 0793 91       		.4byte	.LFB20
 4870 0794 68       		.4byte	.LFE20
 4871 0795 09       		.4byte	.LLST18
 4872 0796 76616C75 		.4byte	0x853
 4872      6500
 4873 079c 01       		.uleb128 0x8
 4874 079d F804     		.ascii	"milliseconds\000"
 4875 079f C5000000 		.byte	0x1
 4876 07a3 02       		.2byte	0x5bb
 4877 07a4 91       		.4byte	0xc5
 4878 07a5 6C       		.byte	0x2
 4879 07a6 09       		.byte	0x91
 4880 07a7 6375746F 		.sleb128 -12
 4880      666600
 4881 07ae 01       		.byte	0x0
 4882 07af F904     		.uleb128 0xe
 4883 07b1 C5000000 		.byte	0x1
 4884 07b5 02       		.ascii	"CyDelayUs\000"
 4885 07b6 91       		.byte	0x1
 4886 07b7 70       		.2byte	0x5de
 4887 07b8 09       		.byte	0x1
 4888 07b9 737300   		.4byte	.LFB21
 4889 07bc 01       		.4byte	.LFE21
 4890 07bd FA04     		.4byte	.LLST19
 4891 07bf F0040000 		.4byte	0x88c
 4892 07c3 02       		.uleb128 0x8
ARM GAS  C:\Users\blinky\AppData\Local\Temp/ccwJbaaa.s 			page 123


 4893 07c4 91       		.ascii	"microseconds\000"
 4894 07c5 74       		.byte	0x1
 4895 07c6 00       		.2byte	0x5dd
 4896 07c7 04       		.4byte	0xa1
 4897 07c8 04       		.byte	0x2
 4898 07c9 CE030000 		.byte	0x91
 4899 07cd 0D       		.sleb128 -10
 4900 07ce 01       		.byte	0x0
 4901 07cf 4379456E 		.uleb128 0xe
 4901      61626C65 
 4901      44696769 
 4901      74616C41 
 4901      72726179 
 4902 07e4 01       		.byte	0x1
 4903 07e5 8605     		.ascii	"CyDelayFreq\000"
 4904 07e7 01       		.byte	0x1
 4905 07e8 00000000 		.2byte	0x5f2
 4906 07ec 48000000 		.byte	0x1
 4907 07f0 72030000 		.4byte	.LFB22
 4908 07f4 0D       		.4byte	.LFE22
 4909 07f5 01       		.4byte	.LLST20
 4910 07f6 43794469 		.4byte	0x8bf
 4910      7361626C 
 4910      65446967 
 4910      6974616C 
 4910      41727261 
 4911 080c 01       		.uleb128 0x8
 4912 080d 9C05     		.ascii	"freq\000"
 4913 080f 01       		.byte	0x1
 4914 0810 00000000 		.2byte	0x5f1
 4915 0814 4C000000 		.4byte	0xc5
 4916 0818 9D030000 		.byte	0x2
 4917 081c 0E       		.byte	0x91
 4918 081d 01       		.sleb128 -12
 4919 081e 43794465 		.byte	0x0
 4919      6C617900 
 4920 0826 01       		.uleb128 0x7
 4921 0827 BC05     		.byte	0x1
 4922 0829 01       		.ascii	"CyDisableInts\000"
 4923 082a 00000000 		.byte	0x1
 4924 082e 44000000 		.2byte	0x612
 4925 0832 C8030000 		.byte	0x1
 4926 0836 53080000 		.4byte	0xc5
 4927 083a 08       		.4byte	.LFB23
 4928 083b 6D696C6C 		.4byte	.LFE23
 4928      69736563 
 4928      6F6E6473 
 4928      00
 4929 0848 01       		.4byte	.LLST21
 4930 0849 BB05     		.4byte	0x8f7
 4931 084b C5000000 		.uleb128 0xf
 4932 084f 02       		.4byte	.LASF0
 4933 0850 91       		.byte	0x1
 4934 0851 74       		.2byte	0x613
 4935 0852 00       		.4byte	0xc5
 4936 0853 0E       		.byte	0x2
 4937 0854 01       		.byte	0x91
ARM GAS  C:\Users\blinky\AppData\Local\Temp/ccwJbaaa.s 			page 124


 4938 0855 43794465 		.sleb128 -12
 4938      6C617955 
 4938      7300
 4939 085f 01       		.byte	0x0
 4940 0860 DE05     		.uleb128 0xe
 4941 0862 01       		.byte	0x1
 4942 0863 00000000 		.ascii	"CyEnableInts\000"
 4943 0867 28000000 		.byte	0x1
 4944 086b FF030000 		.2byte	0x62f
 4945 086f 8C080000 		.byte	0x1
 4946 0873 08       		.4byte	.LFB24
 4947 0874 6D696372 		.4byte	.LFE24
 4947      6F736563 
 4947      6F6E6473 
 4947      00
 4948 0881 01       		.4byte	.LLST22
 4949 0882 DD05     		.4byte	0x92a
 4950 0884 A1000000 		.uleb128 0x10
 4951 0888 02       		.4byte	.LASF0
 4952 0889 91       		.byte	0x1
 4953 088a 76       		.2byte	0x62e
 4954 088b 00       		.4byte	0xc5
 4955 088c 0E       		.byte	0x2
 4956 088d 01       		.byte	0x91
 4957 088e 43794465 		.sleb128 -12
 4957      6C617946 
 4957      72657100 
 4958 089a 01       		.byte	0x0
 4959 089b F205     		.uleb128 0xe
 4960 089d 01       		.byte	0x1
 4961 089e 00000000 		.ascii	"CYDEV_FATAL_ABORT\000"
 4962 08a2 84000000 		.byte	0x1
 4963 08a6 36040000 		.2byte	0x644
 4964 08aa BF080000 		.byte	0x1
 4965 08ae 08       		.4byte	.LFB25
 4966 08af 66726571 		.4byte	.LFE25
 4966      00
 4967 08b4 01       		.4byte	.LLST23
 4968 08b5 F105     		.4byte	0x965
 4969 08b7 C5000000 		.uleb128 0x8
 4970 08bb 02       		.ascii	"reason\000"
 4971 08bc 91       		.byte	0x1
 4972 08bd 74       		.2byte	0x643
 4973 08be 00       		.4byte	0x83
 4974 08bf 07       		.byte	0x2
 4975 08c0 01       		.byte	0x91
 4976 08c1 43794469 		.sleb128 -9
 4976      7361626C 
 4976      65496E74 
 4976      7300
 4977 08cf 01       		.byte	0x0
 4978 08d0 1206     		.uleb128 0xd
 4979 08d2 01       		.byte	0x1
 4980 08d3 C5000000 		.ascii	"CySoftwareReset\000"
 4981 08d7 00000000 		.byte	0x1
 4982 08db 28000000 		.2byte	0x65b
 4983 08df 6D040000 		.byte	0x1
ARM GAS  C:\Users\blinky\AppData\Local\Temp/ccwJbaaa.s 			page 125


 4984 08e3 F7080000 		.4byte	.LFB26
 4985 08e7 0F       		.4byte	.LFE26
 4986 08e8 18000000 		.4byte	.LLST24
 4987 08ec 01       		.uleb128 0xe
 4988 08ed 1306     		.byte	0x1
 4989 08ef C5000000 		.ascii	"CyFlushCache\000"
 4990 08f3 02       		.byte	0x1
 4991 08f4 91       		.2byte	0x672
 4992 08f5 74       		.byte	0x1
 4993 08f6 00       		.4byte	.LFB27
 4994 08f7 0E       		.4byte	.LFE27
 4995 08f8 01       		.4byte	.LLST25
 4996 08f9 4379456E 		.4byte	0x9be
 4996      61626C65 
 4996      496E7473 
 4996      00
 4997 0906 01       		.uleb128 0x9
 4998 0907 2F06     		.ascii	"ctrlreg\000"
 4999 0909 01       		.byte	0x1
 5000 090a 00000000 		.2byte	0x674
 5001 090e 1C000000 		.4byte	0xa1
 5002 0912 A4040000 		.byte	0x2
 5003 0916 2A090000 		.byte	0x91
 5004 091a 10       		.sleb128 -10
 5005 091b 18000000 		.byte	0x0
 5006 091f 01       		.uleb128 0x7
 5007 0920 2E06     		.byte	0x1
 5008 0922 C5000000 		.ascii	"CyIntSetSysVector\000"
 5009 0926 02       		.byte	0x1
 5010 0927 91       		.2byte	0x695
 5011 0928 74       		.byte	0x1
 5012 0929 00       		.4byte	0x129
 5013 092a 0E       		.4byte	.LFB28
 5014 092b 01       		.4byte	.LFE28
 5015 092c 43594445 		.4byte	.LLST26
 5015      565F4641 
 5015      54414C5F 
 5015      41424F52 
 5015      5400
 5016 093e 01       		.4byte	0xa2e
 5017 093f 4406     		.uleb128 0x10
 5018 0941 01       		.4byte	.LASF1
 5019 0942 00000000 		.byte	0x1
 5020 0946 20000000 		.2byte	0x694
 5021 094a DB040000 		.4byte	0x94
 5022 094e 65090000 		.byte	0x2
 5023 0952 08       		.byte	0x91
 5024 0953 72656173 		.sleb128 -17
 5024      6F6E00
 5025 095a 01       		.uleb128 0x8
 5026 095b 4306     		.ascii	"address\000"
 5027 095d 83000000 		.byte	0x1
 5028 0961 02       		.2byte	0x694
 5029 0962 91       		.4byte	0x129
 5030 0963 77       		.byte	0x2
 5031 0964 00       		.byte	0x91
 5032 0965 0D       		.sleb128 -24
ARM GAS  C:\Users\blinky\AppData\Local\Temp/ccwJbaaa.s 			page 126


 5033 0966 01       		.uleb128 0x9
 5034 0967 4379536F 		.ascii	"oldIsr\000"
 5034      66747761 
 5034      72655265 
 5034      73657400 
 5035 0977 01       		.byte	0x1
 5036 0978 5B06     		.2byte	0x696
 5037 097a 01       		.4byte	0x129
 5038 097b 00000000 		.byte	0x2
 5039 097f 18000000 		.byte	0x91
 5040 0983 12050000 		.sleb128 -16
 5041 0987 0E       		.uleb128 0xf
 5042 0988 01       		.4byte	.LASF2
 5043 0989 4379466C 		.byte	0x1
 5043      75736843 
 5043      61636865 
 5043      00
 5044 0996 01       		.2byte	0x697
 5045 0997 7206     		.4byte	0xa2e
 5046 0999 01       		.byte	0x2
 5047 099a 00000000 		.byte	0x91
 5048 099e 30000000 		.sleb128 -12
 5049 09a2 3D050000 		.byte	0x0
 5050 09a6 BE090000 		.uleb128 0x4
 5051 09aa 09       		.byte	0x4
 5052 09ab 6374726C 		.4byte	0x129
 5052      72656700 
 5053 09b3 01       		.uleb128 0x7
 5054 09b4 7406     		.byte	0x1
 5055 09b6 A1000000 		.ascii	"CyIntGetSysVector\000"
 5056 09ba 02       		.byte	0x1
 5057 09bb 91       		.2byte	0x6b8
 5058 09bc 76       		.byte	0x1
 5059 09bd 00       		.4byte	0x129
 5060 09be 07       		.4byte	.LFB29
 5061 09bf 01       		.4byte	.LFE29
 5062 09c0 4379496E 		.4byte	.LLST27
 5062      74536574 
 5062      53797356 
 5062      6563746F 
 5062      7200
 5063 09d2 01       		.4byte	0xa7f
 5064 09d3 9506     		.uleb128 0x10
 5065 09d5 01       		.4byte	.LASF1
 5066 09d6 29010000 		.byte	0x1
 5067 09da 00000000 		.2byte	0x6b7
 5068 09de 44000000 		.4byte	0x94
 5069 09e2 74050000 		.byte	0x2
 5070 09e6 2E0A0000 		.byte	0x91
 5071 09ea 10       		.sleb128 -17
 5072 09eb 21000000 		.uleb128 0xf
 5073 09ef 01       		.4byte	.LASF2
 5074 09f0 9406     		.byte	0x1
 5075 09f2 94000000 		.2byte	0x6b9
 5076 09f6 02       		.4byte	0xa2e
 5077 09f7 91       		.byte	0x2
 5078 09f8 6F       		.byte	0x91
ARM GAS  C:\Users\blinky\AppData\Local\Temp/ccwJbaaa.s 			page 127


 5079 09f9 08       		.sleb128 -12
 5080 09fa 61646472 		.byte	0x0
 5080      65737300 
 5081 0a02 01       		.uleb128 0x7
 5082 0a03 9406     		.byte	0x1
 5083 0a05 29010000 		.ascii	"CyIntSetVector\000"
 5084 0a09 02       		.byte	0x1
 5085 0a0a 91       		.2byte	0x6d3
 5086 0a0b 68       		.byte	0x1
 5087 0a0c 09       		.4byte	0x129
 5088 0a0d 6F6C6449 		.4byte	.LFB30
 5088      737200
 5089 0a14 01       		.4byte	.LFE30
 5090 0a15 9606     		.4byte	.LLST28
 5091 0a17 29010000 		.4byte	0xaec
 5092 0a1b 02       		.uleb128 0x10
 5093 0a1c 91       		.4byte	.LASF1
 5094 0a1d 70       		.byte	0x1
 5095 0a1e 0F       		.2byte	0x6d2
 5096 0a1f 09000000 		.4byte	0x94
 5097 0a23 01       		.byte	0x2
 5098 0a24 9706     		.byte	0x91
 5099 0a26 2E0A0000 		.sleb128 -17
 5100 0a2a 02       		.uleb128 0x8
 5101 0a2b 91       		.ascii	"address\000"
 5102 0a2c 74       		.byte	0x1
 5103 0a2d 00       		.2byte	0x6d2
 5104 0a2e 04       		.4byte	0x129
 5105 0a2f 04       		.byte	0x2
 5106 0a30 29010000 		.byte	0x91
 5107 0a34 07       		.sleb128 -24
 5108 0a35 01       		.uleb128 0x9
 5109 0a36 4379496E 		.ascii	"oldIsr\000"
 5109      74476574 
 5109      53797356 
 5109      6563746F 
 5109      7200
 5110 0a48 01       		.byte	0x1
 5111 0a49 B806     		.2byte	0x6d4
 5112 0a4b 01       		.4byte	0x129
 5113 0a4c 29010000 		.byte	0x2
 5114 0a50 00000000 		.byte	0x91
 5115 0a54 30000000 		.sleb128 -16
 5116 0a58 AB050000 		.uleb128 0xf
 5117 0a5c 7F0A0000 		.4byte	.LASF2
 5118 0a60 10       		.byte	0x1
 5119 0a61 21000000 		.2byte	0x6d5
 5120 0a65 01       		.4byte	0xa2e
 5121 0a66 B706     		.byte	0x2
 5122 0a68 94000000 		.byte	0x91
 5123 0a6c 02       		.sleb128 -12
 5124 0a6d 91       		.byte	0x0
 5125 0a6e 6F       		.uleb128 0x7
 5126 0a6f 0F       		.byte	0x1
 5127 0a70 09000000 		.ascii	"CyIntGetVector\000"
 5128 0a74 01       		.byte	0x1
 5129 0a75 B906     		.2byte	0x6f6
ARM GAS  C:\Users\blinky\AppData\Local\Temp/ccwJbaaa.s 			page 128


 5130 0a77 2E0A0000 		.byte	0x1
 5131 0a7b 02       		.4byte	0x129
 5132 0a7c 91       		.4byte	.LFB31
 5133 0a7d 74       		.4byte	.LFE31
 5134 0a7e 00       		.4byte	.LLST29
 5135 0a7f 07       		.4byte	0xb34
 5136 0a80 01       		.uleb128 0x10
 5137 0a81 4379496E 		.4byte	.LASF1
 5137      74536574 
 5137      56656374 
 5137      6F7200
 5138 0a90 01       		.byte	0x1
 5139 0a91 D306     		.2byte	0x6f5
 5140 0a93 01       		.4byte	0x94
 5141 0a94 29010000 		.byte	0x2
 5142 0a98 00000000 		.byte	0x91
 5143 0a9c 48000000 		.sleb128 -17
 5144 0aa0 E2050000 		.uleb128 0xf
 5145 0aa4 EC0A0000 		.4byte	.LASF2
 5146 0aa8 10       		.byte	0x1
 5147 0aa9 21000000 		.2byte	0x6f7
 5148 0aad 01       		.4byte	0xa2e
 5149 0aae D206     		.byte	0x2
 5150 0ab0 94000000 		.byte	0x91
 5151 0ab4 02       		.sleb128 -12
 5152 0ab5 91       		.byte	0x0
 5153 0ab6 6F       		.uleb128 0xe
 5154 0ab7 08       		.byte	0x1
 5155 0ab8 61646472 		.ascii	"CyIntSetPriority\000"
 5155      65737300 
 5156 0ac0 01       		.byte	0x1
 5157 0ac1 D206     		.2byte	0x711
 5158 0ac3 29010000 		.byte	0x1
 5159 0ac7 02       		.4byte	.LFB32
 5160 0ac8 91       		.4byte	.LFE32
 5161 0ac9 68       		.4byte	.LLST30
 5162 0aca 09       		.4byte	0xb7a
 5163 0acb 6F6C6449 		.uleb128 0x10
 5163      737200
 5164 0ad2 01       		.4byte	.LASF1
 5165 0ad3 D406     		.byte	0x1
 5166 0ad5 29010000 		.2byte	0x710
 5167 0ad9 02       		.4byte	0x94
 5168 0ada 91       		.byte	0x2
 5169 0adb 70       		.byte	0x91
 5170 0adc 0F       		.sleb128 -9
 5171 0add 09000000 		.uleb128 0x10
 5172 0ae1 01       		.4byte	.LASF3
 5173 0ae2 D506     		.byte	0x1
 5174 0ae4 2E0A0000 		.2byte	0x710
 5175 0ae8 02       		.4byte	0x94
 5176 0ae9 91       		.byte	0x2
 5177 0aea 74       		.byte	0x91
 5178 0aeb 00       		.sleb128 -10
 5179 0aec 07       		.byte	0x0
 5180 0aed 01       		.uleb128 0x7
 5181 0aee 4379496E 		.byte	0x1
ARM GAS  C:\Users\blinky\AppData\Local\Temp/ccwJbaaa.s 			page 129


 5181      74476574 
 5181      56656374 
 5181      6F7200
 5182 0afd 01       		.ascii	"CyIntGetPriority\000"
 5183 0afe F606     		.byte	0x1
 5184 0b00 01       		.2byte	0x726
 5185 0b01 29010000 		.byte	0x1
 5186 0b05 00000000 		.4byte	0x94
 5187 0b09 30000000 		.4byte	.LFB33
 5188 0b0d 19060000 		.4byte	.LFE33
 5189 0b11 340B0000 		.4byte	.LLST31
 5190 0b15 10       		.4byte	0xbc4
 5191 0b16 21000000 		.uleb128 0x10
 5192 0b1a 01       		.4byte	.LASF1
 5193 0b1b F506     		.byte	0x1
 5194 0b1d 94000000 		.2byte	0x725
 5195 0b21 02       		.4byte	0x94
 5196 0b22 91       		.byte	0x2
 5197 0b23 6F       		.byte	0x91
 5198 0b24 0F       		.sleb128 -17
 5199 0b25 09000000 		.uleb128 0xf
 5200 0b29 01       		.4byte	.LASF3
 5201 0b2a F706     		.byte	0x1
 5202 0b2c 2E0A0000 		.2byte	0x727
 5203 0b30 02       		.4byte	0x94
 5204 0b31 91       		.byte	0x2
 5205 0b32 74       		.byte	0x91
 5206 0b33 00       		.sleb128 -9
 5207 0b34 0E       		.byte	0x0
 5208 0b35 01       		.uleb128 0xe
 5209 0b36 4379496E 		.byte	0x1
 5209      74536574 
 5209      5072696F 
 5209      72697479 
 5209      00
 5210 0b47 01       		.ascii	"CyIntEnable\000"
 5211 0b48 1107     		.byte	0x1
 5212 0b4a 01       		.2byte	0x740
 5213 0b4b 00000000 		.byte	0x1
 5214 0b4f 2E000000 		.4byte	.LFB34
 5215 0b53 50060000 		.4byte	.LFE34
 5216 0b57 7A0B0000 		.4byte	.LLST32
 5217 0b5b 10       		.4byte	0xc0b
 5218 0b5c 21000000 		.uleb128 0x10
 5219 0b60 01       		.4byte	.LASF1
 5220 0b61 1007     		.byte	0x1
 5221 0b63 94000000 		.2byte	0x73f
 5222 0b67 02       		.4byte	0x94
 5223 0b68 91       		.byte	0x2
 5224 0b69 77       		.byte	0x91
 5225 0b6a 10       		.sleb128 -17
 5226 0b6b 00000000 		.uleb128 0x9
 5227 0b6f 01       		.ascii	"enableReg\000"
 5228 0b70 1007     		.byte	0x1
 5229 0b72 94000000 		.2byte	0x741
 5230 0b76 02       		.4byte	0xc0b
 5231 0b77 91       		.byte	0x2
ARM GAS  C:\Users\blinky\AppData\Local\Temp/ccwJbaaa.s 			page 130


 5232 0b78 76       		.byte	0x91
 5233 0b79 00       		.sleb128 -12
 5234 0b7a 07       		.byte	0x0
 5235 0b7b 01       		.uleb128 0x4
 5236 0b7c 4379496E 		.byte	0x4
 5236      74476574 
 5236      5072696F 
 5236      72697479 
 5236      00
 5237 0b8d 01       		.4byte	0x145
 5238 0b8e 2607     		.uleb128 0x7
 5239 0b90 01       		.byte	0x1
 5240 0b91 94000000 		.ascii	"CyIntGetState\000"
 5241 0b95 00000000 		.byte	0x1
 5242 0b99 2C000000 		.2byte	0x75c
 5243 0b9d 87060000 		.byte	0x1
 5244 0ba1 C40B0000 		.4byte	0x94
 5245 0ba5 10       		.4byte	.LFB35
 5246 0ba6 21000000 		.4byte	.LFE35
 5247 0baa 01       		.4byte	.LLST33
 5248 0bab 2507     		.4byte	0xc5d
 5249 0bad 94000000 		.uleb128 0x10
 5250 0bb1 02       		.4byte	.LASF1
 5251 0bb2 91       		.byte	0x1
 5252 0bb3 6F       		.2byte	0x75b
 5253 0bb4 0F       		.4byte	0x94
 5254 0bb5 00000000 		.byte	0x2
 5255 0bb9 01       		.byte	0x91
 5256 0bba 2707     		.sleb128 -17
 5257 0bbc 94000000 		.uleb128 0x9
 5258 0bc0 02       		.ascii	"stateReg\000"
 5259 0bc1 91       		.byte	0x1
 5260 0bc2 77       		.2byte	0x75d
 5261 0bc3 00       		.4byte	0xc0b
 5262 0bc4 0E       		.byte	0x2
 5263 0bc5 01       		.byte	0x91
 5264 0bc6 4379496E 		.sleb128 -12
 5264      74456E61 
 5264      626C6500 
 5265 0bd2 01       		.byte	0x0
 5266 0bd3 4007     		.uleb128 0xe
 5267 0bd5 01       		.byte	0x1
 5268 0bd6 00000000 		.ascii	"CyIntDisable\000"
 5269 0bda 30000000 		.byte	0x1
 5270 0bde BE060000 		.2byte	0x778
 5271 0be2 0B0C0000 		.byte	0x1
 5272 0be6 10       		.4byte	.LFB36
 5273 0be7 21000000 		.4byte	.LFE36
 5274 0beb 01       		.4byte	.LLST34
 5275 0bec 3F07     		.4byte	0xca4
 5276 0bee 94000000 		.uleb128 0x10
 5277 0bf2 02       		.4byte	.LASF1
 5278 0bf3 91       		.byte	0x1
 5279 0bf4 6F       		.2byte	0x777
 5280 0bf5 09       		.4byte	0x94
 5281 0bf6 656E6162 		.byte	0x2
 5281      6C655265 
ARM GAS  C:\Users\blinky\AppData\Local\Temp/ccwJbaaa.s 			page 131


 5281      6700
 5282 0c00 01       		.byte	0x91
 5283 0c01 4107     		.sleb128 -17
 5284 0c03 0B0C0000 		.uleb128 0x9
 5285 0c07 02       		.ascii	"clearReg\000"
 5286 0c08 91       		.byte	0x1
 5287 0c09 74       		.2byte	0x779
 5288 0c0a 00       		.4byte	0xc0b
 5289 0c0b 04       		.byte	0x2
 5290 0c0c 04       		.byte	0x91
 5291 0c0d 45010000 		.sleb128 -12
 5292 0c11 07       		.byte	0x0
 5293 0c12 01       		.uleb128 0xe
 5294 0c13 4379496E 		.byte	0x1
 5294      74476574 
 5294      53746174 
 5294      6500
 5295 0c21 01       		.ascii	"CyIntSetPending\000"
 5296 0c22 5C07     		.byte	0x1
 5297 0c24 01       		.2byte	0x795
 5298 0c25 94000000 		.byte	0x1
 5299 0c29 00000000 		.4byte	.LFB37
 5300 0c2d 3C000000 		.4byte	.LFE37
 5301 0c31 F5060000 		.4byte	.LLST35
 5302 0c35 5D0C0000 		.4byte	0xced
 5303 0c39 10       		.uleb128 0x10
 5304 0c3a 21000000 		.4byte	.LASF1
 5305 0c3e 01       		.byte	0x1
 5306 0c3f 5B07     		.2byte	0x794
 5307 0c41 94000000 		.4byte	0x94
 5308 0c45 02       		.byte	0x2
 5309 0c46 91       		.byte	0x91
 5310 0c47 6F       		.sleb128 -17
 5311 0c48 09       		.uleb128 0x9
 5312 0c49 73746174 		.ascii	"pendReg\000"
 5312      65526567 
 5312      00
 5313 0c52 01       		.byte	0x1
 5314 0c53 5D07     		.2byte	0x796
 5315 0c55 0B0C0000 		.4byte	0xc0b
 5316 0c59 02       		.byte	0x2
 5317 0c5a 91       		.byte	0x91
 5318 0c5b 74       		.sleb128 -12
 5319 0c5c 00       		.byte	0x0
 5320 0c5d 0E       		.uleb128 0xe
 5321 0c5e 01       		.byte	0x1
 5322 0c5f 4379496E 		.ascii	"CyIntClearPending\000"
 5322      74446973 
 5322      61626C65 
 5322      00
 5323 0c6c 01       		.byte	0x1
 5324 0c6d 7807     		.2byte	0x7b1
 5325 0c6f 01       		.byte	0x1
 5326 0c70 00000000 		.4byte	.LFB38
 5327 0c74 30000000 		.4byte	.LFE38
 5328 0c78 2C070000 		.4byte	.LLST36
 5329 0c7c A40C0000 		.4byte	0xd38
ARM GAS  C:\Users\blinky\AppData\Local\Temp/ccwJbaaa.s 			page 132


 5330 0c80 10       		.uleb128 0x10
 5331 0c81 21000000 		.4byte	.LASF1
 5332 0c85 01       		.byte	0x1
 5333 0c86 7707     		.2byte	0x7b0
 5334 0c88 94000000 		.4byte	0x94
 5335 0c8c 02       		.byte	0x2
 5336 0c8d 91       		.byte	0x91
 5337 0c8e 6F       		.sleb128 -17
 5338 0c8f 09       		.uleb128 0x9
 5339 0c90 636C6561 		.ascii	"pendReg\000"
 5339      72526567 
 5339      00
 5340 0c99 01       		.byte	0x1
 5341 0c9a 7907     		.2byte	0x7b2
 5342 0c9c 0B0C0000 		.4byte	0xc0b
 5343 0ca0 02       		.byte	0x2
 5344 0ca1 91       		.byte	0x91
 5345 0ca2 74       		.sleb128 -12
 5346 0ca3 00       		.byte	0x0
 5347 0ca4 0E       		.uleb128 0x11
 5348 0ca5 01       		.ascii	"__ctype_ptr\000"
 5349 0ca6 4379496E 		.byte	0x3
 5349      74536574 
 5349      50656E64 
 5349      696E6700 
 5350 0cb6 01       		.byte	0x27
 5351 0cb7 9507     		.4byte	0x4f0
 5352 0cb9 01       		.byte	0x1
 5353 0cba 00000000 		.byte	0x1
 5354 0cbe 30000000 		.uleb128 0x12
 5355 0cc2 63070000 		.ascii	"cydelay_freq_hz\000"
 5356 0cc6 ED0C0000 		.byte	0x1
 5357 0cca 10       		.2byte	0x5a3
 5358 0ccb 21000000 		.4byte	0xc5
 5359 0ccf 01       		.byte	0x1
 5360 0cd0 9407     		.byte	0x5
 5361 0cd2 94000000 		.byte	0x3
 5362 0cd6 02       		.4byte	cydelay_freq_hz
 5363 0cd7 91       		.uleb128 0x12
 5364 0cd8 6F       		.ascii	"cydelay_freq_khz\000"
 5365 0cd9 09       		.byte	0x1
 5366 0cda 70656E64 		.2byte	0x5a4
 5366      52656700 
 5367 0ce2 01       		.4byte	0xc5
 5368 0ce3 9607     		.byte	0x1
 5369 0ce5 0B0C0000 		.byte	0x5
 5370 0ce9 02       		.byte	0x3
 5371 0cea 91       		.4byte	cydelay_freq_khz
 5372 0ceb 74       		.uleb128 0x12
 5373 0cec 00       		.ascii	"cydelay_freq_mhz\000"
 5374 0ced 0E       		.byte	0x1
 5375 0cee 01       		.2byte	0x5a5
 5376 0cef 4379496E 		.4byte	0x94
 5376      74436C65 
 5376      61725065 
 5376      6E64696E 
 5376      6700
ARM GAS  C:\Users\blinky\AppData\Local\Temp/ccwJbaaa.s 			page 133


 5377 0d01 01       		.byte	0x1
 5378 0d02 B107     		.byte	0x5
 5379 0d04 01       		.byte	0x3
 5380 0d05 00000000 		.4byte	cydelay_freq_mhz
 5381 0d09 30000000 		.uleb128 0x12
 5382 0d0d 9A070000 		.ascii	"cydelay_32k_ms\000"
 5383 0d11 380D0000 		.byte	0x1
 5384 0d15 10       		.2byte	0x5a6
 5385 0d16 21000000 		.4byte	0xc5
 5386 0d1a 01       		.byte	0x1
 5387 0d1b B007     		.byte	0x5
 5388 0d1d 94000000 		.byte	0x3
 5389 0d21 02       		.4byte	cydelay_32k_ms
 5390 0d22 91       		.byte	0x0
 5391 0d23 6F       		.section	.debug_abbrev
 5392 0d24 09       		.uleb128 0x1
 5393 0d25 70656E64 		.uleb128 0x11
 5393      52656700 
 5394 0d2d 01       		.byte	0x1
 5395 0d2e B207     		.uleb128 0x25
 5396 0d30 0B0C0000 		.uleb128 0x8
 5397 0d34 02       		.uleb128 0x13
 5398 0d35 91       		.uleb128 0xb
 5399 0d36 74       		.uleb128 0x3
 5400 0d37 00       		.uleb128 0x8
 5401 0d38 11       		.uleb128 0x1b
 5402 0d39 5F5F6374 		.uleb128 0x8
 5402      7970655F 
 5402      70747200 
 5403 0d45 03       		.uleb128 0x52
 5404 0d46 27       		.uleb128 0x1
 5405 0d47 F0040000 		.uleb128 0x10
 5406 0d4b 01       		.uleb128 0x6
 5407 0d4c 01       		.byte	0x0
 5408 0d4d 12       		.byte	0x0
 5409 0d4e 63796465 		.uleb128 0x2
 5409      6C61795F 
 5409      66726571 
 5409      5F687A00 
 5410 0d5e 01       		.uleb128 0x24
 5411 0d5f A305     		.byte	0x0
 5412 0d61 C5000000 		.uleb128 0xb
 5413 0d65 01       		.uleb128 0xb
 5414 0d66 05       		.uleb128 0x3e
 5415 0d67 03       		.uleb128 0xb
 5416 0d68 00000000 		.uleb128 0x3
 5417 0d6c 12       		.uleb128 0x8
 5418 0d6d 63796465 		.byte	0x0
 5418      6C61795F 
 5418      66726571 
 5418      5F6B687A 
 5418      00
 5419 0d7e 01       		.byte	0x0
 5420 0d7f A405     		.uleb128 0x3
 5421 0d81 C5000000 		.uleb128 0x16
 5422 0d85 01       		.byte	0x0
 5423 0d86 05       		.uleb128 0x3
ARM GAS  C:\Users\blinky\AppData\Local\Temp/ccwJbaaa.s 			page 134


 5424 0d87 03       		.uleb128 0x8
 5425 0d88 00000000 		.uleb128 0x3a
 5426 0d8c 12       		.uleb128 0xb
 5427 0d8d 63796465 		.uleb128 0x3b
 5427      6C61795F 
 5427      66726571 
 5427      5F6D687A 
 5427      00
 5428 0d9e 01       		.uleb128 0xb
 5429 0d9f A505     		.uleb128 0x49
 5430 0da1 94000000 		.uleb128 0x13
 5431 0da5 01       		.byte	0x0
 5432 0da6 05       		.byte	0x0
 5433 0da7 03       		.uleb128 0x4
 5434 0da8 00000000 		.uleb128 0xf
 5435 0dac 12       		.byte	0x0
 5436 0dad 63796465 		.uleb128 0xb
 5436      6C61795F 
 5436      33326B5F 
 5436      6D7300
 5437 0dbc 01       		.uleb128 0xb
 5438 0dbd A605     		.uleb128 0x49
 5439 0dbf C5000000 		.uleb128 0x13
 5440 0dc3 01       		.byte	0x0
 5441 0dc4 05       		.byte	0x0
 5442 0dc5 03       		.uleb128 0x5
 5443 0dc6 00000000 		.uleb128 0x15
 5444 0dca 00       		.byte	0x0
 5445              		.uleb128 0x27
 5446 0000 01       		.uleb128 0xc
 5447 0001 11       		.byte	0x0
 5448 0002 01       		.byte	0x0
 5449 0003 25       		.uleb128 0x6
 5450 0004 08       		.uleb128 0x35
 5451 0005 13       		.byte	0x0
 5452 0006 0B       		.uleb128 0x49
 5453 0007 03       		.uleb128 0x13
 5454 0008 08       		.byte	0x0
 5455 0009 1B       		.byte	0x0
 5456 000a 08       		.uleb128 0x7
 5457 000b 52       		.uleb128 0x2e
 5458 000c 01       		.byte	0x1
 5459 000d 10       		.uleb128 0x3f
 5460 000e 06       		.uleb128 0xc
 5461 000f 00       		.uleb128 0x3
 5462 0010 00       		.uleb128 0x8
 5463 0011 02       		.uleb128 0x3a
 5464 0012 24       		.uleb128 0xb
 5465 0013 00       		.uleb128 0x3b
 5466 0014 0B       		.uleb128 0x5
 5467 0015 0B       		.uleb128 0x27
 5468 0016 3E       		.uleb128 0xc
 5469 0017 0B       		.uleb128 0x49
 5470 0018 03       		.uleb128 0x13
 5471 0019 08       		.uleb128 0x11
 5472 001a 00       		.uleb128 0x1
 5473 001b 00       		.uleb128 0x12
ARM GAS  C:\Users\blinky\AppData\Local\Temp/ccwJbaaa.s 			page 135


 5474 001c 03       		.uleb128 0x1
 5475 001d 16       		.uleb128 0x40
 5476 001e 00       		.uleb128 0x6
 5477 001f 03       		.uleb128 0x1
 5478 0020 08       		.uleb128 0x13
 5479 0021 3A       		.byte	0x0
 5480 0022 0B       		.byte	0x0
 5481 0023 3B       		.uleb128 0x8
 5482 0024 0B       		.uleb128 0x5
 5483 0025 49       		.byte	0x0
 5484 0026 13       		.uleb128 0x3
 5485 0027 00       		.uleb128 0x8
 5486 0028 00       		.uleb128 0x3a
 5487 0029 04       		.uleb128 0xb
 5488 002a 0F       		.uleb128 0x3b
 5489 002b 00       		.uleb128 0x5
 5490 002c 0B       		.uleb128 0x49
 5491 002d 0B       		.uleb128 0x13
 5492 002e 49       		.uleb128 0x2
 5493 002f 13       		.uleb128 0xa
 5494 0030 00       		.byte	0x0
 5495 0031 00       		.byte	0x0
 5496 0032 05       		.uleb128 0x9
 5497 0033 15       		.uleb128 0x34
 5498 0034 00       		.byte	0x0
 5499 0035 27       		.uleb128 0x3
 5500 0036 0C       		.uleb128 0x8
 5501 0037 00       		.uleb128 0x3a
 5502 0038 00       		.uleb128 0xb
 5503 0039 06       		.uleb128 0x3b
 5504 003a 35       		.uleb128 0x5
 5505 003b 00       		.uleb128 0x49
 5506 003c 49       		.uleb128 0x13
 5507 003d 13       		.uleb128 0x2
 5508 003e 00       		.uleb128 0xa
 5509 003f 00       		.byte	0x0
 5510 0040 07       		.byte	0x0
 5511 0041 2E       		.uleb128 0xa
 5512 0042 01       		.uleb128 0xf
 5513 0043 3F       		.byte	0x0
 5514 0044 0C       		.uleb128 0xb
 5515 0045 03       		.uleb128 0xb
 5516 0046 08       		.byte	0x0
 5517 0047 3A       		.byte	0x0
 5518 0048 0B       		.uleb128 0xb
 5519 0049 3B       		.uleb128 0x26
 5520 004a 05       		.byte	0x0
 5521 004b 27       		.byte	0x0
 5522 004c 0C       		.byte	0x0
 5523 004d 49       		.uleb128 0xc
 5524 004e 13       		.uleb128 0x26
 5525 004f 11       		.byte	0x0
 5526 0050 01       		.uleb128 0x49
 5527 0051 12       		.uleb128 0x13
 5528 0052 01       		.byte	0x0
 5529 0053 40       		.byte	0x0
 5530 0054 06       		.uleb128 0xd
ARM GAS  C:\Users\blinky\AppData\Local\Temp/ccwJbaaa.s 			page 136


 5531 0055 01       		.uleb128 0x2e
 5532 0056 13       		.byte	0x0
 5533 0057 00       		.uleb128 0x3f
 5534 0058 00       		.uleb128 0xc
 5535 0059 08       		.uleb128 0x3
 5536 005a 05       		.uleb128 0x8
 5537 005b 00       		.uleb128 0x3a
 5538 005c 03       		.uleb128 0xb
 5539 005d 08       		.uleb128 0x3b
 5540 005e 3A       		.uleb128 0x5
 5541 005f 0B       		.uleb128 0x27
 5542 0060 3B       		.uleb128 0xc
 5543 0061 05       		.uleb128 0x11
 5544 0062 49       		.uleb128 0x1
 5545 0063 13       		.uleb128 0x12
 5546 0064 02       		.uleb128 0x1
 5547 0065 0A       		.uleb128 0x40
 5548 0066 00       		.uleb128 0x6
 5549 0067 00       		.byte	0x0
 5550 0068 09       		.byte	0x0
 5551 0069 34       		.uleb128 0xe
 5552 006a 00       		.uleb128 0x2e
 5553 006b 03       		.byte	0x1
 5554 006c 08       		.uleb128 0x3f
 5555 006d 3A       		.uleb128 0xc
 5556 006e 0B       		.uleb128 0x3
 5557 006f 3B       		.uleb128 0x8
 5558 0070 05       		.uleb128 0x3a
 5559 0071 49       		.uleb128 0xb
 5560 0072 13       		.uleb128 0x3b
 5561 0073 02       		.uleb128 0x5
 5562 0074 0A       		.uleb128 0x27
 5563 0075 00       		.uleb128 0xc
 5564 0076 00       		.uleb128 0x11
 5565 0077 0A       		.uleb128 0x1
 5566 0078 0F       		.uleb128 0x12
 5567 0079 00       		.uleb128 0x1
 5568 007a 0B       		.uleb128 0x40
 5569 007b 0B       		.uleb128 0x6
 5570 007c 00       		.uleb128 0x1
 5571 007d 00       		.uleb128 0x13
 5572 007e 0B       		.byte	0x0
 5573 007f 26       		.byte	0x0
 5574 0080 00       		.uleb128 0xf
 5575 0081 00       		.uleb128 0x34
 5576 0082 00       		.byte	0x0
 5577 0083 0C       		.uleb128 0x3
 5578 0084 26       		.uleb128 0xe
 5579 0085 00       		.uleb128 0x3a
 5580 0086 49       		.uleb128 0xb
 5581 0087 13       		.uleb128 0x3b
 5582 0088 00       		.uleb128 0x5
 5583 0089 00       		.uleb128 0x49
 5584 008a 0D       		.uleb128 0x13
 5585 008b 2E       		.uleb128 0x2
 5586 008c 00       		.uleb128 0xa
 5587 008d 3F       		.byte	0x0
ARM GAS  C:\Users\blinky\AppData\Local\Temp/ccwJbaaa.s 			page 137


 5588 008e 0C       		.byte	0x0
 5589 008f 03       		.uleb128 0x10
 5590 0090 08       		.uleb128 0x5
 5591 0091 3A       		.byte	0x0
 5592 0092 0B       		.uleb128 0x3
 5593 0093 3B       		.uleb128 0xe
 5594 0094 05       		.uleb128 0x3a
 5595 0095 27       		.uleb128 0xb
 5596 0096 0C       		.uleb128 0x3b
 5597 0097 11       		.uleb128 0x5
 5598 0098 01       		.uleb128 0x49
 5599 0099 12       		.uleb128 0x13
 5600 009a 01       		.uleb128 0x2
 5601 009b 40       		.uleb128 0xa
 5602 009c 06       		.byte	0x0
 5603 009d 00       		.byte	0x0
 5604 009e 00       		.uleb128 0x11
 5605 009f 0E       		.uleb128 0x34
 5606 00a0 2E       		.byte	0x0
 5607 00a1 01       		.uleb128 0x3
 5608 00a2 3F       		.uleb128 0x8
 5609 00a3 0C       		.uleb128 0x3a
 5610 00a4 03       		.uleb128 0xb
 5611 00a5 08       		.uleb128 0x3b
 5612 00a6 3A       		.uleb128 0xb
 5613 00a7 0B       		.uleb128 0x49
 5614 00a8 3B       		.uleb128 0x13
 5615 00a9 05       		.uleb128 0x3f
 5616 00aa 27       		.uleb128 0xc
 5617 00ab 0C       		.uleb128 0x3c
 5618 00ac 11       		.uleb128 0xc
 5619 00ad 01       		.byte	0x0
 5620 00ae 12       		.byte	0x0
 5621 00af 01       		.uleb128 0x12
 5622 00b0 40       		.uleb128 0x34
 5623 00b1 06       		.byte	0x0
 5624 00b2 01       		.uleb128 0x3
 5625 00b3 13       		.uleb128 0x8
 5626 00b4 00       		.uleb128 0x3a
 5627 00b5 00       		.uleb128 0xb
 5628 00b6 0F       		.uleb128 0x3b
 5629 00b7 34       		.uleb128 0x5
 5630 00b8 00       		.uleb128 0x49
 5631 00b9 03       		.uleb128 0x13
 5632 00ba 0E       		.uleb128 0x3f
 5633 00bb 3A       		.uleb128 0xc
 5634 00bc 0B       		.uleb128 0x2
 5635 00bd 3B       		.uleb128 0xa
 5636 00be 05       		.byte	0x0
 5637 00bf 49       		.byte	0x0
 5638 00c0 13       		.byte	0x0
 5639 00c1 02       		.section	.debug_pubnames,"",%progbits
 5640 00c2 0A       		.4byte	0x2c8
 5641 00c3 00       		.2byte	0x2
 5642 00c4 00       		.4byte	.Ldebug_info0
 5643 00c5 10       		.4byte	0xdcb
 5644 00c6 05       		.4byte	0x14a
ARM GAS  C:\Users\blinky\AppData\Local\Temp/ccwJbaaa.s 			page 138


 5645 00c7 00       		.ascii	"cymemset\000"
 5646 00c8 03       		.4byte	0x1a5
 5647 00c9 0E       		.ascii	"cymemcpy\000"
 5648 00ca 3A       		.4byte	0x21d
 5649 00cb 0B       		.ascii	"cymemmove\000"
 5650 00cc 3B       		.4byte	0x289
 5651 00cd 05       		.ascii	"cymemcmp\000"
 5652 00ce 49       		.4byte	0x313
 5653 00cf 13       		.ascii	"cymemchr\000"
 5654 00d0 02       		.4byte	0x372
 5655 00d1 0A       		.ascii	"cystrcat\000"
 5656 00d2 00       		.4byte	0x3dc
 5657 00d3 00       		.ascii	"cystrcpy\000"
 5658 00d4 11       		.4byte	0x438
 5659 00d5 34       		.ascii	"cystrncpy\000"
 5660 00d6 00       		.4byte	0x4b2
 5661 00d7 03       		.ascii	"cystrlen\000"
 5662 00d8 08       		.4byte	0x4fb
 5663 00d9 3A       		.ascii	"cystrcmp\000"
 5664 00da 0B       		.4byte	0x548
 5665 00db 3B       		.ascii	"cystrncmp\000"
 5666 00dc 0B       		.4byte	0x5a3
 5667 00dd 49       		.ascii	"cystrncat\000"
 5668 00de 13       		.4byte	0x610
 5669 00df 3F       		.ascii	"cystrchr\000"
 5670 00e0 0C       		.4byte	0x65c
 5671 00e1 3C       		.ascii	"cystrrchr\000"
 5672 00e2 0C       		.4byte	0x6a9
 5673 00e3 00       		.ascii	"cystrstr\000"
 5674 00e4 00       		.4byte	0x704
 5675 00e5 12       		.ascii	"cystrtol\000"
 5676 00e6 34       		.4byte	0x7cd
 5677 00e7 00       		.ascii	"CyEnableDigitalArray\000"
 5678 00e8 03       		.4byte	0x7f4
 5679 00e9 08       		.ascii	"CyDisableDigitalArray\000"
 5680 00ea 3A       		.4byte	0x81c
 5681 00eb 0B       		.ascii	"CyDelay\000"
 5682 00ec 3B       		.4byte	0x853
 5683 00ed 05       		.ascii	"CyDelayUs\000"
 5684 00ee 49       		.4byte	0x88c
 5685 00ef 13       		.ascii	"CyDelayFreq\000"
 5686 00f0 3F       		.4byte	0x8bf
 5687 00f1 0C       		.ascii	"CyDisableInts\000"
 5688 00f2 02       		.4byte	0x8f7
 5689 00f3 0A       		.ascii	"CyEnableInts\000"
 5690 00f4 00       		.4byte	0x92a
 5691 00f5 00       		.ascii	"CYDEV_FATAL_ABORT\000"
 5692 00f6 00       		.4byte	0x965
 5693              		.ascii	"CySoftwareReset\000"
 5694 0000 C8020000 		.4byte	0x987
 5695 0004 0200     		.ascii	"CyFlushCache\000"
 5696 0006 00000000 		.4byte	0x9be
 5697 000a CB0D0000 		.ascii	"CyIntSetSysVector\000"
 5698 000e 4A010000 		.4byte	0xa34
 5699 0012 63796D65 		.ascii	"CyIntGetSysVector\000"
 5699      6D736574 
 5699      00
ARM GAS  C:\Users\blinky\AppData\Local\Temp/ccwJbaaa.s 			page 139


 5700 001b A5010000 		.4byte	0xa7f
 5701 001f 63796D65 		.ascii	"CyIntSetVector\000"
 5701      6D637079 
 5701      00
 5702 0028 1D020000 		.4byte	0xaec
 5703 002c 63796D65 		.ascii	"CyIntGetVector\000"
 5703      6D6D6F76 
 5703      6500
 5704 0036 89020000 		.4byte	0xb34
 5705 003a 63796D65 		.ascii	"CyIntSetPriority\000"
 5705      6D636D70 
 5705      00
 5706 0043 13030000 		.4byte	0xb7a
 5707 0047 63796D65 		.ascii	"CyIntGetPriority\000"
 5707      6D636872 
 5707      00
 5708 0050 72030000 		.4byte	0xbc4
 5709 0054 63797374 		.ascii	"CyIntEnable\000"
 5709      72636174 
 5709      00
 5710 005d DC030000 		.4byte	0xc11
 5711 0061 63797374 		.ascii	"CyIntGetState\000"
 5711      72637079 
 5711      00
 5712 006a 38040000 		.4byte	0xc5d
 5713 006e 63797374 		.ascii	"CyIntDisable\000"
 5713      726E6370 
 5713      7900
 5714 0078 B2040000 		.4byte	0xca4
 5715 007c 63797374 		.ascii	"CyIntSetPending\000"
 5715      726C656E 
 5715      00
 5716 0085 FB040000 		.4byte	0xced
 5717 0089 63797374 		.ascii	"CyIntClearPending\000"
 5717      72636D70 
 5717      00
 5718 0092 48050000 		.4byte	0xd4d
 5719 0096 63797374 		.ascii	"cydelay_freq_hz\000"
 5719      726E636D 
 5719      7000
 5720 00a0 A3050000 		.4byte	0xd6c
 5721 00a4 63797374 		.ascii	"cydelay_freq_khz\000"
 5721      726E6361 
 5721      7400
 5722 00ae 10060000 		.4byte	0xd8c
 5723 00b2 63797374 		.ascii	"cydelay_freq_mhz\000"
 5723      72636872 
 5723      00
 5724 00bb 5C060000 		.4byte	0xdac
 5725 00bf 63797374 		.ascii	"cydelay_32k_ms\000"
 5725      72726368 
 5725      7200
 5726 00c9 A9060000 		.4byte	0x0
 5727 00cd 63797374 		.section	.debug_aranges,"",%progbits
 5727      72737472 
 5727      00
 5728 00d6 04070000 		.4byte	0x13c
ARM GAS  C:\Users\blinky\AppData\Local\Temp/ccwJbaaa.s 			page 140


 5729 00da 63797374 		.2byte	0x2
 5729      72746F6C 
 5729      00
 5730 00e3 CD070000 		.4byte	.Ldebug_info0
 5731 00e7 4379456E 		.byte	0x4
 5731      61626C65 
 5731      44696769 
 5731      74616C41 
 5731      72726179 
 5732 00fc F4070000 		.byte	0x0
 5733 0100 43794469 		.2byte	0x0
 5733      7361626C 
 5733      65446967 
 5733      6974616C 
 5733      41727261 
 5734 0116 1C080000 		.2byte	0x0
 5735 011a 43794465 		.4byte	.LFB2
 5735      6C617900 
 5736 0122 53080000 		.4byte	.LFE2-.LFB2
 5737 0126 43794465 		.4byte	.LFB3
 5737      6C617955 
 5737      7300
 5738 0130 8C080000 		.4byte	.LFE3-.LFB3
 5739 0134 43794465 		.4byte	.LFB4
 5739      6C617946 
 5739      72657100 
 5740 0140 BF080000 		.4byte	.LFE4-.LFB4
 5741 0144 43794469 		.4byte	.LFB5
 5741      7361626C 
 5741      65496E74 
 5741      7300
 5742 0152 F7080000 		.4byte	.LFE5-.LFB5
 5743 0156 4379456E 		.4byte	.LFB6
 5743      61626C65 
 5743      496E7473 
 5743      00
 5744 0163 2A090000 		.4byte	.LFE6-.LFB6
 5745 0167 43594445 		.4byte	.LFB7
 5745      565F4641 
 5745      54414C5F 
 5745      41424F52 
 5745      5400
 5746 0179 65090000 		.4byte	.LFE7-.LFB7
 5747 017d 4379536F 		.4byte	.LFB8
 5747      66747761 
 5747      72655265 
 5747      73657400 
 5748 018d 87090000 		.4byte	.LFE8-.LFB8
 5749 0191 4379466C 		.4byte	.LFB9
 5749      75736843 
 5749      61636865 
 5749      00
 5750 019e BE090000 		.4byte	.LFE9-.LFB9
 5751 01a2 4379496E 		.4byte	.LFB10
 5751      74536574 
 5751      53797356 
 5751      6563746F 
ARM GAS  C:\Users\blinky\AppData\Local\Temp/ccwJbaaa.s 			page 141


 5751      7200
 5752 01b4 340A0000 		.4byte	.LFE10-.LFB10
 5753 01b8 4379496E 		.4byte	.LFB11
 5753      74476574 
 5753      53797356 
 5753      6563746F 
 5753      7200
 5754 01ca 7F0A0000 		.4byte	.LFE11-.LFB11
 5755 01ce 4379496E 		.4byte	.LFB12
 5755      74536574 
 5755      56656374 
 5755      6F7200
 5756 01dd EC0A0000 		.4byte	.LFE12-.LFB12
 5757 01e1 4379496E 		.4byte	.LFB13
 5757      74476574 
 5757      56656374 
 5757      6F7200
 5758 01f0 340B0000 		.4byte	.LFE13-.LFB13
 5759 01f4 4379496E 		.4byte	.LFB14
 5759      74536574 
 5759      5072696F 
 5759      72697479 
 5759      00
 5760 0205 7A0B0000 		.4byte	.LFE14-.LFB14
 5761 0209 4379496E 		.4byte	.LFB15
 5761      74476574 
 5761      5072696F 
 5761      72697479 
 5761      00
 5762 021a C40B0000 		.4byte	.LFE15-.LFB15
 5763 021e 4379496E 		.4byte	.LFB16
 5763      74456E61 
 5763      626C6500 
 5764 022a 110C0000 		.4byte	.LFE16-.LFB16
 5765 022e 4379496E 		.4byte	.LFB17
 5765      74476574 
 5765      53746174 
 5765      6500
 5766 023c 5D0C0000 		.4byte	.LFE17-.LFB17
 5767 0240 4379496E 		.4byte	.LFB18
 5767      74446973 
 5767      61626C65 
 5767      00
 5768 024d A40C0000 		.4byte	.LFE18-.LFB18
 5769 0251 4379496E 		.4byte	.LFB19
 5769      74536574 
 5769      50656E64 
 5769      696E6700 
 5770 0261 ED0C0000 		.4byte	.LFE19-.LFB19
 5771 0265 4379496E 		.4byte	.LFB20
 5771      74436C65 
 5771      61725065 
 5771      6E64696E 
 5771      6700
 5772 0277 4D0D0000 		.4byte	.LFE20-.LFB20
 5773 027b 63796465 		.4byte	.LFB21
 5773      6C61795F 
ARM GAS  C:\Users\blinky\AppData\Local\Temp/ccwJbaaa.s 			page 142


 5773      66726571 
 5773      5F687A00 
 5774 028b 6C0D0000 		.4byte	.LFE21-.LFB21
 5775 028f 63796465 		.4byte	.LFB22
 5775      6C61795F 
 5775      66726571 
 5775      5F6B687A 
 5775      00
 5776 02a0 8C0D0000 		.4byte	.LFE22-.LFB22
 5777 02a4 63796465 		.4byte	.LFB23
 5777      6C61795F 
 5777      66726571 
 5777      5F6D687A 
 5777      00
 5778 02b5 AC0D0000 		.4byte	.LFE23-.LFB23
 5779 02b9 63796465 		.4byte	.LFB24
 5779      6C61795F 
 5779      33326B5F 
 5779      6D7300
 5780 02c8 00000000 		.4byte	.LFE24-.LFB24
 5781              		.4byte	.LFB25
 5782 0000 3C010000 		.4byte	.LFE25-.LFB25
 5783 0004 0200     		.4byte	.LFB26
 5784 0006 00000000 		.4byte	.LFE26-.LFB26
 5785 000a 04       		.4byte	.LFB27
 5786 000b 00       		.4byte	.LFE27-.LFB27
 5787 000c 0000     		.4byte	.LFB28
 5788 000e 0000     		.4byte	.LFE28-.LFB28
 5789 0010 00000000 		.4byte	.LFB29
 5790 0014 3E000000 		.4byte	.LFE29-.LFB29
 5791 0018 00000000 		.4byte	.LFB30
 5792 001c 4A000000 		.4byte	.LFE30-.LFB30
 5793 0020 00000000 		.4byte	.LFB31
 5794 0024 9E000000 		.4byte	.LFE31-.LFB31
 5795 0028 00000000 		.4byte	.LFB32
 5796 002c 68000000 		.4byte	.LFE32-.LFB32
 5797 0030 00000000 		.4byte	.LFB33
 5798 0034 50000000 		.4byte	.LFE33-.LFB33
 5799 0038 00000000 		.4byte	.LFB34
 5800 003c 52000000 		.4byte	.LFE34-.LFB34
 5801 0040 00000000 		.4byte	.LFB35
 5802 0044 40000000 		.4byte	.LFE35-.LFB35
 5803 0048 00000000 		.4byte	.LFB36
 5804 004c 76000000 		.4byte	.LFE36-.LFB36
 5805 0050 00000000 		.4byte	.LFB37
 5806 0054 3E000000 		.4byte	.LFE37-.LFB37
 5807 0058 00000000 		.4byte	.LFB38
 5808 005c 60000000 		.4byte	.LFE38-.LFB38
 5809 0060 00000000 		.4byte	0x0
 5810 0064 70000000 		.4byte	0x0
 5811 0068 00000000 		.section	.debug_str,"",%progbits
 5812 006c 6C000000 	.LASF3:
 5813 0070 00000000 		.ascii	"priority\000"
 5814 0074 4A000000 	.LASF2:
 5815 0078 00000000 		.ascii	"ramVectorTable\000"
 5816 007c 40000000 	.LASF0:
 5817 0080 00000000 		.ascii	"intState\000"
ARM GAS  C:\Users\blinky\AppData\Local\Temp/ccwJbaaa.s 			page 143


 5818 0084 4E000000 	.LASF1:
 5819 0088 00000000 		.ascii	"number\000"
 5820 008c 08020000 		.ident	"GCC: (CodeSourcery Sourcery G++ Lite 2007q3-53) 4.2.1"
 5821 0090 00000000 	...
