ARM GAS  C:\Users\blinky\AppData\Local\Temp/ccGKbaaa.s 			page 1


   1              		.syntax unified
   2              		.cpu cortex-m3
   3              		.fpu softvfp
   4              		.eabi_attribute 20, 1
   5              		.eabi_attribute 21, 1
   6              		.eabi_attribute 23, 3
   7              		.eabi_attribute 24, 1
   8              		.eabi_attribute 25, 1
   9              		.eabi_attribute 26, 1
  10              		.eabi_attribute 30, 6
  11              		.eabi_attribute 18, 4
  12              		.thumb
  13              		.file	"dPins_LSB.c"
  20 0000 98000000 		.text
  20      02004800 
  20      00000201 
  20      FB0E0D00 
  20      01010101 
  21              	.Ltext0:
  22              		.section	.text.dPins_LSB_Write,"ax",%progbits
  23              		.align	2
  24              		.global	dPins_LSB_Write
  25              		.thumb
  26              		.thumb_func
  27              		.type	dPins_LSB_Write, %function
  28              	dPins_LSB_Write:
  29              	.LFB2:
  30              		.file 1 "./Generated_Source/PSoC5/dPins_LSB.c"
   1:./Generated_Source/PSoC5/dPins_LSB.c **** /*******************************************************************************
   2:./Generated_Source/PSoC5/dPins_LSB.c **** * File Name: dPins_LSB.c  
   3:./Generated_Source/PSoC5/dPins_LSB.c **** * Version 1.20
   4:./Generated_Source/PSoC5/dPins_LSB.c **** *
   5:./Generated_Source/PSoC5/dPins_LSB.c **** * Description:
   6:./Generated_Source/PSoC5/dPins_LSB.c **** *  This file contains API to enable firmware control of a Pins component.
   7:./Generated_Source/PSoC5/dPins_LSB.c **** *
   8:./Generated_Source/PSoC5/dPins_LSB.c **** * Note:
   9:./Generated_Source/PSoC5/dPins_LSB.c **** *
  10:./Generated_Source/PSoC5/dPins_LSB.c **** ********************************************************************************
  11:./Generated_Source/PSoC5/dPins_LSB.c **** * Copyright 2008-2009, Cypress Semiconductor Corporation.  All rights reserved.
  12:./Generated_Source/PSoC5/dPins_LSB.c **** * You may use this file only in accordance with the license, terms, conditions, 
  13:./Generated_Source/PSoC5/dPins_LSB.c **** * disclaimers, and limitations in the end user license agreement accompanying 
  14:./Generated_Source/PSoC5/dPins_LSB.c **** * the software package with which this file was provided.
  15:./Generated_Source/PSoC5/dPins_LSB.c **** ********************************************************************************/
  16:./Generated_Source/PSoC5/dPins_LSB.c **** 
  17:./Generated_Source/PSoC5/dPins_LSB.c **** #include "cytypes.h"
  18:./Generated_Source/PSoC5/dPins_LSB.c **** #include "dPins_LSB.h"
  19:./Generated_Source/PSoC5/dPins_LSB.c **** 
  20:./Generated_Source/PSoC5/dPins_LSB.c **** 
  21:./Generated_Source/PSoC5/dPins_LSB.c **** /*******************************************************************************
  22:./Generated_Source/PSoC5/dPins_LSB.c **** * Function Name: dPins_LSB_Write
  23:./Generated_Source/PSoC5/dPins_LSB.c **** ********************************************************************************
ARM GAS  C:\Users\blinky\AppData\Local\Temp/ccGKbaaa.s 			page 2


  24:./Generated_Source/PSoC5/dPins_LSB.c **** * Summary:
  25:./Generated_Source/PSoC5/dPins_LSB.c **** *  Assign a new value to the digital port's data output register.  
  26:./Generated_Source/PSoC5/dPins_LSB.c **** *
  27:./Generated_Source/PSoC5/dPins_LSB.c **** * Parameters:  
  28:./Generated_Source/PSoC5/dPins_LSB.c **** *  prtValue:  The value to be assigned to the Digital Port. 
  29:./Generated_Source/PSoC5/dPins_LSB.c **** *
  30:./Generated_Source/PSoC5/dPins_LSB.c **** * Return: 
  31:./Generated_Source/PSoC5/dPins_LSB.c **** *  void 
  32:./Generated_Source/PSoC5/dPins_LSB.c **** *  
  33:./Generated_Source/PSoC5/dPins_LSB.c **** *******************************************************************************/
  34:./Generated_Source/PSoC5/dPins_LSB.c **** void dPins_LSB_Write(uint8 value)
  35:./Generated_Source/PSoC5/dPins_LSB.c **** {
  31              	end = 0, frame = 16
  32              		@ frame_needed = 1, uses_anonymous_args = 0
  33              		@ link register save eliminated.
  34              		push	{r7}
  35 0000 80B4     	.LCFI0:
  36              		sub	sp, sp, #20
  37 0002 85B0     	.LCFI1:
  38              		add	r7, sp, #0
  39 0004 00AF     	.LCFI2:
  40              		@ lr needed for prologue
  41              		mov	r3, r0
  42 0006 0346     		strb	r3, [r7, #7]
  43 0008 FB71     		.loc 1 36 0
  36:./Generated_Source/PSoC5/dPins_LSB.c ****     uint8 staticBits = dPins_LSB_DR & ~dPins_LSB_MASK;
  44              		ldrb	r3, [r3, #0]
  45 000a 0A4B     		uxtb	r3, r3
  46 000c 1B78     		bic	r3, r3, #15
  47 000e DBB2     		strb	r3, [r7, #15]
  48 0010 23F00F03 		.loc 1 37 0
  49 0014 FB73     		ldr	r1, .L3
  37:./Generated_Source/PSoC5/dPins_LSB.c ****     dPins_LSB_DR = staticBits | ((value << dPins_LSB_SHIFT) & dPins_LSB_MASK);
  50              	r3, [r7, #7]	@ zero_extendqisi2
  51 0016 0749     		and	r3, r3, #15
  52 0018 FB79     		ldrb	r2, [r7, #15]
  53 001a 03F00F03 		orr	r3, r3, r2
  54 001e FA7B     		uxtb	r3, r3
  55 0020 43EA0203 		strb	r3, [r1, #0]
  56 0024 DBB2     		.loc 1 38 0
  57 0026 0B70     		add	r7, r7, #20
  38:./Generated_Source/PSoC5/dPins_LSB.c **** }
  58              	 r7
  59 0028 07F11407 		pop	{r7}
  60 002c BD46     		bx	lr
  61 002e 80BC     	.L4:
  62 0030 7047     		.align	2
  63              	.L3:
  64 0032 C046     		.word	1073762592
  65              	.LFE2:
  66 0034 20510040 		.size	dPins_LSB_Write, .-dPins_LSB_Write
  67              		.section	.text.dPins_LSB_SetDriveMode,"ax",%progbits
  68              		.align	2
  69              		.global	dPins_LSB_SetDriveMode
  70              		.thumb
  71              		.thumb_func
  72              		.type	dPins_LSB_SetDriveMode, %function
ARM GAS  C:\Users\blinky\AppData\Local\Temp/ccGKbaaa.s 			page 3


  73              	dPins_LSB_SetDriveMode:
  74              	.LFB3:
  75              		.loc 1 55 0
  76              		@ args = 0, pretend = 0, frame = 8
  39:./Generated_Source/PSoC5/dPins_LSB.c **** 
  40:./Generated_Source/PSoC5/dPins_LSB.c **** 
  41:./Generated_Source/PSoC5/dPins_LSB.c **** /*******************************************************************************
  42:./Generated_Source/PSoC5/dPins_LSB.c **** * Function Name: dPins_LSB_SetDriveMode
  43:./Generated_Source/PSoC5/dPins_LSB.c **** ********************************************************************************
  44:./Generated_Source/PSoC5/dPins_LSB.c **** * Summary:
  45:./Generated_Source/PSoC5/dPins_LSB.c **** *  Change the drive mode on the pins of the port.
  46:./Generated_Source/PSoC5/dPins_LSB.c **** * 
  47:./Generated_Source/PSoC5/dPins_LSB.c **** * Parameters:  
  48:./Generated_Source/PSoC5/dPins_LSB.c **** *  mode:  Change the pins to this drive mode.
  49:./Generated_Source/PSoC5/dPins_LSB.c **** *
  50:./Generated_Source/PSoC5/dPins_LSB.c **** * Return: 
  51:./Generated_Source/PSoC5/dPins_LSB.c **** *  void
  52:./Generated_Source/PSoC5/dPins_LSB.c **** *
  53:./Generated_Source/PSoC5/dPins_LSB.c **** *******************************************************************************/
  54:./Generated_Source/PSoC5/dPins_LSB.c **** void dPins_LSB_SetDriveMode(uint8 mode)
  55:./Generated_Source/PSoC5/dPins_LSB.c **** {
  77              	, uses_anonymous_args = 0
  78              		@ link register save eliminated.
  79              		push	{r7}
  80              	.LCFI3:
  81 0000 80B4     		sub	sp, sp, #12
  82              	.LCFI4:
  83 0002 83B0     		add	r7, sp, #0
  84              	.LCFI5:
  85 0004 00AF     		@ lr needed for prologue
  86              		mov	r3, r0
  87              		strb	r3, [r7, #7]
  88 0006 0346     		.loc 1 56 0
  89 0008 FB71     		ldr	r1, .L7
  56:./Generated_Source/PSoC5/dPins_LSB.c **** 	CyPins_SetPinDriveMode(dPins_LSB_0, mode);
  90              		ldrb	r3, [r3, #0]
  91 000a 1E49     		uxtb	r3, r3
  92 000c 1D4B     		mov	r2, r3
  93 000e 1B78     		and	r2, r2, #241
  94 0010 DBB2     		ldrb	r3, [r7, #7]	@ zero_extendqisi2
  95 0012 1A46     		and	r3, r3, #14
  96 0014 02F0F102 		orr	r3, r2, r3
  97 0018 FB79     		uxtb	r3, r3
  98 001a 03F00E03 		strb	r3, [r1, #0]
  99 001e 42EA0303 		.loc 1 57 0
 100 0022 DBB2     		ldr	r1, .L7+4
 101 0024 0B70     		ldr	r3, .L7+4
  57:./Generated_Source/PSoC5/dPins_LSB.c **** 	CyPins_SetPinDriveMode(dPins_LSB_1, mode);
 102              	3, #0]
 103 0026 1849     		uxtb	r3, r3
 104 0028 174B     		mov	r2, r3
 105 002a 1B78     		and	r2, r2, #241
 106 002c DBB2     		ldrb	r3, [r7, #7]	@ zero_extendqisi2
 107 002e 1A46     		and	r3, r3, #14
 108 0030 02F0F102 		orr	r3, r2, r3
 109 0034 FB79     		uxtb	r3, r3
 110 0036 03F00E03 		strb	r3, [r1, #0]
ARM GAS  C:\Users\blinky\AppData\Local\Temp/ccGKbaaa.s 			page 4


 111 003a 42EA0303 		.loc 1 58 0
 112 003e DBB2     		ldr	r1, .L7+8
 113 0040 0B70     		ldr	r3, .L7+8
  58:./Generated_Source/PSoC5/dPins_LSB.c **** 	CyPins_SetPinDriveMode(dPins_LSB_2, mode);
 114              	3, #0]
 115 0042 1249     		uxtb	r3, r3
 116 0044 114B     		mov	r2, r3
 117 0046 1B78     		and	r2, r2, #241
 118 0048 DBB2     		ldrb	r3, [r7, #7]	@ zero_extendqisi2
 119 004a 1A46     		and	r3, r3, #14
 120 004c 02F0F102 		orr	r3, r2, r3
 121 0050 FB79     		uxtb	r3, r3
 122 0052 03F00E03 		strb	r3, [r1, #0]
 123 0056 42EA0303 		.loc 1 59 0
 124 005a DBB2     		ldr	r1, .L7+12
 125 005c 0B70     		ldr	r3, .L7+12
  59:./Generated_Source/PSoC5/dPins_LSB.c **** 	CyPins_SetPinDriveMode(dPins_LSB_3, mode);
 126              	3, #0]
 127 005e 0C49     		uxtb	r3, r3
 128 0060 0B4B     		mov	r2, r3
 129 0062 1B78     		and	r2, r2, #241
 130 0064 DBB2     		ldrb	r3, [r7, #7]	@ zero_extendqisi2
 131 0066 1A46     		and	r3, r3, #14
 132 0068 02F0F102 		orr	r3, r2, r3
 133 006c FB79     		uxtb	r3, r3
 134 006e 03F00E03 		strb	r3, [r1, #0]
 135 0072 42EA0303 		.loc 1 60 0
 136 0076 DBB2     		add	r7, r7, #12
 137 0078 0B70     		mov	sp, r7
  60:./Generated_Source/PSoC5/dPins_LSB.c **** }
 138              	x	lr
 139 007a 07F10C07 	.L8:
 140 007e BD46     		.align	2
 141 0080 80BC     	.L7:
 142 0082 7047     		.word	1073762320
 143              		.word	1073762321
 144              		.word	1073762322
 145              		.word	1073762323
 146 0084 10500040 	.LFE3:
 147 0088 11500040 		.size	dPins_LSB_SetDriveMode, .-dPins_LSB_SetDriveMode
 148 008c 12500040 		.section	.text.dPins_LSB_Read,"ax",%progbits
 149 0090 13500040 		.align	2
 150              		.global	dPins_LSB_Read
 151              		.thumb
 152              		.thumb_func
 153              		.type	dPins_LSB_Read, %function
 154              	dPins_LSB_Read:
 155              	.LFB4:
 156              		.loc 1 81 0
 157              		@ args = 0, pretend = 0, frame = 0
 158              		@ frame_needed = 1, uses_anonymous_args = 0
 159              		@ link register save eliminated.
  61:./Generated_Source/PSoC5/dPins_LSB.c **** 
  62:./Generated_Source/PSoC5/dPins_LSB.c **** 
  63:./Generated_Source/PSoC5/dPins_LSB.c **** /*******************************************************************************
  64:./Generated_Source/PSoC5/dPins_LSB.c **** * Function Name: dPins_LSB_Read
  65:./Generated_Source/PSoC5/dPins_LSB.c **** ********************************************************************************
ARM GAS  C:\Users\blinky\AppData\Local\Temp/ccGKbaaa.s 			page 5


  66:./Generated_Source/PSoC5/dPins_LSB.c **** * Summary:
  67:./Generated_Source/PSoC5/dPins_LSB.c **** *  Read the current value on the pins of the Digital Port in right justified 
  68:./Generated_Source/PSoC5/dPins_LSB.c **** *  form.
  69:./Generated_Source/PSoC5/dPins_LSB.c **** *
  70:./Generated_Source/PSoC5/dPins_LSB.c **** * Parameters:  
  71:./Generated_Source/PSoC5/dPins_LSB.c **** *  void 
  72:./Generated_Source/PSoC5/dPins_LSB.c **** *
  73:./Generated_Source/PSoC5/dPins_LSB.c **** * Return: 
  74:./Generated_Source/PSoC5/dPins_LSB.c **** *  Returns the current value of the Digital Port as a right justified number
  75:./Generated_Source/PSoC5/dPins_LSB.c **** *  
  76:./Generated_Source/PSoC5/dPins_LSB.c **** * Note:
  77:./Generated_Source/PSoC5/dPins_LSB.c **** *  Macro dPins_LSB_ReadPS calls this function. 
  78:./Generated_Source/PSoC5/dPins_LSB.c **** *  
  79:./Generated_Source/PSoC5/dPins_LSB.c **** *******************************************************************************/
  80:./Generated_Source/PSoC5/dPins_LSB.c **** uint8 dPins_LSB_Read(void)
  81:./Generated_Source/PSoC5/dPins_LSB.c **** {
 160              	d	r7, sp, #0
 161              	.LCFI7:
 162              		@ lr needed for prologue
 163              		.loc 1 82 0
 164 0000 80B4     		ldr	r3, .L11
 165              		ldrb	r3, [r3, #0]
 166 0002 00AF     		uxtb	r3, r3
 167              		and	r3, r3, #15
 168              		.loc 1 83 0
  82:./Generated_Source/PSoC5/dPins_LSB.c ****     return (dPins_LSB_PS & dPins_LSB_MASK) >> dPins_LSB_SHIFT;
 169              	r3
 170 0004 044B     		mov	sp, r7
 171 0006 1B78     		pop	{r7}
 172 0008 DBB2     		bx	lr
 173 000a 03F00F03 	.L12:
  83:./Generated_Source/PSoC5/dPins_LSB.c **** }
 174              	gn	2
 175 000e 1846     	.L11:
 176 0010 BD46     		.word	1073762593
 177 0012 80BC     	.LFE4:
 178 0014 7047     		.size	dPins_LSB_Read, .-dPins_LSB_Read
 179              		.section	.text.dPins_LSB_ReadDataReg,"ax",%progbits
 180 0016 C046     		.align	2
 181              		.global	dPins_LSB_ReadDataReg
 182 0018 21510040 		.thumb
 183              		.thumb_func
 184              		.type	dPins_LSB_ReadDataReg, %function
 185              	dPins_LSB_ReadDataReg:
 186              	.LFB5:
 187              		.loc 1 100 0
 188              		@ args = 0, pretend = 0, frame = 0
 189              		@ frame_needed = 1, uses_anonymous_args = 0
 190              		@ link register save eliminated.
 191              		push	{r7}
 192              	.LCFI8:
  84:./Generated_Source/PSoC5/dPins_LSB.c **** 
  85:./Generated_Source/PSoC5/dPins_LSB.c **** 
  86:./Generated_Source/PSoC5/dPins_LSB.c **** /*******************************************************************************
  87:./Generated_Source/PSoC5/dPins_LSB.c **** * Function Name: dPins_LSB_ReadDataReg
  88:./Generated_Source/PSoC5/dPins_LSB.c **** ********************************************************************************
  89:./Generated_Source/PSoC5/dPins_LSB.c **** * Summary:
ARM GAS  C:\Users\blinky\AppData\Local\Temp/ccGKbaaa.s 			page 6


  90:./Generated_Source/PSoC5/dPins_LSB.c **** *  Read the current value assigned to a Digital Port's data output register
  91:./Generated_Source/PSoC5/dPins_LSB.c **** *
  92:./Generated_Source/PSoC5/dPins_LSB.c **** * Parameters:  
  93:./Generated_Source/PSoC5/dPins_LSB.c **** *  void 
  94:./Generated_Source/PSoC5/dPins_LSB.c **** *
  95:./Generated_Source/PSoC5/dPins_LSB.c **** * Return: 
  96:./Generated_Source/PSoC5/dPins_LSB.c **** *  Returns the current value assigned to the Digital Port's data output register
  97:./Generated_Source/PSoC5/dPins_LSB.c **** *  
  98:./Generated_Source/PSoC5/dPins_LSB.c **** *******************************************************************************/
  99:./Generated_Source/PSoC5/dPins_LSB.c **** uint8 dPins_LSB_ReadDataReg(void)
 100:./Generated_Source/PSoC5/dPins_LSB.c **** {
 193              	FI9:
 194              		@ lr needed for prologue
 195              		.loc 1 101 0
 196              		ldr	r3, .L15
 197 0000 80B4     		ldrb	r3, [r3, #0]
 198              		uxtb	r3, r3
 199 0002 00AF     		and	r3, r3, #15
 200              		.loc 1 102 0
 201              		mov	r0, r3
 101:./Generated_Source/PSoC5/dPins_LSB.c ****     return (dPins_LSB_DR & dPins_LSB_MASK) >> dPins_LSB_SHIFT;
 202              	r7
 203 0004 044B     		pop	{r7}
 204 0006 1B78     		bx	lr
 205 0008 DBB2     	.L16:
 206 000a 03F00F03 		.align	2
 102:./Generated_Source/PSoC5/dPins_LSB.c **** }
 207              	
 208 000e 1846     		.word	1073762592
 209 0010 BD46     	.LFE5:
 210 0012 80BC     		.size	dPins_LSB_ReadDataReg, .-dPins_LSB_ReadDataReg
 211 0014 7047     		.section	.debug_frame,"",%progbits
 212              	.Lframe0:
 213 0016 C046     		.4byte	.LECIE0-.LSCIE0
 214              	.LSCIE0:
 215 0018 20510040 		.4byte	0xffffffff
 216              		.byte	0x1
 217              		.ascii	"\000"
 218              		.uleb128 0x1
 219              		.sleb128 -4
 220 0000 0C000000 		.byte	0xe
 221              		.byte	0xc
 222 0004 FFFFFFFF 		.uleb128 0xd
 223 0008 01       		.uleb128 0x0
 224 0009 00       		.align	2
 225 000a 01       	.LECIE0:
 226 000b 7C       	.LSFDE0:
 227 000c 0E       		.4byte	.LEFDE0-.LASFDE0
 228 000d 0C       	.LASFDE0:
 229 000e 0D       		.4byte	.Lframe0
 230 000f 00       		.4byte	.LFB2
 231              		.4byte	.LFE2-.LFB2
 232              		.byte	0x4
 233              		.4byte	.LCFI0-.LFB2
 234 0010 18000000 		.byte	0xe
 235              		.uleb128 0x4
 236 0014 00000000 		.byte	0x4
ARM GAS  C:\Users\blinky\AppData\Local\Temp/ccGKbaaa.s 			page 7


 237 0018 00000000 		.4byte	.LCFI1-.LCFI0
 238 001c 38000000 		.byte	0xe
 239 0020 42       		.uleb128 0x18
 240              		.byte	0x87
 241 0021 0E       		.uleb128 0x1
 242 0022 04       		.byte	0x4
 243 0023 42       		.4byte	.LCFI2-.LCFI1
 244              		.byte	0xd
 245 0024 0E       		.uleb128 0x7
 246 0025 18       		.align	2
 247 0026 87       	.LEFDE0:
 248 0027 01       	.LSFDE2:
 249 0028 42       		.4byte	.LEFDE2-.LASFDE2
 250              	.LASFDE2:
 251 0029 0D       		.4byte	.Lframe0
 252 002a 07       		.4byte	.LFB3
 253 002b 00       		.4byte	.LFE3-.LFB3
 254              		.byte	0x4
 255              		.4byte	.LCFI3-.LFB3
 256 002c 18000000 		.byte	0xe
 257              		.uleb128 0x4
 258 0030 00000000 		.byte	0x4
 259 0034 00000000 		.4byte	.LCFI4-.LCFI3
 260 0038 94000000 		.byte	0xe
 261 003c 42       		.uleb128 0x10
 262              		.byte	0x87
 263 003d 0E       		.uleb128 0x1
 264 003e 04       		.byte	0x4
 265 003f 42       		.4byte	.LCFI5-.LCFI4
 266              		.byte	0xd
 267 0040 0E       		.uleb128 0x7
 268 0041 10       		.align	2
 269 0042 87       	.LEFDE2:
 270 0043 01       	.LSFDE4:
 271 0044 42       		.4byte	.LEFDE4-.LASFDE4
 272              	.LASFDE4:
 273 0045 0D       		.4byte	.Lframe0
 274 0046 07       		.4byte	.LFB4
 275 0047 00       		.4byte	.LFE4-.LFB4
 276              		.byte	0x4
 277              		.4byte	.LCFI6-.LFB4
 278 0048 14000000 		.byte	0xe
 279              		.uleb128 0x4
 280 004c 00000000 		.byte	0x87
 281 0050 00000000 		.uleb128 0x1
 282 0054 1C000000 		.byte	0x4
 283 0058 42       		.4byte	.LCFI7-.LCFI6
 284              		.byte	0xd
 285 0059 0E       		.uleb128 0x7
 286 005a 04       		.align	2
 287 005b 87       	.LEFDE4:
 288 005c 01       	.LSFDE6:
 289 005d 42       		.4byte	.LEFDE6-.LASFDE6
 290              	.LASFDE6:
 291 005e 0D       		.4byte	.Lframe0
 292 005f 07       		.4byte	.LFB5
 293              		.4byte	.LFE5-.LFB5
ARM GAS  C:\Users\blinky\AppData\Local\Temp/ccGKbaaa.s 			page 8


 294              		.byte	0x4
 295              		.4byte	.LCFI8-.LFB5
 296 0060 14000000 		.byte	0xe
 297              		.uleb128 0x4
 298 0064 00000000 		.byte	0x87
 299 0068 00000000 		.uleb128 0x1
 300 006c 1C000000 		.byte	0x4
 301 0070 42       		.4byte	.LCFI9-.LCFI8
 302              		.byte	0xd
 303 0071 0E       		.uleb128 0x7
 304 0072 04       		.align	2
 305 0073 87       	.LEFDE6:
 306 0074 01       		.text
 307 0075 42       	.Letext0: