ARM GAS  C:\Users\blinky\AppData\Local\Temp/ccyabaaa.s 			page 1


   1              		.syntax unified
   2              		.cpu cortex-m3
   3              		.fpu softvfp
   4              		.eabi_attribute 20, 1
   5              		.eabi_attribute 21, 1
   6              		.eabi_attribute 23, 3
   7              		.eabi_attribute 24, 1
   8              		.eabi_attribute 25, 1
   9              		.eabi_attribute 26, 1
  10              		.eabi_attribute 30, 6
  11              		.eabi_attribute 18, 4
  12              		.thumb
  13              		.file	"Pin_1.c"
  20 0000 91000000 		.text
  20      02004400 
  20      00000201 
  20      FB0E0D00 
  20      01010101 
  21              	.Ltext0:
  22              		.section	.text.Pin_1_Write,"ax",%progbits
  23              		.align	2
  24              		.global	Pin_1_Write
  25              		.thumb
  26              		.thumb_func
  27              		.type	Pin_1_Write, %function
  28              	Pin_1_Write:
  29              	.LFB2:
  30              		.file 1 "./Generated_Source/PSoC5/Pin_1.c"
   1:./Generated_Source/PSoC5/Pin_1.c **** /*******************************************************************************
   2:./Generated_Source/PSoC5/Pin_1.c **** * File Name: Pin_1.c  
   3:./Generated_Source/PSoC5/Pin_1.c **** * Version 1.20
   4:./Generated_Source/PSoC5/Pin_1.c **** *
   5:./Generated_Source/PSoC5/Pin_1.c **** * Description:
   6:./Generated_Source/PSoC5/Pin_1.c **** *  This file contains API to enable firmware control of a Pins component.
   7:./Generated_Source/PSoC5/Pin_1.c **** *
   8:./Generated_Source/PSoC5/Pin_1.c **** * Note:
   9:./Generated_Source/PSoC5/Pin_1.c **** *
  10:./Generated_Source/PSoC5/Pin_1.c **** ********************************************************************************
  11:./Generated_Source/PSoC5/Pin_1.c **** * Copyright 2008-2009, Cypress Semiconductor Corporation.  All rights reserved.
  12:./Generated_Source/PSoC5/Pin_1.c **** * You may use this file only in accordance with the license, terms, conditions, 
  13:./Generated_Source/PSoC5/Pin_1.c **** * disclaimers, and limitations in the end user license agreement accompanying 
  14:./Generated_Source/PSoC5/Pin_1.c **** * the software package with which this file was provided.
  15:./Generated_Source/PSoC5/Pin_1.c **** ********************************************************************************/
  16:./Generated_Source/PSoC5/Pin_1.c **** 
  17:./Generated_Source/PSoC5/Pin_1.c **** #include "cytypes.h"
  18:./Generated_Source/PSoC5/Pin_1.c **** #include "Pin_1.h"
  19:./Generated_Source/PSoC5/Pin_1.c **** 
  20:./Generated_Source/PSoC5/Pin_1.c **** 
  21:./Generated_Source/PSoC5/Pin_1.c **** /*******************************************************************************
  22:./Generated_Source/PSoC5/Pin_1.c **** * Function Name: Pin_1_Write
  23:./Generated_Source/PSoC5/Pin_1.c **** ********************************************************************************
ARM GAS  C:\Users\blinky\AppData\Local\Temp/ccyabaaa.s 			page 2


  24:./Generated_Source/PSoC5/Pin_1.c **** * Summary:
  25:./Generated_Source/PSoC5/Pin_1.c **** *  Assign a new value to the digital port's data output register.  
  26:./Generated_Source/PSoC5/Pin_1.c **** *
  27:./Generated_Source/PSoC5/Pin_1.c **** * Parameters:  
  28:./Generated_Source/PSoC5/Pin_1.c **** *  prtValue:  The value to be assigned to the Digital Port. 
  29:./Generated_Source/PSoC5/Pin_1.c **** *
  30:./Generated_Source/PSoC5/Pin_1.c **** * Return: 
  31:./Generated_Source/PSoC5/Pin_1.c **** *  void 
  32:./Generated_Source/PSoC5/Pin_1.c **** *  
  33:./Generated_Source/PSoC5/Pin_1.c **** *******************************************************************************/
  34:./Generated_Source/PSoC5/Pin_1.c **** void Pin_1_Write(uint8 value)
  35:./Generated_Source/PSoC5/Pin_1.c **** {
  31              	end = 0, frame = 16
  32              		@ frame_needed = 1, uses_anonymous_args = 0
  33              		@ link register save eliminated.
  34              		push	{r7}
  35 0000 80B4     	.LCFI0:
  36              		sub	sp, sp, #20
  37 0002 85B0     	.LCFI1:
  38              		add	r7, sp, #0
  39 0004 00AF     	.LCFI2:
  40              		@ lr needed for prologue
  41              		mov	r3, r0
  42 0006 0346     		strb	r3, [r7, #7]
  43 0008 FB71     		.loc 1 36 0
  36:./Generated_Source/PSoC5/Pin_1.c ****     uint8 staticBits = Pin_1_DR & ~Pin_1_MASK;
  44              		ldrb	r3, [r3, #0]
  45 000a 0B4B     		uxtb	r3, r3
  46 000c 1B78     		and	r3, r3, #127
  47 000e DBB2     		strb	r3, [r7, #15]
  48 0010 03F07F03 		.loc 1 37 0
  49 0014 FB73     		ldr	r1, .L3
  37:./Generated_Source/PSoC5/Pin_1.c ****     Pin_1_DR = staticBits | ((value << Pin_1_SHIFT) & Pin_1_MASK);
  50              	r3, [r7, #7]
  51 0016 0849     		lsl	r3, r3, #7
  52 0018 FB79     		uxtb	r3, r3
  53 001a 4FEAC313 		and	r3, r3, #128
  54 001e DBB2     		ldrb	r2, [r7, #15]
  55 0020 03F08003 		orr	r3, r3, r2
  56 0024 FA7B     		uxtb	r3, r3
  57 0026 43EA0203 		strb	r3, [r1, #0]
  58 002a DBB2     		.loc 1 38 0
  59 002c 0B70     		add	r7, r7, #20
  38:./Generated_Source/PSoC5/Pin_1.c **** }
  60              	7
  61 002e 07F11407 		pop	{r7}
  62 0032 BD46     		bx	lr
  63 0034 80BC     	.L4:
  64 0036 7047     		.align	2
  65              	.L3:
  66              		.word	1073762656
  67              	.LFE2:
  68 0038 60510040 		.size	Pin_1_Write, .-Pin_1_Write
  69              		.section	.text.Pin_1_SetDriveMode,"ax",%progbits
  70              		.align	2
  71              		.global	Pin_1_SetDriveMode
  72              		.thumb
ARM GAS  C:\Users\blinky\AppData\Local\Temp/ccyabaaa.s 			page 3


  73              		.thumb_func
  74              		.type	Pin_1_SetDriveMode, %function
  75              	Pin_1_SetDriveMode:
  76              	.LFB3:
  77              		.loc 1 55 0
  78              		@ args = 0, pretend = 0, frame = 8
  39:./Generated_Source/PSoC5/Pin_1.c **** 
  40:./Generated_Source/PSoC5/Pin_1.c **** 
  41:./Generated_Source/PSoC5/Pin_1.c **** /*******************************************************************************
  42:./Generated_Source/PSoC5/Pin_1.c **** * Function Name: Pin_1_SetDriveMode
  43:./Generated_Source/PSoC5/Pin_1.c **** ********************************************************************************
  44:./Generated_Source/PSoC5/Pin_1.c **** * Summary:
  45:./Generated_Source/PSoC5/Pin_1.c **** *  Change the drive mode on the pins of the port.
  46:./Generated_Source/PSoC5/Pin_1.c **** * 
  47:./Generated_Source/PSoC5/Pin_1.c **** * Parameters:  
  48:./Generated_Source/PSoC5/Pin_1.c **** *  mode:  Change the pins to this drive mode.
  49:./Generated_Source/PSoC5/Pin_1.c **** *
  50:./Generated_Source/PSoC5/Pin_1.c **** * Return: 
  51:./Generated_Source/PSoC5/Pin_1.c **** *  void
  52:./Generated_Source/PSoC5/Pin_1.c **** *
  53:./Generated_Source/PSoC5/Pin_1.c **** *******************************************************************************/
  54:./Generated_Source/PSoC5/Pin_1.c **** void Pin_1_SetDriveMode(uint8 mode)
  55:./Generated_Source/PSoC5/Pin_1.c **** {
  79              	, uses_anonymous_args = 0
  80              		@ link register save eliminated.
  81              		push	{r7}
  82              	.LCFI3:
  83 0000 80B4     		sub	sp, sp, #12
  84              	.LCFI4:
  85 0002 83B0     		add	r7, sp, #0
  86              	.LCFI5:
  87 0004 00AF     		@ lr needed for prologue
  88              		mov	r3, r0
  89              		strb	r3, [r7, #7]
  90 0006 0346     		.loc 1 56 0
  91 0008 FB71     		ldr	r1, .L7
  56:./Generated_Source/PSoC5/Pin_1.c **** 	CyPins_SetPinDriveMode(Pin_1_0, mode);
  92              		ldrb	r3, [r3, #0]
  93 000a 0949     		uxtb	r3, r3
  94 000c 084B     		mov	r2, r3
  95 000e 1B78     		and	r2, r2, #241
  96 0010 DBB2     		ldrb	r3, [r7, #7]	@ zero_extendqisi2
  97 0012 1A46     		and	r3, r3, #14
  98 0014 02F0F102 		orr	r3, r2, r3
  99 0018 FB79     		uxtb	r3, r3
 100 001a 03F00E03 		strb	r3, [r1, #0]
 101 001e 42EA0303 		.loc 1 57 0
 102 0022 DBB2     		add	r7, r7, #12
 103 0024 0B70     		mov	sp, r7
  57:./Generated_Source/PSoC5/Pin_1.c **** }
 104              	x	lr
 105 0026 07F10C07 	.L8:
 106 002a BD46     		.align	2
 107 002c 80BC     	.L7:
 108 002e 7047     		.word	1073762359
 109              	.LFE3:
 110              		.size	Pin_1_SetDriveMode, .-Pin_1_SetDriveMode
ARM GAS  C:\Users\blinky\AppData\Local\Temp/ccyabaaa.s 			page 4


 111              		.section	.text.Pin_1_Read,"ax",%progbits
 112 0030 37500040 		.align	2
 113              		.global	Pin_1_Read
 114              		.thumb
 115              		.thumb_func
 116              		.type	Pin_1_Read, %function
 117              	Pin_1_Read:
 118              	.LFB4:
 119              		.loc 1 78 0
 120              		@ args = 0, pretend = 0, frame = 0
 121              		@ frame_needed = 1, uses_anonymous_args = 0
 122              		@ link register save eliminated.
  58:./Generated_Source/PSoC5/Pin_1.c **** 
  59:./Generated_Source/PSoC5/Pin_1.c **** 
  60:./Generated_Source/PSoC5/Pin_1.c **** /*******************************************************************************
  61:./Generated_Source/PSoC5/Pin_1.c **** * Function Name: Pin_1_Read
  62:./Generated_Source/PSoC5/Pin_1.c **** ********************************************************************************
  63:./Generated_Source/PSoC5/Pin_1.c **** * Summary:
  64:./Generated_Source/PSoC5/Pin_1.c **** *  Read the current value on the pins of the Digital Port in right justified 
  65:./Generated_Source/PSoC5/Pin_1.c **** *  form.
  66:./Generated_Source/PSoC5/Pin_1.c **** *
  67:./Generated_Source/PSoC5/Pin_1.c **** * Parameters:  
  68:./Generated_Source/PSoC5/Pin_1.c **** *  void 
  69:./Generated_Source/PSoC5/Pin_1.c **** *
  70:./Generated_Source/PSoC5/Pin_1.c **** * Return: 
  71:./Generated_Source/PSoC5/Pin_1.c **** *  Returns the current value of the Digital Port as a right justified number
  72:./Generated_Source/PSoC5/Pin_1.c **** *  
  73:./Generated_Source/PSoC5/Pin_1.c **** * Note:
  74:./Generated_Source/PSoC5/Pin_1.c **** *  Macro Pin_1_ReadPS calls this function. 
  75:./Generated_Source/PSoC5/Pin_1.c **** *  
  76:./Generated_Source/PSoC5/Pin_1.c **** *******************************************************************************/
  77:./Generated_Source/PSoC5/Pin_1.c **** uint8 Pin_1_Read(void)
  78:./Generated_Source/PSoC5/Pin_1.c **** {
 123              		add	r7, sp, #0
 124              	.LCFI7:
 125              		@ lr needed for prologue
 126              		.loc 1 79 0
 127 0000 80B4     		ldr	r3, .L11
 128              		ldrb	r3, [r3, #0]
 129 0002 00AF     		uxtb	r3, r3
 130              		and	r3, r3, #128
 131              		lsr	r3, r3, #7
  79:./Generated_Source/PSoC5/Pin_1.c ****     return (Pin_1_PS & Pin_1_MASK) >> Pin_1_SHIFT;
 132              	 r3
 133 0004 054B     		.loc 1 80 0
 134 0006 1B78     		mov	r0, r3
 135 0008 DBB2     		mov	sp, r7
 136 000a 03F08003 		pop	{r7}
 137 000e 4FEAD313 		bx	lr
 138 0012 DBB2     	.L12:
  80:./Generated_Source/PSoC5/Pin_1.c **** }
 139              		2
 140 0014 1846     	.L11:
 141 0016 BD46     		.word	1073762657
 142 0018 80BC     	.LFE4:
 143 001a 7047     		.size	Pin_1_Read, .-Pin_1_Read
 144              		.section	.text.Pin_1_ReadDataReg,"ax",%progbits
ARM GAS  C:\Users\blinky\AppData\Local\Temp/ccyabaaa.s 			page 5


 145              		.align	2
 146              		.global	Pin_1_ReadDataReg
 147 001c 61510040 		.thumb
 148              		.thumb_func
 149              		.type	Pin_1_ReadDataReg, %function
 150              	Pin_1_ReadDataReg:
 151              	.LFB5:
 152              		.loc 1 97 0
 153              		@ args = 0, pretend = 0, frame = 0
 154              		@ frame_needed = 1, uses_anonymous_args = 0
 155              		@ link register save eliminated.
 156              		push	{r7}
 157              	.LCFI8:
  81:./Generated_Source/PSoC5/Pin_1.c **** 
  82:./Generated_Source/PSoC5/Pin_1.c **** 
  83:./Generated_Source/PSoC5/Pin_1.c **** /*******************************************************************************
  84:./Generated_Source/PSoC5/Pin_1.c **** * Function Name: Pin_1_ReadDataReg
  85:./Generated_Source/PSoC5/Pin_1.c **** ********************************************************************************
  86:./Generated_Source/PSoC5/Pin_1.c **** * Summary:
  87:./Generated_Source/PSoC5/Pin_1.c **** *  Read the current value assigned to a Digital Port's data output register
  88:./Generated_Source/PSoC5/Pin_1.c **** *
  89:./Generated_Source/PSoC5/Pin_1.c **** * Parameters:  
  90:./Generated_Source/PSoC5/Pin_1.c **** *  void 
  91:./Generated_Source/PSoC5/Pin_1.c **** *
  92:./Generated_Source/PSoC5/Pin_1.c **** * Return: 
  93:./Generated_Source/PSoC5/Pin_1.c **** *  Returns the current value assigned to the Digital Port's data output register
  94:./Generated_Source/PSoC5/Pin_1.c **** *  
  95:./Generated_Source/PSoC5/Pin_1.c **** *******************************************************************************/
  96:./Generated_Source/PSoC5/Pin_1.c **** uint8 Pin_1_ReadDataReg(void)
  97:./Generated_Source/PSoC5/Pin_1.c **** {
 158              	FI9:
 159              		@ lr needed for prologue
 160              		.loc 1 98 0
 161              		ldr	r3, .L15
 162 0000 80B4     		ldrb	r3, [r3, #0]
 163              		uxtb	r3, r3
 164 0002 00AF     		and	r3, r3, #128
 165              		lsr	r3, r3, #7
 166              		uxtb	r3, r3
  98:./Generated_Source/PSoC5/Pin_1.c ****     return (Pin_1_DR & Pin_1_MASK) >> Pin_1_SHIFT;
 167              	9 0
 168 0004 054B     		mov	r0, r3
 169 0006 1B78     		mov	sp, r7
 170 0008 DBB2     		pop	{r7}
 171 000a 03F08003 		bx	lr
 172 000e 4FEAD313 	.L16:
 173 0012 DBB2     		.align	2
  99:./Generated_Source/PSoC5/Pin_1.c **** }
 174              	.word	1073762656
 175 0014 1846     	.LFE5:
 176 0016 BD46     		.size	Pin_1_ReadDataReg, .-Pin_1_ReadDataReg
 177 0018 80BC     		.section	.debug_frame,"",%progbits
 178 001a 7047     	.Lframe0:
 179              		.4byte	.LECIE0-.LSCIE0
 180              	.LSCIE0:
 181              		.4byte	0xffffffff
 182 001c 60510040 		.byte	0x1
ARM GAS  C:\Users\blinky\AppData\Local\Temp/ccyabaaa.s 			page 6


 183              		.ascii	"\000"
 184              		.uleb128 0x1
 185              		.sleb128 -4
 186              		.byte	0xe
 187 0000 0C000000 		.byte	0xc
 188              		.uleb128 0xd
 189 0004 FFFFFFFF 		.uleb128 0x0
 190 0008 01       		.align	2
 191 0009 00       	.LECIE0:
 192 000a 01       	.LSFDE0:
 193 000b 7C       		.4byte	.LEFDE0-.LASFDE0
 194 000c 0E       	.LASFDE0:
 195 000d 0C       		.4byte	.Lframe0
 196 000e 0D       		.4byte	.LFB2
 197 000f 00       		.4byte	.LFE2-.LFB2
 198              		.byte	0x4
 199              		.4byte	.LCFI0-.LFB2
 200              		.byte	0xe
 201 0010 18000000 		.uleb128 0x4
 202              		.byte	0x4
 203 0014 00000000 		.4byte	.LCFI1-.LCFI0
 204 0018 00000000 		.byte	0xe
 205 001c 3C000000 		.uleb128 0x18
 206 0020 42       		.byte	0x87
 207              		.uleb128 0x1
 208 0021 0E       		.byte	0x4
 209 0022 04       		.4byte	.LCFI2-.LCFI1
 210 0023 42       		.byte	0xd
 211              		.uleb128 0x7
 212 0024 0E       		.align	2
 213 0025 18       	.LEFDE0:
 214 0026 87       	.LSFDE2:
 215 0027 01       		.4byte	.LEFDE2-.LASFDE2
 216 0028 42       	.LASFDE2:
 217              		.4byte	.Lframe0
 218 0029 0D       		.4byte	.LFB3
 219 002a 07       		.4byte	.LFE3-.LFB3
 220 002b 00       		.byte	0x4
 221              		.4byte	.LCFI3-.LFB3
 222              		.byte	0xe
 223 002c 18000000 		.uleb128 0x4
 224              		.byte	0x4
 225 0030 00000000 		.4byte	.LCFI4-.LCFI3
 226 0034 00000000 		.byte	0xe
 227 0038 34000000 		.uleb128 0x10
 228 003c 42       		.byte	0x87
 229              		.uleb128 0x1
 230 003d 0E       		.byte	0x4
 231 003e 04       		.4byte	.LCFI5-.LCFI4
 232 003f 42       		.byte	0xd
 233              		.uleb128 0x7
 234 0040 0E       		.align	2
 235 0041 10       	.LEFDE2:
 236 0042 87       	.LSFDE4:
 237 0043 01       		.4byte	.LEFDE4-.LASFDE4
 238 0044 42       	.LASFDE4:
 239              		.4byte	.Lframe0
ARM GAS  C:\Users\blinky\AppData\Local\Temp/ccyabaaa.s 			page 7


 240 0045 0D       		.4byte	.LFB4
 241 0046 07       		.4byte	.LFE4-.LFB4
 242 0047 00       		.byte	0x4
 243              		.4byte	.LCFI6-.LFB4
 244              		.byte	0xe
 245 0048 14000000 		.uleb128 0x4
 246              		.byte	0x87
 247 004c 00000000 		.uleb128 0x1
 248 0050 00000000 		.byte	0x4
 249 0054 20000000 		.4byte	.LCFI7-.LCFI6
 250 0058 42       		.byte	0xd
 251              		.uleb128 0x7
 252 0059 0E       		.align	2
 253 005a 04       	.LEFDE4:
 254 005b 87       	.LSFDE6:
 255 005c 01       		.4byte	.LEFDE6-.LASFDE6
 256 005d 42       	.LASFDE6:
 257              		.4byte	.Lframe0
 258 005e 0D       		.4byte	.LFB5
 259 005f 07       		.4byte	.LFE5-.LFB5
 260              		.byte	0x4
 261              		.4byte	.LCFI8-.LFB5
 262              		.byte	0xe
 263 0060 14000000 		.uleb128 0x4
 264              		.byte	0x87
 265 0064 00000000 		.uleb128 0x1
 266 0068 00000000 		.byte	0x4
 267 006c 20000000 		.4byte	.LCFI9-.LCFI8
 268 0070 42       		.byte	0xd
 269              		.uleb128 0x7
 270 0071 0E       		.align	2
 271 0072 04       	.LEFDE6:
 272 0073 87       		.text
 273 0074 01       	.Letext0: