ARM GAS  C:\Users\blinky\AppData\Local\Temp/ccSwbaaa.s 			page 1


   1              		.syntax unified
   2              		.cpu cortex-m3
   3              		.fpu softvfp
   4              		.eabi_attribute 20, 1
   5              		.eabi_attribute 21, 1
   6              		.eabi_attribute 23, 3
   7              		.eabi_attribute 24, 1
   8              		.eabi_attribute 25, 1
   9              		.eabi_attribute 26, 1
  10              		.eabi_attribute 30, 6
  11              		.eabi_attribute 18, 4
  12              		.thumb
  13              		.file	"Volume_ADC.c"
  20 0000 AC010000 		.text
  20      02004900 
  20      00000201 
  20      FB0E0D00 
  20      01010101 
  21              	.Ltext0:
  22              		.global	Volume_ADC_initVar
  23              		.bss
  24              		.type	Volume_ADC_initVar, %object
  25              		.size	Volume_ADC_initVar, 1
  26              	Volume_ADC_initVar:
  27 0000 00       		.space	1
  28              		.global	Volume_ADC_Offset
  29 0001 00       		.align	1
  30              		.type	Volume_ADC_Offset, %object
  31              		.size	Volume_ADC_Offset, 2
  32              	Volume_ADC_Offset:
  33 0002 0000     		.space	2
  34              		.section	.text.Volume_ADC_Start,"ax",%progbits
  35              		.align	2
  36              		.global	Volume_ADC_Start
  37              		.thumb
  38              		.thumb_func
  39              		.type	Volume_ADC_Start, %function
  40              	Volume_ADC_Start:
  41              	.LFB2:
  42              		.file 1 "./Generated_Source/PSoC5/Volume_ADC.c"
   1:./Generated_Source/PSoC5/Volume_ADC.c **** /*******************************************************************************
   2:./Generated_Source/PSoC5/Volume_ADC.c **** * File Name: Volume_ADC.c
   3:./Generated_Source/PSoC5/Volume_ADC.c **** * Version 1.10
   4:./Generated_Source/PSoC5/Volume_ADC.c **** *
   5:./Generated_Source/PSoC5/Volume_ADC.c **** * Description:
   6:./Generated_Source/PSoC5/Volume_ADC.c **** *  This file provides the source code to the API for the Successive
   7:./Generated_Source/PSoC5/Volume_ADC.c **** *  approximation ADC Component.
   8:./Generated_Source/PSoC5/Volume_ADC.c **** *
   9:./Generated_Source/PSoC5/Volume_ADC.c **** * Note:
  10:./Generated_Source/PSoC5/Volume_ADC.c **** *
  11:./Generated_Source/PSoC5/Volume_ADC.c **** *******************************************************************************
ARM GAS  C:\Users\blinky\AppData\Local\Temp/ccSwbaaa.s 			page 2


  12:./Generated_Source/PSoC5/Volume_ADC.c **** * Copyright 2008-2009, Cypress Semiconductor Corporation.  All rights reserved.
  13:./Generated_Source/PSoC5/Volume_ADC.c **** * You may use this file only in accordance with the license, terms, conditions,
  14:./Generated_Source/PSoC5/Volume_ADC.c **** * disclaimers, and limitations in the end user license agreement accompanying
  15:./Generated_Source/PSoC5/Volume_ADC.c **** * the software package with which this file was provided.
  16:./Generated_Source/PSoC5/Volume_ADC.c **** *******************************************************************************/
  17:./Generated_Source/PSoC5/Volume_ADC.c **** 
  18:./Generated_Source/PSoC5/Volume_ADC.c **** #include "CyLib.h"
  19:./Generated_Source/PSoC5/Volume_ADC.c **** #include "Volume_ADC.h"
  20:./Generated_Source/PSoC5/Volume_ADC.c **** 
  21:./Generated_Source/PSoC5/Volume_ADC.c **** #if(Volume_ADC_DEFAULT_INTERNAL_CLK)
  22:./Generated_Source/PSoC5/Volume_ADC.c ****     #include "Volume_ADC_theACLK.h"
  23:./Generated_Source/PSoC5/Volume_ADC.c **** #endif /* End Volume_ADC_DEFAULT_INTERNAL_CLK */
  24:./Generated_Source/PSoC5/Volume_ADC.c **** 
  25:./Generated_Source/PSoC5/Volume_ADC.c **** uint8 Volume_ADC_initVar = 0;
  26:./Generated_Source/PSoC5/Volume_ADC.c **** int16 Volume_ADC_Offset = 0;
  27:./Generated_Source/PSoC5/Volume_ADC.c **** int16 Volume_ADC_CountsPerVolt;   // Gain compensation
  28:./Generated_Source/PSoC5/Volume_ADC.c **** 
  29:./Generated_Source/PSoC5/Volume_ADC.c **** void Volume_ADC_SetRef(int8 refMode);
  30:./Generated_Source/PSoC5/Volume_ADC.c **** void Volume_ADC_CalcGain(uint8 resolution);
  31:./Generated_Source/PSoC5/Volume_ADC.c **** 
  32:./Generated_Source/PSoC5/Volume_ADC.c **** 
  33:./Generated_Source/PSoC5/Volume_ADC.c **** /*******************************************************************************
  34:./Generated_Source/PSoC5/Volume_ADC.c **** * Function Name: Volume_ADC_Start
  35:./Generated_Source/PSoC5/Volume_ADC.c **** ********************************************************************************
  36:./Generated_Source/PSoC5/Volume_ADC.c **** *
  37:./Generated_Source/PSoC5/Volume_ADC.c **** * Summary:
  38:./Generated_Source/PSoC5/Volume_ADC.c **** *  Performs all required initialization for this component and enables the
  39:./Generated_Source/PSoC5/Volume_ADC.c **** *  power.
  40:./Generated_Source/PSoC5/Volume_ADC.c **** *
  41:./Generated_Source/PSoC5/Volume_ADC.c **** * Parameters:
  42:./Generated_Source/PSoC5/Volume_ADC.c **** *  void
  43:./Generated_Source/PSoC5/Volume_ADC.c **** *
  44:./Generated_Source/PSoC5/Volume_ADC.c **** * Return:
  45:./Generated_Source/PSoC5/Volume_ADC.c **** *  void
  46:./Generated_Source/PSoC5/Volume_ADC.c **** *
  47:./Generated_Source/PSoC5/Volume_ADC.c **** *******************************************************************************/
  48:./Generated_Source/PSoC5/Volume_ADC.c **** void Volume_ADC_Start(void)
  49:./Generated_Source/PSoC5/Volume_ADC.c **** {
  43              	me = 8
  44              		@ frame_needed = 1, uses_anonymous_args = 0
  45              		push	{r7, lr}
  46 0000 80B5     	.LCFI0:
  47              		sub	sp, sp, #8
  48 0002 82B0     	.LCFI1:
  49              		add	r7, sp, #0
  50 0004 00AF     	.LCFI2:
  51              		.loc 1 53 0
  50:./Generated_Source/PSoC5/Volume_ADC.c ****     uint8 tmpReg;
  51:./Generated_Source/PSoC5/Volume_ADC.c **** 
  52:./Generated_Source/PSoC5/Volume_ADC.c ****     /* If not Initialized then initialize all required hardware and software */
  53:./Generated_Source/PSoC5/Volume_ADC.c ****     if(Volume_ADC_initVar == 0)
  52              	.L5
  53 0006 2D4B     		ldrb	r3, [r3, #0]	@ zero_extendqisi2
  54 0008 1B78     		cmp	r3, #0
  55 000a 002B     		bne	.L2
  56 000c 34D1     		.loc 1 55 0
  54:./Generated_Source/PSoC5/Volume_ADC.c ****     {
ARM GAS  C:\Users\blinky\AppData\Local\Temp/ccSwbaaa.s 			page 3


  55:./Generated_Source/PSoC5/Volume_ADC.c ****         Volume_ADC_initVar = 1;
  57              	r2, .L5
  58 000e 2B4A     		mov	r3, #1
  59 0010 4FF00103 		strb	r3, [r2, #0]
  60 0014 1370     		.loc 1 58 0
  56:./Generated_Source/PSoC5/Volume_ADC.c ****         /* This is only valid if there is an internal clock */
  57:./Generated_Source/PSoC5/Volume_ADC.c ****         #if(Volume_ADC_DEFAULT_INTERNAL_CLK)
  58:./Generated_Source/PSoC5/Volume_ADC.c ****             Volume_ADC_theACLK_SetMode(CYCLK_DUTY);
  61              		r0, #16
  62 0016 4FF01000 		bl	Volume_ADC_theACLK_SetMode
  63 001a FFF7FEFF 		.loc 1 62 0
  59:./Generated_Source/PSoC5/Volume_ADC.c ****         #endif /* End Volume_ADC_DEFAULT_INTERNAL_CLK */
  60:./Generated_Source/PSoC5/Volume_ADC.c **** 
  61:./Generated_Source/PSoC5/Volume_ADC.c ****         /* Start and set interrupt vector */
  62:./Generated_Source/PSoC5/Volume_ADC.c ****         CyIntSetPriority(Volume_ADC_INTC_NUMBER, Volume_ADC_INTC_PRIOR_NUMBER);
  64              	v	r0, #12
  65 001e 4FF00C00 		mov	r1, #7
  66 0022 4FF00701 		bl	CyIntSetPriority
  67 0026 FFF7FEFF 		.loc 1 63 0
  63:./Generated_Source/PSoC5/Volume_ADC.c ****         CyIntSetVector(Volume_ADC_INTC_NUMBER, Volume_ADC_ISR );
  68              		r0, #12
  69 002a 4FF00C00 		ldr	r1, .L5+4
  70 002e 2449     		bl	CyIntSetVector
  71 0030 FFF7FEFF 		.loc 1 66 0
  64:./Generated_Source/PSoC5/Volume_ADC.c **** 
  65:./Generated_Source/PSoC5/Volume_ADC.c ****         /* default CSR0=0 */
  66:./Generated_Source/PSoC5/Volume_ADC.c ****         tmpReg = Volume_ADC_SAR_CSR0;
  72              		r3, .L5+8
  73 0034 234B     		ldrb	r3, [r3, #0]
  74 0036 1B78     		strb	r3, [r7, #7]
  75 0038 FB71     		.loc 1 72 0
  67:./Generated_Source/PSoC5/Volume_ADC.c **** 
  68:./Generated_Source/PSoC5/Volume_ADC.c ****         /* Set Power parameter  */
  69:./Generated_Source/PSoC5/Volume_ADC.c ****         tmpReg |= (Volume_ADC_DEFAULT_POWER << Volume_ADC_SAR_POWER_SHIFT);
  70:./Generated_Source/PSoC5/Volume_ADC.c **** 
  71:./Generated_Source/PSoC5/Volume_ADC.c ****         /* Clear DAC value at beginning of sampling */
  72:./Generated_Source/PSoC5/Volume_ADC.c ****         tmpReg |= Volume_ADC_SAR_HIZ_CLEAR;
  76              	b	r3, [r7, #7]
  77 003a FB79     		orr	r3, r3, #8
  78 003c 43F00803 		strb	r3, [r7, #7]
  79 0040 FB71     		.loc 1 80 0
  73:./Generated_Source/PSoC5/Volume_ADC.c **** 
  74:./Generated_Source/PSoC5/Volume_ADC.c ****         /*Set Convertion mode */
  75:./Generated_Source/PSoC5/Volume_ADC.c ****         if(Volume_ADC_DEFAULT_CONV_MODE)                /* If triggered mode */
  76:./Generated_Source/PSoC5/Volume_ADC.c ****         {
  77:./Generated_Source/PSoC5/Volume_ADC.c ****             tmpReg |= Volume_ADC_SAR_MX_SOF_UDB;            /* source: UDB */
  78:./Generated_Source/PSoC5/Volume_ADC.c ****             tmpReg |= Volume_ADC_SAR_SOF_MODE_EDGE;        /* Set edge-sensitive sof source */
  79:./Generated_Source/PSoC5/Volume_ADC.c ****          }
  80:./Generated_Source/PSoC5/Volume_ADC.c ****         Volume_ADC_SAR_CSR0 = tmpReg;
  80              		r2, .L5+8
  81 0042 204A     		ldrb	r3, [r7, #7]
  82 0044 FB79     		strb	r3, [r2, #0]
  83 0046 1370     		.loc 1 83 0
  81:./Generated_Source/PSoC5/Volume_ADC.c **** 
  82:./Generated_Source/PSoC5/Volume_ADC.c ****         /* Enable IRQ mode*/
  83:./Generated_Source/PSoC5/Volume_ADC.c ****         Volume_ADC_SAR_CSR1 |= Volume_ADC_SAR_IRQ_MASK_EN | Volume_ADC_SAR_IRQ_MODE_EDGE;
  84              		r2, .L5+12
ARM GAS  C:\Users\blinky\AppData\Local\Temp/ccSwbaaa.s 			page 4


  85 0048 1F4A     		ldr	r3, .L5+12
  86 004a 1F4B     		ldrb	r3, [r3, #0]
  87 004c 1B78     		uxtb	r3, r3
  88 004e DBB2     		orr	r3, r3, #6
  89 0050 43F00603 		uxtb	r3, r3
  90 0054 DBB2     		strb	r3, [r2, #0]
  91 0056 1370     		.loc 1 86 0
  84:./Generated_Source/PSoC5/Volume_ADC.c ****         
  85:./Generated_Source/PSoC5/Volume_ADC.c ****         /*Set SAR ADC resolution ADC */
  86:./Generated_Source/PSoC5/Volume_ADC.c ****         Volume_ADC_SetResolution(Volume_ADC_DEFAULT_RESOLUTION);
  92              	 #8
  93 0058 4FF00800 		bl	Volume_ADC_SetResolution
  94 005c FFF7FEFF 		.loc 1 97 0
  87:./Generated_Source/PSoC5/Volume_ADC.c **** 
  88:./Generated_Source/PSoC5/Volume_ADC.c ****         /*Sets input range of the ADC*/
  89:./Generated_Source/PSoC5/Volume_ADC.c ****         switch (Volume_ADC_DEFAULT_RANGE)
  90:./Generated_Source/PSoC5/Volume_ADC.c ****         {
  91:./Generated_Source/PSoC5/Volume_ADC.c ****             case Volume_ADC__VSS_TO_VREF:
  92:./Generated_Source/PSoC5/Volume_ADC.c ****                 Volume_ADC_SetRef(Volume_ADC_DEFAULT_RANGE);
  93:./Generated_Source/PSoC5/Volume_ADC.c ****                 break;
  94:./Generated_Source/PSoC5/Volume_ADC.c **** 
  95:./Generated_Source/PSoC5/Volume_ADC.c ****             case Volume_ADC__VSSA_TO_VDDA:
  96:./Generated_Source/PSoC5/Volume_ADC.c ****                 /* Set bit for VDD/2 mode */
  97:./Generated_Source/PSoC5/Volume_ADC.c ****                 Volume_ADC_SAR_CSR3 |= Volume_ADC_SAR_EN_RESVDA_EN;
  95              	r	r2, .L5+16
  96 0060 1A4A     		ldr	r3, .L5+16
  97 0062 1A4B     		ldrb	r3, [r3, #0]
  98 0064 1B78     		uxtb	r3, r3
  99 0066 DBB2     		orr	r3, r3, #64
 100 0068 43F04003 		uxtb	r3, r3
 101 006c DBB2     		strb	r3, [r2, #0]
 102 006e 1370     		.loc 1 98 0
  98:./Generated_Source/PSoC5/Volume_ADC.c ****                 Volume_ADC_SetRef(Volume_ADC__VSSA_TO_VDDA);
 103              	 #1
 104 0070 4FF00100 		bl	Volume_ADC_SetRef
 105 0074 FFF7FEFF 	.L2:
 106              		.loc 1 138 0
  99:./Generated_Source/PSoC5/Volume_ADC.c ****                 break;
 100:./Generated_Source/PSoC5/Volume_ADC.c ****             case Volume_ADC__VSSA_TO_VDAC:
 101:./Generated_Source/PSoC5/Volume_ADC.c ****                 Volume_ADC_SetRef(Volume_ADC__VSSA_TO_VDDA);
 102:./Generated_Source/PSoC5/Volume_ADC.c ****                 break;
 103:./Generated_Source/PSoC5/Volume_ADC.c **** 
 104:./Generated_Source/PSoC5/Volume_ADC.c ****             case Volume_ADC__VNEG_VREF_DIFF:
 105:./Generated_Source/PSoC5/Volume_ADC.c ****                 Volume_ADC_SAR_CSR3 |= Volume_ADC_SAR_EN_CP_EN;         /* Enable charge pump*/
 106:./Generated_Source/PSoC5/Volume_ADC.c ****                 Volume_ADC_SAR_CSR3 |= Volume_ADC_SAR_EN_BUF_VCM_EN;    /* Enable VCM reference buf
 107:./Generated_Source/PSoC5/Volume_ADC.c ****                 Volume_ADC_SetRef(Volume_ADC_DEFAULT_RANGE);
 108:./Generated_Source/PSoC5/Volume_ADC.c ****                 break;
 109:./Generated_Source/PSoC5/Volume_ADC.c **** 
 110:./Generated_Source/PSoC5/Volume_ADC.c ****             case Volume_ADC__VNEG_VDDA_DIFF:
 111:./Generated_Source/PSoC5/Volume_ADC.c ****                 Volume_ADC_SAR_CSR3 |= Volume_ADC_SAR_EN_CP_EN;         /* Enable charge pump*/
 112:./Generated_Source/PSoC5/Volume_ADC.c ****                 Volume_ADC_SAR_CSR3 |= Volume_ADC_SAR_EN_BUF_VCM_EN;    /* Enable VCM reference buf
 113:./Generated_Source/PSoC5/Volume_ADC.c ****                 Volume_ADC_SetRef(Volume_ADC__VSSA_TO_VDDA);
 114:./Generated_Source/PSoC5/Volume_ADC.c ****                 break;
 115:./Generated_Source/PSoC5/Volume_ADC.c **** 
 116:./Generated_Source/PSoC5/Volume_ADC.c ****             case Volume_ADC__VNEG_VDDA_2_DIFF:
 117:./Generated_Source/PSoC5/Volume_ADC.c ****                  /* Set bit for VDD/2 mode*/
 118:./Generated_Source/PSoC5/Volume_ADC.c ****                 Volume_ADC_SAR_CSR3 |= Volume_ADC_SAR_EN_RESVDA_EN;
ARM GAS  C:\Users\blinky\AppData\Local\Temp/ccSwbaaa.s 			page 5


 119:./Generated_Source/PSoC5/Volume_ADC.c ****                 Volume_ADC_SAR_CSR3 |= Volume_ADC_SAR_EN_CP_EN;         /* Enable charge pump*/
 120:./Generated_Source/PSoC5/Volume_ADC.c ****                 Volume_ADC_SAR_CSR3 |= Volume_ADC_SAR_EN_BUF_VCM_EN;    /* Enable VCM reference buf
 121:./Generated_Source/PSoC5/Volume_ADC.c ****                 Volume_ADC_SetRef(Volume_ADC__VSSA_TO_VDDA);
 122:./Generated_Source/PSoC5/Volume_ADC.c ****                 break;
 123:./Generated_Source/PSoC5/Volume_ADC.c ****             case Volume_ADC__VNEG_VDAC_DIFF:
 124:./Generated_Source/PSoC5/Volume_ADC.c ****                 Volume_ADC_SetRef(Volume_ADC__VSSA_TO_VDDA);
 125:./Generated_Source/PSoC5/Volume_ADC.c ****                 break;
 126:./Generated_Source/PSoC5/Volume_ADC.c **** 
 127:./Generated_Source/PSoC5/Volume_ADC.c ****             default:
 128:./Generated_Source/PSoC5/Volume_ADC.c ****                 /* if default case is hit, invalid argument was passed.*/
 129:./Generated_Source/PSoC5/Volume_ADC.c ****                 break;
 130:./Generated_Source/PSoC5/Volume_ADC.c ****          }
 131:./Generated_Source/PSoC5/Volume_ADC.c **** 
 132:./Generated_Source/PSoC5/Volume_ADC.c ****     } /* End Volume_ADC_initVar */
 133:./Generated_Source/PSoC5/Volume_ADC.c **** 
 134:./Generated_Source/PSoC5/Volume_ADC.c ****     /*Volume_ADC_SAR_TR0 = Volume_ADC_SAR_CAP_TRIM_4;*/ /*Set attenuation capacitor*/
 135:./Generated_Source/PSoC5/Volume_ADC.c **** 
 136:./Generated_Source/PSoC5/Volume_ADC.c ****     /* This is only valid if there is an internal clock */
 137:./Generated_Source/PSoC5/Volume_ADC.c ****     #if(Volume_ADC_DEFAULT_INTERNAL_CLK)
 138:./Generated_Source/PSoC5/Volume_ADC.c ****         Volume_ADC_PWRMGR_CLK |= Volume_ADC_ACT_PWR_CLK_EN;
 107              		r2, .L5+20
 108 0078 154A     		ldr	r3, .L5+20
 109 007a 154B     		ldrb	r3, [r3, #0]
 110 007c 1B78     		uxtb	r3, r3
 111 007e DBB2     		orr	r3, r3, #1
 112 0080 43F00103 		uxtb	r3, r3
 113 0084 DBB2     		strb	r3, [r2, #0]
 114 0086 1370     		.loc 1 139 0
 139:./Generated_Source/PSoC5/Volume_ADC.c ****         Volume_ADC_theACLK_Enable();
 115              	me_ADC_theACLK_Start
 116 0088 FFF7FEFF 		.loc 1 143 0
 140:./Generated_Source/PSoC5/Volume_ADC.c ****     #endif /* End Volume_ADC_DEFAULT_INTERNAL_CLK */
 141:./Generated_Source/PSoC5/Volume_ADC.c **** 
 142:./Generated_Source/PSoC5/Volume_ADC.c ****     /* Enable clock for SAR ADC*/
 143:./Generated_Source/PSoC5/Volume_ADC.c ****     Volume_ADC_SAR_CLK |= Volume_ADC_SAR_MX_CLK_EN;
 117              	dr	r2, .L5+24
 118 008c 114A     		ldr	r3, .L5+24
 119 008e 114B     		ldrb	r3, [r3, #0]
 120 0090 1B78     		uxtb	r3, r3
 121 0092 DBB2     		orr	r3, r3, #8
 122 0094 43F00803 		uxtb	r3, r3
 123 0098 DBB2     		strb	r3, [r2, #0]
 124 009a 1370     		.loc 1 146 0
 144:./Generated_Source/PSoC5/Volume_ADC.c **** 
 145:./Generated_Source/PSoC5/Volume_ADC.c ****      /* Enable power for ADC */
 146:./Generated_Source/PSoC5/Volume_ADC.c ****     Volume_ADC_PWRMGR_SAR |= Volume_ADC_ACT_PWR_SAR_EN;
 125              	 .L5+28
 126 009c 0E4A     		ldr	r3, .L5+28
 127 009e 0E4B     		ldrb	r3, [r3, #0]
 128 00a0 1B78     		uxtb	r3, r3
 129 00a2 DBB2     		orr	r3, r3, #1
 130 00a4 43F00103 		uxtb	r3, r3
 131 00a8 DBB2     		strb	r3, [r2, #0]
 132 00aa 1370     		.loc 1 149 0
 147:./Generated_Source/PSoC5/Volume_ADC.c ****     
 148:./Generated_Source/PSoC5/Volume_ADC.c ****     /* Clear a pending interrupt */
 149:./Generated_Source/PSoC5/Volume_ADC.c ****     CyIntClearPending(Volume_ADC_INTC_NUMBER);
ARM GAS  C:\Users\blinky\AppData\Local\Temp/ccSwbaaa.s 			page 6


 133              	 #12
 134 00ac 4FF00C00 		bl	CyIntClearPending
 135 00b0 FFF7FEFF 		.loc 1 150 0
 150:./Generated_Source/PSoC5/Volume_ADC.c **** }
 136              	d	r7, r7, #8
 137 00b4 07F10807 		mov	sp, r7
 138 00b8 BD46     		pop	{r7, pc}
 139 00ba 80BD     	.L6:
 140              		.align	2
 141              	.L5:
 142              		.word	Volume_ADC_initVar
 143 00bc 00000000 		.word	Volume_ADC_ISR
 144 00c0 00000000 		.word	1073764608
 145 00c4 00590040 		.word	1073764609
 146 00c8 01590040 		.word	1073764611
 147 00cc 03590040 		.word	1073759138
 148 00d0 A2430040 		.word	1073765159
 149 00d4 275B0040 		.word	1073759147
 150 00d8 AB430040 	.LFE2:
 151              		.size	Volume_ADC_Start, .-Volume_ADC_Start
 152              		.section	.text.Volume_ADC_SetRef,"ax",%progbits
 153              		.align	2
 154              		.global	Volume_ADC_SetRef
 155              		.thumb
 156              		.thumb_func
 157              		.type	Volume_ADC_SetRef, %function
 158              	Volume_ADC_SetRef:
 159              	.LFB3:
 160              		.loc 1 168 0
 151:./Generated_Source/PSoC5/Volume_ADC.c **** 
 152:./Generated_Source/PSoC5/Volume_ADC.c **** 
 153:./Generated_Source/PSoC5/Volume_ADC.c **** /*******************************************************************************
 154:./Generated_Source/PSoC5/Volume_ADC.c **** * Function Name: Volume_ADC_SetRef
 155:./Generated_Source/PSoC5/Volume_ADC.c **** ********************************************************************************
 156:./Generated_Source/PSoC5/Volume_ADC.c **** *
 157:./Generated_Source/PSoC5/Volume_ADC.c **** * Summary:
 158:./Generated_Source/PSoC5/Volume_ADC.c **** *   Sets reference for ADC
 159:./Generated_Source/PSoC5/Volume_ADC.c **** *
 160:./Generated_Source/PSoC5/Volume_ADC.c **** * Parameters:
 161:./Generated_Source/PSoC5/Volume_ADC.c **** *  refMode: Reference configuration.
 162:./Generated_Source/PSoC5/Volume_ADC.c **** *
 163:./Generated_Source/PSoC5/Volume_ADC.c **** * Return:
 164:./Generated_Source/PSoC5/Volume_ADC.c **** *  void
 165:./Generated_Source/PSoC5/Volume_ADC.c **** *
 166:./Generated_Source/PSoC5/Volume_ADC.c **** *******************************************************************************/
 167:./Generated_Source/PSoC5/Volume_ADC.c **** void Volume_ADC_SetRef(int8 refMode)
 168:./Generated_Source/PSoC5/Volume_ADC.c **** {
 161              	 frame = 16
 162              		@ frame_needed = 1, uses_anonymous_args = 0
 163              		@ link register save eliminated.
 164              		push	{r7}
 165 0000 80B4     	.LCFI3:
 166              		sub	sp, sp, #20
 167 0002 85B0     	.LCFI4:
 168              		add	r7, sp, #0
 169 0004 00AF     	.LCFI5:
 170              		@ lr needed for prologue
ARM GAS  C:\Users\blinky\AppData\Local\Temp/ccSwbaaa.s 			page 7


 171              		mov	r3, r0
 172 0006 0346     		strb	r3, [r7, #7]
 173 0008 FB71     		.loc 1 170 0
 169:./Generated_Source/PSoC5/Volume_ADC.c ****     uint8 tmpReg;
 170:./Generated_Source/PSoC5/Volume_ADC.c ****     if(refMode == Volume_ADC__VSSA_TO_VDDA)
 174              	7, #7]
 175 000a 97F90730 		cmp	r3, #1
 176 000e 012B     		bne	.L8
 177 0010 0BD1     		.loc 1 173 0
 171:./Generated_Source/PSoC5/Volume_ADC.c ****     {
 172:./Generated_Source/PSoC5/Volume_ADC.c ****         /* Use internal reference*/
 173:./Generated_Source/PSoC5/Volume_ADC.c ****         tmpReg = Volume_ADC_SAR_REF_S3_LSB_EN | Volume_ADC_SAR_REF_S4_LSB_EN;
 178              		r3, #24
 179 0012 4FF01803 		strb	r3, [r7, #15]
 180 0016 FB73     		.loc 1 175 0
 174:./Generated_Source/PSoC5/Volume_ADC.c ****         /*tmpReg = Volume_ADC_SAR_REF_S4_LSB_EN | Volume_ADC_SAR_REF_S7_LSB_EN;*/   /*IROS need upd
 175:./Generated_Source/PSoC5/Volume_ADC.c ****         Volume_ADC_SAR_CSR3 |= Volume_ADC_SAR_EN_BUF_VREF_EN;    /* Enable Int Ref Amp*/
 181              	r	r2, .L12
 182 0018 0F4A     		ldr	r3, .L12
 183 001a 0F4B     		ldrb	r3, [r3, #0]
 184 001c 1B78     		uxtb	r3, r3
 185 001e DBB2     		orr	r3, r3, #1
 186 0020 43F00103 		uxtb	r3, r3
 187 0024 DBB2     		strb	r3, [r2, #0]
 188 0026 1370     		b	.L10
 189 0028 0AE0     	.L8:
 190              		.loc 1 182 0
 176:./Generated_Source/PSoC5/Volume_ADC.c ****     }
 177:./Generated_Source/PSoC5/Volume_ADC.c ****     else
 178:./Generated_Source/PSoC5/Volume_ADC.c ****     {
 179:./Generated_Source/PSoC5/Volume_ADC.c ****         switch (Volume_ADC_DEFAULT_REFERENCE)
 180:./Generated_Source/PSoC5/Volume_ADC.c ****         {
 181:./Generated_Source/PSoC5/Volume_ADC.c ****             case Volume_ADC__INT_REF_NOT_BYPASSED:
 182:./Generated_Source/PSoC5/Volume_ADC.c ****                 tmpReg = Volume_ADC_SAR_REF_S3_LSB_EN | Volume_ADC_SAR_REF_S4_LSB_EN;
 191              	24
 192 002a 4FF01803 		strb	r3, [r7, #15]
 193 002e FB73     		.loc 1 183 0
 183:./Generated_Source/PSoC5/Volume_ADC.c ****                 Volume_ADC_SAR_CSR3 |= Volume_ADC_SAR_EN_BUF_VREF_EN; /* Enable Int Ref Amp*/
 194              	r	r2, .L12
 195 0030 094A     		ldr	r3, .L12
 196 0032 094B     		ldrb	r3, [r3, #0]
 197 0034 1B78     		uxtb	r3, r3
 198 0036 DBB2     		orr	r3, r3, #1
 199 0038 43F00103 		uxtb	r3, r3
 200 003c DBB2     		strb	r3, [r2, #0]
 201 003e 1370     	.L10:
 202              		.loc 1 201 0
 184:./Generated_Source/PSoC5/Volume_ADC.c ****                 break;
 185:./Generated_Source/PSoC5/Volume_ADC.c ****             case Volume_ADC__INT_REF_BYPASS:
 186:./Generated_Source/PSoC5/Volume_ADC.c ****                 tmpReg = Volume_ADC_SAR_REF_S2_LSB_EN | 
 187:./Generated_Source/PSoC5/Volume_ADC.c ****                          Volume_ADC_SAR_REF_S3_LSB_EN | 
 188:./Generated_Source/PSoC5/Volume_ADC.c ****                          Volume_ADC_SAR_REF_S4_LSB_EN;
 189:./Generated_Source/PSoC5/Volume_ADC.c ****                 Volume_ADC_SAR_CSR3 |= Volume_ADC_SAR_EN_BUF_VREF_EN; /* Enable Int Ref Amp*/
 190:./Generated_Source/PSoC5/Volume_ADC.c ****                 //Volume_ADC_SAR_CSR3 |= Volume_ADC_SAR_EN_BUF_VCM_EN;  /* Enable VCM Ref Amp*/
 191:./Generated_Source/PSoC5/Volume_ADC.c ****                 break;
 192:./Generated_Source/PSoC5/Volume_ADC.c ****             case Volume_ADC__EXT_REF:
 193:./Generated_Source/PSoC5/Volume_ADC.c ****                 tmpReg = Volume_ADC_SAR_REF_S2_LSB_EN;
ARM GAS  C:\Users\blinky\AppData\Local\Temp/ccSwbaaa.s 			page 8


 194:./Generated_Source/PSoC5/Volume_ADC.c ****                 Volume_ADC_SAR_CSR3 &= ~Volume_ADC_SAR_EN_BUF_VREF_EN; /* Disable Int Ref Amp*/
 195:./Generated_Source/PSoC5/Volume_ADC.c ****                 break;
 196:./Generated_Source/PSoC5/Volume_ADC.c ****             default:
 197:./Generated_Source/PSoC5/Volume_ADC.c ****                 /* if default case is hit, invalid argument was passed.*/
 198:./Generated_Source/PSoC5/Volume_ADC.c ****                 break;
 199:./Generated_Source/PSoC5/Volume_ADC.c ****          }
 200:./Generated_Source/PSoC5/Volume_ADC.c ****      }
 201:./Generated_Source/PSoC5/Volume_ADC.c ****     Volume_ADC_SAR_CSR6 = tmpReg;
 203              	.L12+4
 204 0040 064A     		ldrb	r3, [r7, #15]
 205 0042 FB7B     		strb	r3, [r2, #0]
 206 0044 1370     		.loc 1 202 0
 202:./Generated_Source/PSoC5/Volume_ADC.c ****     Volume_ADC_SAR_CSR7 = Volume_ADC_SAR_REF_S_MSB_DIS;
 207              		r2, .L12+8
 208 0046 064A     		mov	r3, #0
 209 0048 4FF00003 		strb	r3, [r2, #0]
 210 004c 1370     		.loc 1 204 0
 203:./Generated_Source/PSoC5/Volume_ADC.c **** 
 204:./Generated_Source/PSoC5/Volume_ADC.c ****  }
 211              		r7, r7, #20
 212 004e 07F11407 		mov	sp, r7
 213 0052 BD46     		pop	{r7}
 214 0054 80BC     		bx	lr
 215 0056 7047     	.L13:
 216              		.align	2
 217              	.L12:
 218              		.word	1073764611
 219 0058 03590040 		.word	1073764614
 220 005c 06590040 		.word	1073764615
 221 0060 07590040 	.LFE3:
 222              		.size	Volume_ADC_SetRef, .-Volume_ADC_SetRef
 223              		.section	.text.Volume_ADC_Stop,"ax",%progbits
 224              		.align	2
 225              		.global	Volume_ADC_Stop
 226              		.thumb
 227              		.thumb_func
 228              		.type	Volume_ADC_Stop, %function
 229              	Volume_ADC_Stop:
 230              	.LFB4:
 231              		.loc 1 222 0
 205:./Generated_Source/PSoC5/Volume_ADC.c **** 
 206:./Generated_Source/PSoC5/Volume_ADC.c **** 
 207:./Generated_Source/PSoC5/Volume_ADC.c **** /*******************************************************************************
 208:./Generated_Source/PSoC5/Volume_ADC.c **** * Function Name: Volume_ADC_Stop
 209:./Generated_Source/PSoC5/Volume_ADC.c **** ********************************************************************************
 210:./Generated_Source/PSoC5/Volume_ADC.c **** *
 211:./Generated_Source/PSoC5/Volume_ADC.c **** * Summary:
 212:./Generated_Source/PSoC5/Volume_ADC.c **** *  Stops and powers the SAR ADC component off.
 213:./Generated_Source/PSoC5/Volume_ADC.c **** *
 214:./Generated_Source/PSoC5/Volume_ADC.c **** * Parameters:
 215:./Generated_Source/PSoC5/Volume_ADC.c **** *  void
 216:./Generated_Source/PSoC5/Volume_ADC.c **** *
 217:./Generated_Source/PSoC5/Volume_ADC.c **** * Return:
 218:./Generated_Source/PSoC5/Volume_ADC.c **** *  void
 219:./Generated_Source/PSoC5/Volume_ADC.c **** *
 220:./Generated_Source/PSoC5/Volume_ADC.c **** *******************************************************************************/
 221:./Generated_Source/PSoC5/Volume_ADC.c **** void Volume_ADC_Stop(void)
ARM GAS  C:\Users\blinky\AppData\Local\Temp/ccSwbaaa.s 			page 9


 222:./Generated_Source/PSoC5/Volume_ADC.c **** {
 232              	= 0, frame = 0
 233              		@ frame_needed = 1, uses_anonymous_args = 0
 234              		push	{r7, lr}
 235 0000 80B5     	.LCFI6:
 236              		add	r7, sp, #0
 237 0002 00AF     	.LCFI7:
 238              		.loc 1 224 0
 223:./Generated_Source/PSoC5/Volume_ADC.c ****     /* Stop all conversions */
 224:./Generated_Source/PSoC5/Volume_ADC.c ****     Volume_ADC_SAR_CSR0 &= ~Volume_ADC_SAR_SOF_START_CONV;
 239              	, .L16
 240 0004 0C4A     		ldr	r3, .L16
 241 0006 0C4B     		ldrb	r3, [r3, #0]
 242 0008 1B78     		uxtb	r3, r3
 243 000a DBB2     		and	r3, r3, #254
 244 000c 03F0FE03 		strb	r3, [r2, #0]
 245 0010 1370     		.loc 1 227 0
 225:./Generated_Source/PSoC5/Volume_ADC.c **** 
 226:./Generated_Source/PSoC5/Volume_ADC.c ****          /* Disable power for ADC */
 227:./Generated_Source/PSoC5/Volume_ADC.c ****     Volume_ADC_PWRMGR_SAR &= ~Volume_ADC_ACT_PWR_SAR_EN;
 246              	, .L16+4
 247 0012 0A4A     		ldr	r3, .L16+4
 248 0014 094B     		ldrb	r3, [r3, #0]
 249 0016 1B78     		uxtb	r3, r3
 250 0018 DBB2     		and	r3, r3, #254
 251 001a 03F0FE03 		strb	r3, [r2, #0]
 252 001e 1370     		.loc 1 231 0
 228:./Generated_Source/PSoC5/Volume_ADC.c **** 
 229:./Generated_Source/PSoC5/Volume_ADC.c ****     /* This is only valid if there is an internal clock */
 230:./Generated_Source/PSoC5/Volume_ADC.c ****     #if(Volume_ADC_DEFAULT_INTERNAL_CLK)
 231:./Generated_Source/PSoC5/Volume_ADC.c ****         Volume_ADC_PWRMGR_CLK &= ~Volume_ADC_ACT_PWR_CLK_EN;
 253              	, .L16+8
 254 0020 074A     		ldr	r3, .L16+8
 255 0022 074B     		ldrb	r3, [r3, #0]
 256 0024 1B78     		uxtb	r3, r3
 257 0026 DBB2     		and	r3, r3, #254
 258 0028 03F0FE03 		strb	r3, [r2, #0]
 259 002c 1370     		.loc 1 232 0
 232:./Generated_Source/PSoC5/Volume_ADC.c ****         Volume_ADC_theACLK_Disable();
 260              	ume_ADC_theACLK_Stop
 261 002e FFF7FEFF 		.loc 1 235 0
 233:./Generated_Source/PSoC5/Volume_ADC.c ****     #endif /* End Volume_ADC_DEFAULT_INTERNAL_CLK */
 234:./Generated_Source/PSoC5/Volume_ADC.c **** 
 235:./Generated_Source/PSoC5/Volume_ADC.c **** }
 262              	ov	sp, r7
 263 0032 BD46     		pop	{r7, pc}
 264 0034 80BD     	.L17:
 265              		.align	2
 266 0036 C046     	.L16:
 267              		.word	1073764608
 268 0038 00590040 		.word	1073759147
 269 003c AB430040 		.word	1073759138
 270 0040 A2430040 	.LFE4:
 271              		.size	Volume_ADC_Stop, .-Volume_ADC_Stop
 272              		.section	.text.Volume_ADC_IRQ_Enable,"ax",%progbits
 273              		.align	2
 274              		.global	Volume_ADC_IRQ_Enable
ARM GAS  C:\Users\blinky\AppData\Local\Temp/ccSwbaaa.s 			page 10


 275              		.thumb
 276              		.thumb_func
 277              		.type	Volume_ADC_IRQ_Enable, %function
 278              	Volume_ADC_IRQ_Enable:
 279              	.LFB5:
 280              		.loc 1 255 0
 236:./Generated_Source/PSoC5/Volume_ADC.c **** 
 237:./Generated_Source/PSoC5/Volume_ADC.c **** 
 238:./Generated_Source/PSoC5/Volume_ADC.c **** /*******************************************************************************
 239:./Generated_Source/PSoC5/Volume_ADC.c **** * Function Name: Volume_ADC_IRQ_Enable
 240:./Generated_Source/PSoC5/Volume_ADC.c **** ********************************************************************************
 241:./Generated_Source/PSoC5/Volume_ADC.c **** * Summary:
 242:./Generated_Source/PSoC5/Volume_ADC.c **** *   Enables the interrupt.
 243:./Generated_Source/PSoC5/Volume_ADC.c **** *
 244:./Generated_Source/PSoC5/Volume_ADC.c **** *
 245:./Generated_Source/PSoC5/Volume_ADC.c **** * Parameters:
 246:./Generated_Source/PSoC5/Volume_ADC.c **** *   void.
 247:./Generated_Source/PSoC5/Volume_ADC.c **** *
 248:./Generated_Source/PSoC5/Volume_ADC.c **** *
 249:./Generated_Source/PSoC5/Volume_ADC.c **** * Return:
 250:./Generated_Source/PSoC5/Volume_ADC.c **** *   void.
 251:./Generated_Source/PSoC5/Volume_ADC.c **** *
 252:./Generated_Source/PSoC5/Volume_ADC.c **** *
 253:./Generated_Source/PSoC5/Volume_ADC.c **** *******************************************************************************/
 254:./Generated_Source/PSoC5/Volume_ADC.c **** void Volume_ADC_IRQ_Enable(void)
 255:./Generated_Source/PSoC5/Volume_ADC.c **** {
 281              	d = 0, frame = 0
 282              		@ frame_needed = 1, uses_anonymous_args = 0
 283              		push	{r7, lr}
 284 0000 80B5     	.LCFI8:
 285              		add	r7, sp, #0
 286 0002 00AF     	.LCFI9:
 287              		.loc 1 257 0
 256:./Generated_Source/PSoC5/Volume_ADC.c ****     /* Enable the general interrupt. */
 257:./Generated_Source/PSoC5/Volume_ADC.c ****     CyIntEnable(Volume_ADC_INTC_NUMBER);
 288              	, #12
 289 0004 4FF00C00 		bl	CyIntEnable
 290 0008 FFF7FEFF 		.loc 1 258 0
 258:./Generated_Source/PSoC5/Volume_ADC.c **** }
 291              	v	sp, r7
 292 000c BD46     		pop	{r7, pc}
 293 000e 80BD     	.LFE5:
 294              		.size	Volume_ADC_IRQ_Enable, .-Volume_ADC_IRQ_Enable
 295              		.section	.text.Volume_ADC_IRQ_Disable,"ax",%progbits
 296              		.align	2
 297              		.global	Volume_ADC_IRQ_Disable
 298              		.thumb
 299              		.thumb_func
 300              		.type	Volume_ADC_IRQ_Disable, %function
 301              	Volume_ADC_IRQ_Disable:
 302              	.LFB6:
 303              		.loc 1 278 0
 259:./Generated_Source/PSoC5/Volume_ADC.c **** 
 260:./Generated_Source/PSoC5/Volume_ADC.c **** 
 261:./Generated_Source/PSoC5/Volume_ADC.c **** /*******************************************************************************
 262:./Generated_Source/PSoC5/Volume_ADC.c **** * Function Name: Volume_ADC_IRQ_Disable
 263:./Generated_Source/PSoC5/Volume_ADC.c **** ********************************************************************************
ARM GAS  C:\Users\blinky\AppData\Local\Temp/ccSwbaaa.s 			page 11


 264:./Generated_Source/PSoC5/Volume_ADC.c **** * Summary:
 265:./Generated_Source/PSoC5/Volume_ADC.c **** *   Disables the Interrupt.
 266:./Generated_Source/PSoC5/Volume_ADC.c **** *
 267:./Generated_Source/PSoC5/Volume_ADC.c **** *
 268:./Generated_Source/PSoC5/Volume_ADC.c **** * Parameters:
 269:./Generated_Source/PSoC5/Volume_ADC.c **** *   void.
 270:./Generated_Source/PSoC5/Volume_ADC.c **** *
 271:./Generated_Source/PSoC5/Volume_ADC.c **** *
 272:./Generated_Source/PSoC5/Volume_ADC.c **** * Return:
 273:./Generated_Source/PSoC5/Volume_ADC.c **** *   void.
 274:./Generated_Source/PSoC5/Volume_ADC.c **** *
 275:./Generated_Source/PSoC5/Volume_ADC.c **** *
 276:./Generated_Source/PSoC5/Volume_ADC.c **** *******************************************************************************/
 277:./Generated_Source/PSoC5/Volume_ADC.c **** void Volume_ADC_IRQ_Disable(void)
 278:./Generated_Source/PSoC5/Volume_ADC.c **** {
 304              	pretend = 0, frame = 0
 305              		@ frame_needed = 1, uses_anonymous_args = 0
 306              		push	{r7, lr}
 307 0000 80B5     	.LCFI10:
 308              		add	r7, sp, #0
 309 0002 00AF     	.LCFI11:
 310              		.loc 1 280 0
 279:./Generated_Source/PSoC5/Volume_ADC.c ****     /* Disable the general interrupt. */
 280:./Generated_Source/PSoC5/Volume_ADC.c ****     CyIntDisable(Volume_ADC_INTC_NUMBER);
 311              	, #12
 312 0004 4FF00C00 		bl	CyIntDisable
 313 0008 FFF7FEFF 		.loc 1 281 0
 281:./Generated_Source/PSoC5/Volume_ADC.c **** }
 314              	v	sp, r7
 315 000c BD46     		pop	{r7, pc}
 316 000e 80BD     	.LFE6:
 317              		.size	Volume_ADC_IRQ_Disable, .-Volume_ADC_IRQ_Disable
 318              		.section	.text.Volume_ADC_SetPower,"ax",%progbits
 319              		.align	2
 320              		.global	Volume_ADC_SetPower
 321              		.thumb
 322              		.thumb_func
 323              		.type	Volume_ADC_SetPower, %function
 324              	Volume_ADC_SetPower:
 325              	.LFB7:
 326              		.loc 1 303 0
 282:./Generated_Source/PSoC5/Volume_ADC.c **** 
 283:./Generated_Source/PSoC5/Volume_ADC.c **** 
 284:./Generated_Source/PSoC5/Volume_ADC.c **** /*******************************************************************************
 285:./Generated_Source/PSoC5/Volume_ADC.c **** * Function Name: Volume_ADC_SetPower
 286:./Generated_Source/PSoC5/Volume_ADC.c **** ********************************************************************************
 287:./Generated_Source/PSoC5/Volume_ADC.c **** *
 288:./Generated_Source/PSoC5/Volume_ADC.c **** * Summary:
 289:./Generated_Source/PSoC5/Volume_ADC.c **** *  Sets the Power mode.
 290:./Generated_Source/PSoC5/Volume_ADC.c **** *
 291:./Generated_Source/PSoC5/Volume_ADC.c **** * Parameters:
 292:./Generated_Source/PSoC5/Volume_ADC.c **** *  power:  Power setting for ADC
 293:./Generated_Source/PSoC5/Volume_ADC.c **** *  0 ->    Normal
 294:./Generated_Source/PSoC5/Volume_ADC.c **** *  1 ->    Half power
 295:./Generated_Source/PSoC5/Volume_ADC.c **** *  2 ->    1/3rd power
 296:./Generated_Source/PSoC5/Volume_ADC.c **** *  3 ->    Quarter power.
 297:./Generated_Source/PSoC5/Volume_ADC.c **** *
ARM GAS  C:\Users\blinky\AppData\Local\Temp/ccSwbaaa.s 			page 12


 298:./Generated_Source/PSoC5/Volume_ADC.c **** * Return:
 299:./Generated_Source/PSoC5/Volume_ADC.c **** *  void
 300:./Generated_Source/PSoC5/Volume_ADC.c **** *
 301:./Generated_Source/PSoC5/Volume_ADC.c **** *******************************************************************************/
 302:./Generated_Source/PSoC5/Volume_ADC.c **** void Volume_ADC_SetPower(uint8 power)
 303:./Generated_Source/PSoC5/Volume_ADC.c **** {
 327              	pretend = 0, frame = 16
 328              		@ frame_needed = 1, uses_anonymous_args = 0
 329              		@ link register save eliminated.
 330              		push	{r7}
 331 0000 80B4     	.LCFI12:
 332              		sub	sp, sp, #20
 333 0002 85B0     	.LCFI13:
 334              		add	r7, sp, #0
 335 0004 00AF     	.LCFI14:
 336              		@ lr needed for prologue
 337              		mov	r3, r0
 338 0006 0346     		strb	r3, [r7, #7]
 339 0008 FB71     		.loc 1 307 0
 304:./Generated_Source/PSoC5/Volume_ADC.c ****     uint8 tmpReg;
 305:./Generated_Source/PSoC5/Volume_ADC.c **** 
 306:./Generated_Source/PSoC5/Volume_ADC.c ****     /* mask off invalid power settings */
 307:./Generated_Source/PSoC5/Volume_ADC.c ****     power &= ~Volume_ADC_SAR_API_POWER_MASK;
 340              	, #7]
 341 000a FB79     		bic	r3, r3, #3
 342 000c 23F00303 		strb	r3, [r7, #7]
 343 0010 FB71     		.loc 1 310 0
 308:./Generated_Source/PSoC5/Volume_ADC.c **** 
 309:./Generated_Source/PSoC5/Volume_ADC.c ****     /* Set Power parameter  */
 310:./Generated_Source/PSoC5/Volume_ADC.c ****     tmpReg = Volume_ADC_SAR_CSR0 & ~Volume_ADC_SAR_POWER_MASK;
 344              		r3, .L24
 345 0012 0C4B     		ldrb	r3, [r3, #0]
 346 0014 1B78     		uxtb	r3, r3
 347 0016 DBB2     		and	r3, r3, #63
 348 0018 03F03F03 		strb	r3, [r7, #15]
 349 001c FB73     		.loc 1 311 0
 311:./Generated_Source/PSoC5/Volume_ADC.c ****     tmpReg |= (power << Volume_ADC_SAR_POWER_SHIFT);
 350              	r3, [r7, #7]	@ zero_extendqisi2
 351 001e FB79     		lsl	r3, r3, #6
 352 0020 4FEA8313 		uxtb	r3, r3
 353 0024 DBB2     		ldrb	r2, [r7, #15]	@ zero_extendqisi2
 354 0026 FA7B     		mov	r1, r3
 355 0028 1946     		mov	r3, r2
 356 002a 1346     		orr	r3, r1, r3
 357 002c 41EA0303 		uxtb	r3, r3
 358 0030 DBB2     		strb	r3, [r7, #15]
 359 0032 FB73     		.loc 1 312 0
 312:./Generated_Source/PSoC5/Volume_ADC.c ****     Volume_ADC_SAR_CSR0 = tmpReg;
 360              	L24
 361 0034 034A     		ldrb	r3, [r7, #15]
 362 0036 FB7B     		strb	r3, [r2, #0]
 363 0038 1370     		.loc 1 313 0
 313:./Generated_Source/PSoC5/Volume_ADC.c **** }
 364              		r7, r7, #20
 365 003a 07F11407 		mov	sp, r7
 366 003e BD46     		pop	{r7}
 367 0040 80BC     		bx	lr
ARM GAS  C:\Users\blinky\AppData\Local\Temp/ccSwbaaa.s 			page 13


 368 0042 7047     	.L25:
 369              		.align	2
 370              	.L24:
 371              		.word	1073764608
 372 0044 00590040 	.LFE7:
 373              		.size	Volume_ADC_SetPower, .-Volume_ADC_SetPower
 374              		.section	.text.Volume_ADC_SetResolution,"ax",%progbits
 375              		.align	2
 376              		.global	Volume_ADC_SetResolution
 377              		.thumb
 378              		.thumb_func
 379              		.type	Volume_ADC_SetResolution, %function
 380              	Volume_ADC_SetResolution:
 381              	.LFB8:
 382              		.loc 1 339 0
 314:./Generated_Source/PSoC5/Volume_ADC.c **** 
 315:./Generated_Source/PSoC5/Volume_ADC.c **** 
 316:./Generated_Source/PSoC5/Volume_ADC.c **** /*******************************************************************************
 317:./Generated_Source/PSoC5/Volume_ADC.c **** * Function Name: Volume_ADC_SetResolution
 318:./Generated_Source/PSoC5/Volume_ADC.c **** ********************************************************************************
 319:./Generated_Source/PSoC5/Volume_ADC.c **** *
 320:./Generated_Source/PSoC5/Volume_ADC.c **** * Summary:
 321:./Generated_Source/PSoC5/Volume_ADC.c **** *  Sets the Relution of the SAR.
 322:./Generated_Source/PSoC5/Volume_ADC.c **** *
 323:./Generated_Source/PSoC5/Volume_ADC.c **** * Parameters:
 324:./Generated_Source/PSoC5/Volume_ADC.c **** *  resolution:
 325:./Generated_Source/PSoC5/Volume_ADC.c **** *  12 ->    RES12
 326:./Generated_Source/PSoC5/Volume_ADC.c **** *  10 ->    RES10
 327:./Generated_Source/PSoC5/Volume_ADC.c **** *  8  ->    RES8
 328:./Generated_Source/PSoC5/Volume_ADC.c **** *
 329:./Generated_Source/PSoC5/Volume_ADC.c **** * Return:
 330:./Generated_Source/PSoC5/Volume_ADC.c **** *  void
 331:./Generated_Source/PSoC5/Volume_ADC.c **** *
 332:./Generated_Source/PSoC5/Volume_ADC.c **** * Theory:
 333:./Generated_Source/PSoC5/Volume_ADC.c **** *
 334:./Generated_Source/PSoC5/Volume_ADC.c **** * Side Effects:
 335:./Generated_Source/PSoC5/Volume_ADC.c **** *  This function calls CalcGain procedure to calculate new gain based on 
 336:./Generated_Source/PSoC5/Volume_ADC.c **** *  resolution 
 337:./Generated_Source/PSoC5/Volume_ADC.c **** *******************************************************************************/
 338:./Generated_Source/PSoC5/Volume_ADC.c **** void Volume_ADC_SetResolution(uint8 resolution)
 339:./Generated_Source/PSoC5/Volume_ADC.c **** {
 383              	d = 0, frame = 16
 384              		@ frame_needed = 1, uses_anonymous_args = 0
 385              		push	{r7, lr}
 386 0000 80B5     	.LCFI15:
 387              		sub	sp, sp, #16
 388 0002 84B0     	.LCFI16:
 389              		add	r7, sp, #0
 390 0004 00AF     	.LCFI17:
 391              		mov	r3, r0
 392 0006 0346     		strb	r3, [r7, #7]
 393 0008 FB71     		.loc 1 343 0
 340:./Generated_Source/PSoC5/Volume_ADC.c ****     uint8 tmpReg;
 341:./Generated_Source/PSoC5/Volume_ADC.c **** 
 342:./Generated_Source/PSoC5/Volume_ADC.c ****     /*Set SAR ADC resolution ADC */
 343:./Generated_Source/PSoC5/Volume_ADC.c ****     switch (resolution)
 394              	r7, #7]	@ zero_extendqisi2
ARM GAS  C:\Users\blinky\AppData\Local\Temp/ccSwbaaa.s 			page 14


 395 000a FB79     		str	r3, [r7, #0]
 396 000c 3B60     		ldr	r3, [r7, #0]
 397 000e 3B68     		cmp	r3, #10
 398 0010 0A2B     		beq	.L29
 399 0012 0AD0     		ldr	r3, [r7, #0]
 400 0014 3B68     		cmp	r3, #12
 401 0016 0C2B     		beq	.L30
 402 0018 03D0     		ldr	r3, [r7, #0]
 403 001a 3B68     		cmp	r3, #8
 404 001c 082B     		beq	.L28
 405 001e 08D0     		b	.L27
 406 0020 0AE0     	.L30:
 407              		.loc 1 346 0
 344:./Generated_Source/PSoC5/Volume_ADC.c ****     {
 345:./Generated_Source/PSoC5/Volume_ADC.c ****         case Volume_ADC__BITS_12:
 346:./Generated_Source/PSoC5/Volume_ADC.c ****             tmpReg = Volume_ADC_SAR_RESOLUTION_12BIT;
 408              	strb	r3, [r7, #15]
 409 0022 6FF03F03 		.loc 1 347 0
 410 0026 FB73     		b	.L27
 347:./Generated_Source/PSoC5/Volume_ADC.c ****             break;
 411              	9:
 412 0028 06E0     		.loc 1 349 0
 413              		mvn	r3, #127
 348:./Generated_Source/PSoC5/Volume_ADC.c ****         case Volume_ADC__BITS_10:
 349:./Generated_Source/PSoC5/Volume_ADC.c ****             tmpReg = Volume_ADC_SAR_RESOLUTION_10BIT;
 414              	rb	r3, [r7, #15]
 415 002a 6FF07F03 		.loc 1 350 0
 416 002e FB73     		b	.L27
 350:./Generated_Source/PSoC5/Volume_ADC.c ****             break;
 417              	8:
 418 0030 02E0     		.loc 1 352 0
 419              		mov	r3, #64
 351:./Generated_Source/PSoC5/Volume_ADC.c ****         case Volume_ADC__BITS_8:
 352:./Generated_Source/PSoC5/Volume_ADC.c ****             tmpReg = Volume_ADC_SAR_RESOLUTION_8BIT;
 420              	rb	r3, [r7, #15]
 421 0032 4FF04003 	.L27:
 422 0036 FB73     		.loc 1 359 0
 423              		ldrb	r3, [r7, #15]
 353:./Generated_Source/PSoC5/Volume_ADC.c ****             break;
 354:./Generated_Source/PSoC5/Volume_ADC.c ****         default:
 355:./Generated_Source/PSoC5/Volume_ADC.c ****             /* if default case is hit, invalid argument was passed.*/
 356:./Generated_Source/PSoC5/Volume_ADC.c ****             break;
 357:./Generated_Source/PSoC5/Volume_ADC.c ****     }
 358:./Generated_Source/PSoC5/Volume_ADC.c ****     
 359:./Generated_Source/PSoC5/Volume_ADC.c ****      tmpReg |= Volume_ADC_SAR_SAMPLE_WIDTH;   /* 17 conversion cycles @ 12bits + 1 gap*/
 424              		r3, r3, #4
 425 0038 FB7B     		strb	r3, [r7, #15]
 426 003a 43F00403 		.loc 1 360 0
 427 003e FB73     		ldr	r2, .L32
 360:./Generated_Source/PSoC5/Volume_ADC.c ****     Volume_ADC_SAR_CSR2 = tmpReg;
 428              	b	r3, [r7, #15]
 429 0040 054A     		strb	r3, [r2, #0]
 430 0042 FB7B     		.loc 1 363 0
 431 0044 1370     		ldrb	r3, [r7, #7]	@ zero_extendqisi2
 361:./Generated_Source/PSoC5/Volume_ADC.c ****     
 362:./Generated_Source/PSoC5/Volume_ADC.c ****      /* Calculate gain for convert counts to volts */
 363:./Generated_Source/PSoC5/Volume_ADC.c ****     Volume_ADC_CalcGain(resolution);
ARM GAS  C:\Users\blinky\AppData\Local\Temp/ccSwbaaa.s 			page 15


 432              		r0, r3
 433 0046 FB79     		bl	Volume_ADC_CalcGain
 434 0048 1846     		.loc 1 365 0
 435 004a FFF7FEFF 		add	r7, r7, #16
 364:./Generated_Source/PSoC5/Volume_ADC.c **** 
 365:./Generated_Source/PSoC5/Volume_ADC.c **** }
 436              		sp, r7
 437 004e 07F11007 		pop	{r7, pc}
 438 0052 BD46     	.L33:
 439 0054 80BD     		.align	2
 440              	.L32:
 441 0056 C046     		.word	1073764610
 442              	.LFE8:
 443 0058 02590040 		.size	Volume_ADC_SetResolution, .-Volume_ADC_SetResolution
 444              		.section	.text.Volume_ADC_StartConvert,"ax",%progbits
 445              		.align	2
 446              		.global	Volume_ADC_StartConvert
 447              		.thumb
 448              		.thumb_func
 449              		.type	Volume_ADC_StartConvert, %function
 450              	Volume_ADC_StartConvert:
 451              	.LFB9:
 452              		.loc 1 391 0
 453              		@ args = 0, pretend = 0, frame = 0
 366:./Generated_Source/PSoC5/Volume_ADC.c **** 
 367:./Generated_Source/PSoC5/Volume_ADC.c **** 
 368:./Generated_Source/PSoC5/Volume_ADC.c **** /*******************************************************************************
 369:./Generated_Source/PSoC5/Volume_ADC.c **** * Function Name: Volume_ADC_StartConvert
 370:./Generated_Source/PSoC5/Volume_ADC.c **** ********************************************************************************
 371:./Generated_Source/PSoC5/Volume_ADC.c **** *
 372:./Generated_Source/PSoC5/Volume_ADC.c **** * Summary:
 373:./Generated_Source/PSoC5/Volume_ADC.c **** *  Starts ADC conversion using the given mode.
 374:./Generated_Source/PSoC5/Volume_ADC.c **** *
 375:./Generated_Source/PSoC5/Volume_ADC.c **** * Parameters:
 376:./Generated_Source/PSoC5/Volume_ADC.c **** *  void
 377:./Generated_Source/PSoC5/Volume_ADC.c **** *
 378:./Generated_Source/PSoC5/Volume_ADC.c **** * Return:
 379:./Generated_Source/PSoC5/Volume_ADC.c **** *  void
 380:./Generated_Source/PSoC5/Volume_ADC.c **** *
 381:./Generated_Source/PSoC5/Volume_ADC.c **** * Theory:
 382:./Generated_Source/PSoC5/Volume_ADC.c **** *  Forces the ADC to initiate a conversion. In Free Running mode, the ADC will 
 383:./Generated_Source/PSoC5/Volume_ADC.c **** *  run continuously. In a triggered mode the function also acts as a software
 384:./Generated_Source/PSoC5/Volume_ADC.c **** *  version of the SOC. Here every conversion has to be triggered by the routine. 
 385:./Generated_Source/PSoC5/Volume_ADC.c **** *  This writes into the SOC bit in SAR_CTRL reg.
 386:./Generated_Source/PSoC5/Volume_ADC.c **** *
 387:./Generated_Source/PSoC5/Volume_ADC.c **** * Side Effects:
 388:./Generated_Source/PSoC5/Volume_ADC.c **** *  
 389:./Generated_Source/PSoC5/Volume_ADC.c **** *******************************************************************************/
 390:./Generated_Source/PSoC5/Volume_ADC.c **** void Volume_ADC_StartConvert(void)
 391:./Generated_Source/PSoC5/Volume_ADC.c **** {
 454              	1, uses_anonymous_args = 0
 455              		@ link register save eliminated.
 456              		push	{r7}
 457              	.LCFI18:
 458 0000 80B4     		add	r7, sp, #0
 459              	.LCFI19:
 460 0002 00AF     		@ lr needed for prologue
ARM GAS  C:\Users\blinky\AppData\Local\Temp/ccSwbaaa.s 			page 16


 461              		.loc 1 398 0
 462              		ldr	r2, .L36
 392:./Generated_Source/PSoC5/Volume_ADC.c ****     if(Volume_ADC_DEFAULT_CONV_MODE)                /* If triggered mode */
 393:./Generated_Source/PSoC5/Volume_ADC.c ****     {
 394:./Generated_Source/PSoC5/Volume_ADC.c ****         Volume_ADC_SAR_CSR0 &= ~Volume_ADC_SAR_MX_SOF_UDB;   /* source: SOF bit */
 395:./Generated_Source/PSoC5/Volume_ADC.c ****     }
 396:./Generated_Source/PSoC5/Volume_ADC.c ****     
 397:./Generated_Source/PSoC5/Volume_ADC.c ****     /* Start the conversion */
 398:./Generated_Source/PSoC5/Volume_ADC.c ****     Volume_ADC_SAR_CSR0 |= Volume_ADC_SAR_SOF_START_CONV;
 463              	.L36
 464 0004 054A     		ldrb	r3, [r3, #0]
 465 0006 054B     		uxtb	r3, r3
 466 0008 1B78     		orr	r3, r3, #1
 467 000a DBB2     		uxtb	r3, r3
 468 000c 43F00103 		strb	r3, [r2, #0]
 469 0010 DBB2     		.loc 1 400 0
 470 0012 1370     		mov	sp, r7
 399:./Generated_Source/PSoC5/Volume_ADC.c **** 
 400:./Generated_Source/PSoC5/Volume_ADC.c **** }
 471              	}
 472 0014 BD46     		bx	lr
 473 0016 80BC     	.L37:
 474 0018 7047     		.align	2
 475              	.L36:
 476 001a C046     		.word	1073764608
 477              	.LFE9:
 478 001c 00590040 		.size	Volume_ADC_StartConvert, .-Volume_ADC_StartConvert
 479              		.section	.text.Volume_ADC_StopConvert,"ax",%progbits
 480              		.align	2
 481              		.global	Volume_ADC_StopConvert
 482              		.thumb
 483              		.thumb_func
 484              		.type	Volume_ADC_StopConvert, %function
 485              	Volume_ADC_StopConvert:
 486              	.LFB10:
 487              		.loc 1 426 0
 488              		@ args = 0, pretend = 0, frame = 0
 401:./Generated_Source/PSoC5/Volume_ADC.c **** 
 402:./Generated_Source/PSoC5/Volume_ADC.c **** 
 403:./Generated_Source/PSoC5/Volume_ADC.c **** /*******************************************************************************
 404:./Generated_Source/PSoC5/Volume_ADC.c **** * Function Name: Volume_ADC_StopConvert
 405:./Generated_Source/PSoC5/Volume_ADC.c **** ********************************************************************************
 406:./Generated_Source/PSoC5/Volume_ADC.c **** *
 407:./Generated_Source/PSoC5/Volume_ADC.c **** * Summary:
 408:./Generated_Source/PSoC5/Volume_ADC.c **** *  Stops ADC conversion using the given mode.
 409:./Generated_Source/PSoC5/Volume_ADC.c **** *
 410:./Generated_Source/PSoC5/Volume_ADC.c **** * Parameters:
 411:./Generated_Source/PSoC5/Volume_ADC.c **** *  void
 412:./Generated_Source/PSoC5/Volume_ADC.c **** *
 413:./Generated_Source/PSoC5/Volume_ADC.c **** * Return:
 414:./Generated_Source/PSoC5/Volume_ADC.c **** *  void
 415:./Generated_Source/PSoC5/Volume_ADC.c **** *
 416:./Generated_Source/PSoC5/Volume_ADC.c **** * Theory:
 417:./Generated_Source/PSoC5/Volume_ADC.c **** *  Stops ADC conversion in Free Running mode. 
 418:./Generated_Source/PSoC5/Volume_ADC.c **** *  In a triggered mode the function set a software version of the SOC to low level
 419:./Generated_Source/PSoC5/Volume_ADC.c **** *  and return SOF source to hardware SOF signal.
 420:./Generated_Source/PSoC5/Volume_ADC.c **** *  This writes into the SOC bit in SAR_CTRL reg.
ARM GAS  C:\Users\blinky\AppData\Local\Temp/ccSwbaaa.s 			page 17


 421:./Generated_Source/PSoC5/Volume_ADC.c **** *
 422:./Generated_Source/PSoC5/Volume_ADC.c **** * Side Effects:
 423:./Generated_Source/PSoC5/Volume_ADC.c **** *  
 424:./Generated_Source/PSoC5/Volume_ADC.c **** *******************************************************************************/
 425:./Generated_Source/PSoC5/Volume_ADC.c **** void Volume_ADC_StopConvert(void)
 426:./Generated_Source/PSoC5/Volume_ADC.c **** {
 489              	1, uses_anonymous_args = 0
 490              		@ link register save eliminated.
 491              		push	{r7}
 492              	.LCFI20:
 493 0000 80B4     		add	r7, sp, #0
 494              	.LCFI21:
 495 0002 00AF     		@ lr needed for prologue
 496              		.loc 1 428 0
 497              		ldr	r2, .L40
 427:./Generated_Source/PSoC5/Volume_ADC.c ****     /* Stop all conversions */
 428:./Generated_Source/PSoC5/Volume_ADC.c ****     Volume_ADC_SAR_CSR0 &= ~Volume_ADC_SAR_SOF_START_CONV;
 498              	.L40
 499 0004 044A     		ldrb	r3, [r3, #0]
 500 0006 044B     		uxtb	r3, r3
 501 0008 1B78     		and	r3, r3, #254
 502 000a DBB2     		strb	r3, [r2, #0]
 503 000c 03F0FE03 		.loc 1 436 0
 504 0010 1370     		mov	sp, r7
 429:./Generated_Source/PSoC5/Volume_ADC.c **** 
 430:./Generated_Source/PSoC5/Volume_ADC.c ****     if(Volume_ADC_DEFAULT_CONV_MODE)                /* If triggered mode */
 431:./Generated_Source/PSoC5/Volume_ADC.c ****     {
 432:./Generated_Source/PSoC5/Volume_ADC.c ****         /* Return source to UDB for hardware SOF signal */
 433:./Generated_Source/PSoC5/Volume_ADC.c ****         Volume_ADC_SAR_CSR0 |= Volume_ADC_SAR_MX_SOF_UDB;    /* source: UDB */
 434:./Generated_Source/PSoC5/Volume_ADC.c ****     }
 435:./Generated_Source/PSoC5/Volume_ADC.c ****     
 436:./Generated_Source/PSoC5/Volume_ADC.c **** }
 505              	7}
 506 0012 BD46     		bx	lr
 507 0014 80BC     	.L41:
 508 0016 7047     		.align	2
 509              	.L40:
 510              		.word	1073764608
 511              	.LFE10:
 512 0018 00590040 		.size	Volume_ADC_StopConvert, .-Volume_ADC_StopConvert
 513              		.section	.text.Volume_ADC_IsEndConversion,"ax",%progbits
 514              		.align	2
 515              		.global	Volume_ADC_IsEndConversion
 516              		.thumb
 517              		.thumb_func
 518              		.type	Volume_ADC_IsEndConversion, %function
 519              	Volume_ADC_IsEndConversion:
 520              	.LFB11:
 521              		.loc 1 457 0
 522              		@ args = 0, pretend = 0, frame = 16
 437:./Generated_Source/PSoC5/Volume_ADC.c **** 
 438:./Generated_Source/PSoC5/Volume_ADC.c **** 
 439:./Generated_Source/PSoC5/Volume_ADC.c **** /*******************************************************************************
 440:./Generated_Source/PSoC5/Volume_ADC.c **** * Function Name: Volume_ADC_IsEndConversion
 441:./Generated_Source/PSoC5/Volume_ADC.c **** ********************************************************************************
 442:./Generated_Source/PSoC5/Volume_ADC.c **** *
 443:./Generated_Source/PSoC5/Volume_ADC.c **** * Summary:
ARM GAS  C:\Users\blinky\AppData\Local\Temp/ccSwbaaa.s 			page 18


 444:./Generated_Source/PSoC5/Volume_ADC.c **** *  Queries the ADC to see if conversion is complete
 445:./Generated_Source/PSoC5/Volume_ADC.c **** *
 446:./Generated_Source/PSoC5/Volume_ADC.c **** * Parameters:
 447:./Generated_Source/PSoC5/Volume_ADC.c **** *  retMode:  Wait mode,
 448:./Generated_Source/PSoC5/Volume_ADC.c **** *   0 if return with answer imediately.
 449:./Generated_Source/PSoC5/Volume_ADC.c **** *   1 if wait until conversion is complete, then return.
 450:./Generated_Source/PSoC5/Volume_ADC.c **** *
 451:./Generated_Source/PSoC5/Volume_ADC.c **** * Return:
 452:./Generated_Source/PSoC5/Volume_ADC.c **** *  (uint8)  0 =>  Conversion not complete.
 453:./Generated_Source/PSoC5/Volume_ADC.c **** *           1 =>  Conversion complete.
 454:./Generated_Source/PSoC5/Volume_ADC.c **** *
 455:./Generated_Source/PSoC5/Volume_ADC.c **** *******************************************************************************/
 456:./Generated_Source/PSoC5/Volume_ADC.c **** uint8 Volume_ADC_IsEndConversion(uint8 retMode)
 457:./Generated_Source/PSoC5/Volume_ADC.c **** {
 523              	1, uses_anonymous_args = 0
 524              		@ link register save eliminated.
 525              		push	{r7}
 526              	.LCFI22:
 527 0000 80B4     		sub	sp, sp, #20
 528              	.LCFI23:
 529 0002 85B0     		add	r7, sp, #0
 530              	.LCFI24:
 531 0004 00AF     		@ lr needed for prologue
 532              		mov	r3, r0
 533              		strb	r3, [r7, #7]
 534 0006 0346     	.L43:
 535 0008 FB71     		.loc 1 462 0
 536              		ldr	r3, .L47
 458:./Generated_Source/PSoC5/Volume_ADC.c ****     uint8 status;
 459:./Generated_Source/PSoC5/Volume_ADC.c **** 
 460:./Generated_Source/PSoC5/Volume_ADC.c ****     do
 461:./Generated_Source/PSoC5/Volume_ADC.c ****     {
 462:./Generated_Source/PSoC5/Volume_ADC.c ****         status = Volume_ADC_SAR_CSR1 & Volume_ADC_SAR_EOF_1;
 537              	 #0]
 538 000a 094B     		uxtb	r3, r3
 539 000c 1B78     		and	r3, r3, #1
 540 000e DBB2     		strb	r3, [r7, #15]
 541 0010 03F00103 		.loc 1 463 0
 542 0014 FB73     		ldrb	r3, [r7, #15]	@ zero_extendqisi2
 463:./Generated_Source/PSoC5/Volume_ADC.c ****     } while ((status != Volume_ADC_SAR_EOF_1) && (retMode == Volume_ADC_WAIT_FOR_RESULT));
 543              	3, #1
 544 0016 FB7B     		beq	.L44
 545 0018 012B     		ldrb	r3, [r7, #7]	@ zero_extendqisi2
 546 001a 02D0     		cmp	r3, #0
 547 001c FB79     		beq	.L43
 548 001e 002B     	.L44:
 549 0020 F3D0     		.loc 1 465 0
 550              		ldrb	r3, [r7, #15]	@ zero_extendqisi2
 464:./Generated_Source/PSoC5/Volume_ADC.c **** 
 465:./Generated_Source/PSoC5/Volume_ADC.c ****     return(status);
 551              	466 0
 552 0022 FB7B     		mov	r0, r3
 466:./Generated_Source/PSoC5/Volume_ADC.c **** }
 553              	dd	r7, r7, #20
 554 0024 1846     		mov	sp, r7
 555 0026 07F11407 		pop	{r7}
 556 002a BD46     		bx	lr
ARM GAS  C:\Users\blinky\AppData\Local\Temp/ccSwbaaa.s 			page 19


 557 002c 80BC     	.L48:
 558 002e 7047     		.align	2
 559              	.L47:
 560              		.word	1073764609
 561              	.LFE11:
 562 0030 01590040 		.size	Volume_ADC_IsEndConversion, .-Volume_ADC_IsEndConversion
 563              		.section	.text.Volume_ADC_GetResult8,"ax",%progbits
 564              		.align	2
 565              		.global	Volume_ADC_GetResult8
 566              		.thumb
 567              		.thumb_func
 568              		.type	Volume_ADC_GetResult8, %function
 569              	Volume_ADC_GetResult8:
 570              	.LFB12:
 571              		.loc 1 484 0
 572              		@ args = 0, pretend = 0, frame = 0
 467:./Generated_Source/PSoC5/Volume_ADC.c **** 
 468:./Generated_Source/PSoC5/Volume_ADC.c **** 
 469:./Generated_Source/PSoC5/Volume_ADC.c **** /*******************************************************************************
 470:./Generated_Source/PSoC5/Volume_ADC.c **** * Function Name: Volume_ADC_GetResult8
 471:./Generated_Source/PSoC5/Volume_ADC.c **** ********************************************************************************
 472:./Generated_Source/PSoC5/Volume_ADC.c **** *
 473:./Generated_Source/PSoC5/Volume_ADC.c **** * Summary:
 474:./Generated_Source/PSoC5/Volume_ADC.c **** *  Returns an 8-bit result or the LSB of the last conversion.
 475:./Generated_Source/PSoC5/Volume_ADC.c **** *
 476:./Generated_Source/PSoC5/Volume_ADC.c **** * Parameters:
 477:./Generated_Source/PSoC5/Volume_ADC.c **** *  void
 478:./Generated_Source/PSoC5/Volume_ADC.c **** *
 479:./Generated_Source/PSoC5/Volume_ADC.c **** * Return:
 480:./Generated_Source/PSoC5/Volume_ADC.c **** *  ADC result.
 481:./Generated_Source/PSoC5/Volume_ADC.c **** *
 482:./Generated_Source/PSoC5/Volume_ADC.c **** *******************************************************************************/
 483:./Generated_Source/PSoC5/Volume_ADC.c **** int8 Volume_ADC_GetResult8( void )
 484:./Generated_Source/PSoC5/Volume_ADC.c **** {
 573              	 uses_anonymous_args = 0
 574              		@ link register save eliminated.
 575              		push	{r7}
 576              	.LCFI25:
 577 0000 80B4     		add	r7, sp, #0
 578              	.LCFI26:
 579 0002 00AF     		@ lr needed for prologue
 580              		.loc 1 485 0
 581              		ldr	r3, .L51
 485:./Generated_Source/PSoC5/Volume_ADC.c ****     return( Volume_ADC_SAR_WRK0 );
 582              	 [r3, #0]
 583 0004 034B     		uxtb	r3, r3
 584 0006 1B78     		sxtb	r3, r3
 585 0008 DBB2     		.loc 1 486 0
 586 000a 5BB2     		mov	r0, r3
 486:./Generated_Source/PSoC5/Volume_ADC.c **** }
 587              	sp, r7
 588 000c 1846     		pop	{r7}
 589 000e BD46     		bx	lr
 590 0010 80BC     	.L52:
 591 0012 7047     		.align	2
 592              	.L51:
 593              		.word	1073765280
ARM GAS  C:\Users\blinky\AppData\Local\Temp/ccSwbaaa.s 			page 20


 594              	.LFE12:
 595 0014 A05B0040 		.size	Volume_ADC_GetResult8, .-Volume_ADC_GetResult8
 596              		.section	.text.Volume_ADC_GetResult16,"ax",%progbits
 597              		.align	2
 598              		.global	Volume_ADC_GetResult16
 599              		.thumb
 600              		.thumb_func
 601              		.type	Volume_ADC_GetResult16, %function
 602              	Volume_ADC_GetResult16:
 603              	.LFB13:
 604              		.loc 1 504 0
 605              		@ args = 0, pretend = 0, frame = 0
 487:./Generated_Source/PSoC5/Volume_ADC.c **** 
 488:./Generated_Source/PSoC5/Volume_ADC.c **** 
 489:./Generated_Source/PSoC5/Volume_ADC.c **** /*******************************************************************************
 490:./Generated_Source/PSoC5/Volume_ADC.c **** * Function Name: Volume_ADC_GetResult16
 491:./Generated_Source/PSoC5/Volume_ADC.c **** ********************************************************************************
 492:./Generated_Source/PSoC5/Volume_ADC.c **** *
 493:./Generated_Source/PSoC5/Volume_ADC.c **** * Summary:
 494:./Generated_Source/PSoC5/Volume_ADC.c **** *  Gets the data available in the SAR DATA registers.
 495:./Generated_Source/PSoC5/Volume_ADC.c **** *
 496:./Generated_Source/PSoC5/Volume_ADC.c **** * Parameters:
 497:./Generated_Source/PSoC5/Volume_ADC.c **** *  void
 498:./Generated_Source/PSoC5/Volume_ADC.c **** *
 499:./Generated_Source/PSoC5/Volume_ADC.c **** * Return:
 500:./Generated_Source/PSoC5/Volume_ADC.c **** *  ADC result. WORD value which has the converted 12bits.
 501:./Generated_Source/PSoC5/Volume_ADC.c **** *
 502:./Generated_Source/PSoC5/Volume_ADC.c **** *******************************************************************************/
 503:./Generated_Source/PSoC5/Volume_ADC.c **** int16 Volume_ADC_GetResult16( void )
 504:./Generated_Source/PSoC5/Volume_ADC.c **** {
 606              	, uses_anonymous_args = 0
 607              		@ link register save eliminated.
 608              		push	{r7}
 609              	.LCFI27:
 610 0000 80B4     		add	r7, sp, #0
 611              	.LCFI28:
 612 0002 00AF     		@ lr needed for prologue
 613              		.loc 1 505 0
 614              		ldr	r3, .L55
 505:./Generated_Source/PSoC5/Volume_ADC.c ****     return( (Volume_ADC_SAR_WRK1 << 8 ) | Volume_ADC_SAR_WRK0 );
 615              	 [r3, #0]
 616 0004 084B     		uxtb	r3, r3
 617 0006 1B78     		lsl	r3, r3, #8
 618 0008 DBB2     		uxth	r2, r3
 619 000a 4FEA0323 		ldr	r3, .L55+4
 620 000e 9AB2     		ldrb	r3, [r3, #0]
 621 0010 064B     		uxtb	r3, r3
 622 0012 1B78     		orr	r3, r2, r3
 623 0014 DBB2     		uxth	r3, r3
 624 0016 42EA0303 		sxth	r3, r3
 625 001a 9BB2     		.loc 1 506 0
 626 001c 1BB2     		mov	r0, r3
 506:./Generated_Source/PSoC5/Volume_ADC.c **** }
 627              		pop	{r7}
 628 001e 1846     		bx	lr
 629 0020 BD46     	.L56:
 630 0022 80BC     		.align	2
ARM GAS  C:\Users\blinky\AppData\Local\Temp/ccSwbaaa.s 			page 21


 631 0024 7047     	.L55:
 632              		.word	1073765281
 633 0026 C046     		.word	1073765280
 634              	.LFE13:
 635 0028 A15B0040 		.size	Volume_ADC_GetResult16, .-Volume_ADC_GetResult16
 636 002c A05B0040 		.section	.text.Volume_ADC_SetOffset,"ax",%progbits
 637              		.align	2
 638              		.global	Volume_ADC_SetOffset
 639              		.thumb
 640              		.thumb_func
 641              		.type	Volume_ADC_SetOffset, %function
 642              	Volume_ADC_SetOffset:
 643              	.LFB14:
 644              		.loc 1 524 0
 645              		@ args = 0, pretend = 0, frame = 8
 646              		@ frame_needed = 1, uses_anonymous_args = 0
 507:./Generated_Source/PSoC5/Volume_ADC.c **** 
 508:./Generated_Source/PSoC5/Volume_ADC.c **** 
 509:./Generated_Source/PSoC5/Volume_ADC.c **** /*******************************************************************************
 510:./Generated_Source/PSoC5/Volume_ADC.c **** * Function Name: Volume_ADC_SetOffset
 511:./Generated_Source/PSoC5/Volume_ADC.c **** ********************************************************************************
 512:./Generated_Source/PSoC5/Volume_ADC.c **** *
 513:./Generated_Source/PSoC5/Volume_ADC.c **** * Summary:
 514:./Generated_Source/PSoC5/Volume_ADC.c **** *  This function sets the offset for voltage readings.
 515:./Generated_Source/PSoC5/Volume_ADC.c **** *
 516:./Generated_Source/PSoC5/Volume_ADC.c **** * Parameters:
 517:./Generated_Source/PSoC5/Volume_ADC.c **** *  int16  offset  Offset in counts
 518:./Generated_Source/PSoC5/Volume_ADC.c **** *
 519:./Generated_Source/PSoC5/Volume_ADC.c **** * Return:
 520:./Generated_Source/PSoC5/Volume_ADC.c **** *  void
 521:./Generated_Source/PSoC5/Volume_ADC.c **** *
 522:./Generated_Source/PSoC5/Volume_ADC.c **** *******************************************************************************/
 523:./Generated_Source/PSoC5/Volume_ADC.c **** void Volume_ADC_SetOffset(int16 offset)
 524:./Generated_Source/PSoC5/Volume_ADC.c **** {
 647              	e eliminated.
 648              		push	{r7}
 649              	.LCFI29:
 650              		sub	sp, sp, #12
 651 0000 80B4     	.LCFI30:
 652              		add	r7, sp, #0
 653 0002 83B0     	.LCFI31:
 654              		@ lr needed for prologue
 655 0004 00AF     		mov	r3, r0
 656              		strh	r3, [r7, #6]	@ movhi
 657              		.loc 1 526 0
 658 0006 0346     		ldr	r2, .L59
 659 0008 FB80     		ldrh	r3, [r7, #6]	@ movhi
 525:./Generated_Source/PSoC5/Volume_ADC.c **** 
 526:./Generated_Source/PSoC5/Volume_ADC.c ****     Volume_ADC_Offset = offset;
 660              	, #0]	@ movhi
 661 000a 044A     		.loc 1 527 0
 662 000c FB88     		add	r7, r7, #12
 663 000e 1380     		mov	sp, r7
 527:./Generated_Source/PSoC5/Volume_ADC.c **** }
 664              		{r7}
 665 0010 07F10C07 		bx	lr
 666 0014 BD46     	.L60:
ARM GAS  C:\Users\blinky\AppData\Local\Temp/ccSwbaaa.s 			page 22


 667 0016 80BC     		.align	2
 668 0018 7047     	.L59:
 669              		.word	Volume_ADC_Offset
 670 001a C046     	.LFE14:
 671              		.size	Volume_ADC_SetOffset, .-Volume_ADC_SetOffset
 672 001c 00000000 		.section	.text.Volume_ADC_CalcGain,"ax",%progbits
 673              		.align	2
 674              		.global	Volume_ADC_CalcGain
 675              		.thumb
 676              		.thumb_func
 677              		.type	Volume_ADC_CalcGain, %function
 678              	Volume_ADC_CalcGain:
 679              	.LFB15:
 680              		.loc 1 545 0
 681              		@ args = 0, pretend = 0, frame = 16
 682              		@ frame_needed = 1, uses_anonymous_args = 0
 528:./Generated_Source/PSoC5/Volume_ADC.c **** 
 529:./Generated_Source/PSoC5/Volume_ADC.c **** 
 530:./Generated_Source/PSoC5/Volume_ADC.c **** /*******************************************************************************
 531:./Generated_Source/PSoC5/Volume_ADC.c **** * Function Name: Volume_ADC_CalcGain
 532:./Generated_Source/PSoC5/Volume_ADC.c **** ********************************************************************************
 533:./Generated_Source/PSoC5/Volume_ADC.c **** *
 534:./Generated_Source/PSoC5/Volume_ADC.c **** * Summary:
 535:./Generated_Source/PSoC5/Volume_ADC.c **** *  This function calculates the ADC gain in counts per volt.
 536:./Generated_Source/PSoC5/Volume_ADC.c **** *
 537:./Generated_Source/PSoC5/Volume_ADC.c **** * Parameters:
 538:./Generated_Source/PSoC5/Volume_ADC.c **** *  uint8: resolution
 539:./Generated_Source/PSoC5/Volume_ADC.c **** *
 540:./Generated_Source/PSoC5/Volume_ADC.c **** * Return:
 541:./Generated_Source/PSoC5/Volume_ADC.c **** *  void
 542:./Generated_Source/PSoC5/Volume_ADC.c **** *
 543:./Generated_Source/PSoC5/Volume_ADC.c **** *******************************************************************************/
 544:./Generated_Source/PSoC5/Volume_ADC.c **** void Volume_ADC_CalcGain( uint8 resolution )
 545:./Generated_Source/PSoC5/Volume_ADC.c **** {
 683              	ve eliminated.
 684              		push	{r7}
 685              	.LCFI32:
 686              		sub	sp, sp, #20
 687 0000 80B4     	.LCFI33:
 688              		add	r7, sp, #0
 689 0002 85B0     	.LCFI34:
 690              		@ lr needed for prologue
 691 0004 00AF     		mov	r3, r0
 692              		strb	r3, [r7, #7]
 693              		.loc 1 546 0
 694 0006 0346     		movw	r3, #4095
 695 0008 FB71     		str	r3, [r7, #8]
 546:./Generated_Source/PSoC5/Volume_ADC.c ****     uint32 counts = 0xFFF; /*default 12 bits*/
 696              	
 697 000a 40F6FF73 		mov	r3, #2048
 698 000e BB60     		strh	r3, [r7, #14]	@ movhi
 547:./Generated_Source/PSoC5/Volume_ADC.c ****     uint16 diff_zero = 0x800;
 699              	loc 1 549 0
 700 0010 4FF40063 		ldrb	r3, [r7, #7]	@ zero_extendqisi2
 701 0014 FB81     		cmp	r3, #10
 548:./Generated_Source/PSoC5/Volume_ADC.c ****     
 549:./Generated_Source/PSoC5/Volume_ADC.c ****     if(resolution == Volume_ADC__BITS_10)
ARM GAS  C:\Users\blinky\AppData\Local\Temp/ccSwbaaa.s 			page 23


 702              	e	.L62
 703 0016 FB79     		.loc 1 551 0
 704 0018 0A2B     		ldr	r3, [r7, #8]
 705 001a 07D1     		lsr	r3, r3, #2
 550:./Generated_Source/PSoC5/Volume_ADC.c ****     {
 551:./Generated_Source/PSoC5/Volume_ADC.c ****         counts >>= 2;
 706              		r3, [r7, #8]
 707 001c BB68     		.loc 1 552 0
 708 001e 4FEA9303 		ldrh	r3, [r7, #14]
 709 0022 BB60     		lsr	r3, r3, #2
 552:./Generated_Source/PSoC5/Volume_ADC.c ****         diff_zero >>= 2;
 710              	h	r3, [r7, #14]	@ movhi
 711 0024 FB89     	.L62:
 712 0026 4FEA9303 		.loc 1 554 0
 713 002a FB81     		ldrb	r3, [r7, #7]	@ zero_extendqisi2
 714              		cmp	r3, #8
 553:./Generated_Source/PSoC5/Volume_ADC.c ****     }
 554:./Generated_Source/PSoC5/Volume_ADC.c ****     if(resolution == Volume_ADC__BITS_8)
 715              	.L64
 716 002c FB79     		.loc 1 556 0
 717 002e 082B     		ldr	r3, [r7, #8]
 718 0030 07D1     		lsr	r3, r3, #4
 555:./Generated_Source/PSoC5/Volume_ADC.c ****     {
 556:./Generated_Source/PSoC5/Volume_ADC.c ****         counts >>= 4;
 719              		r3, [r7, #8]
 720 0032 BB68     		.loc 1 557 0
 721 0034 4FEA1313 		ldrh	r3, [r7, #14]
 722 0038 BB60     		lsr	r3, r3, #4
 557:./Generated_Source/PSoC5/Volume_ADC.c ****         diff_zero >>= 4;
 723              	h	r3, [r7, #14]	@ movhi
 724 003a FB89     	.L64:
 725 003c 4FEA1313 		.loc 1 559 0
 726 0040 FB81     		ldr	r1, [r7, #8]
 727              		mov	r3, r1
 558:./Generated_Source/PSoC5/Volume_ADC.c ****     }
 559:./Generated_Source/PSoC5/Volume_ADC.c ****     counts *= 1000; /* To avoid float point arithmetic*/
 728              	r2, r3, #2
 729 0042 B968     		lsl	r3, r2, #5
 730 0044 0B46     		rsb	r3, r2, r3
 731 0046 4FEA8302 		add	r3, r3, r1
 732 004a 4FEA4213 		lsl	r3, r3, #3
 733 004e C2EB0303 		str	r3, [r7, #8]
 734 0052 0B44     		.loc 1 569 0
 735 0054 4FEAC303 		ldr	r3, [r7, #8]
 736 0058 BB60     		lsr	r2, r3, #2
 560:./Generated_Source/PSoC5/Volume_ADC.c **** 
 561:./Generated_Source/PSoC5/Volume_ADC.c ****         switch (Volume_ADC_DEFAULT_RANGE)
 562:./Generated_Source/PSoC5/Volume_ADC.c ****         {   /*TODO: use float point when it will be available*/
 563:./Generated_Source/PSoC5/Volume_ADC.c ****             case Volume_ADC__VSS_TO_VREF:
 564:./Generated_Source/PSoC5/Volume_ADC.c ****                 Volume_ADC_CountsPerVolt = counts / Volume_ADC_DEFAULT_REF_VOLTAGE_MV / 2;
 565:./Generated_Source/PSoC5/Volume_ADC.c ****                 Volume_ADC_Offset = 0;
 566:./Generated_Source/PSoC5/Volume_ADC.c ****                 break;
 567:./Generated_Source/PSoC5/Volume_ADC.c **** 
 568:./Generated_Source/PSoC5/Volume_ADC.c ****             case Volume_ADC__VSSA_TO_VDDA:
 569:./Generated_Source/PSoC5/Volume_ADC.c ****                 Volume_ADC_CountsPerVolt = counts / Volume_ADC_DEFAULT_REF_VOLTAGE_MV;
 737              	.L67
 738 005a BB68     		umull	r1, r3, r3, r2
ARM GAS  C:\Users\blinky\AppData\Local\Temp/ccSwbaaa.s 			page 24


 739 005c 4FEA9302 		lsr	r3, r3, #6
 740 0060 084B     		uxth	r3, r3
 741 0062 A3FB0213 		ldr	r2, .L67+4
 742 0066 4FEA9313 		strh	r3, [r2, #0]	@ movhi
 743 006a 9BB2     		.loc 1 570 0
 744 006c 064A     		ldr	r2, .L67+8
 745 006e 1380     		mov	r3, #0
 570:./Generated_Source/PSoC5/Volume_ADC.c ****                 Volume_ADC_Offset = 0;
 746              	 [r2, #0]	@ movhi
 747 0070 064A     		.loc 1 602 0
 748 0072 4FF00003 		add	r7, r7, #20
 749 0076 1380     		mov	sp, r7
 571:./Generated_Source/PSoC5/Volume_ADC.c ****                 break;
 572:./Generated_Source/PSoC5/Volume_ADC.c **** 
 573:./Generated_Source/PSoC5/Volume_ADC.c ****             case Volume_ADC__VSSA_TO_VDAC:
 574:./Generated_Source/PSoC5/Volume_ADC.c ****                 Volume_ADC_CountsPerVolt = counts / Volume_ADC_DEFAULT_REF_VOLTAGE_MV / 2;
 575:./Generated_Source/PSoC5/Volume_ADC.c ****                 Volume_ADC_Offset = 0;
 576:./Generated_Source/PSoC5/Volume_ADC.c ****                 break;
 577:./Generated_Source/PSoC5/Volume_ADC.c **** 
 578:./Generated_Source/PSoC5/Volume_ADC.c ****             case Volume_ADC__VNEG_VREF_DIFF:
 579:./Generated_Source/PSoC5/Volume_ADC.c ****                 Volume_ADC_CountsPerVolt = counts / Volume_ADC_DEFAULT_REF_VOLTAGE_MV / 2;
 580:./Generated_Source/PSoC5/Volume_ADC.c ****                 Volume_ADC_Offset = diff_zero;
 581:./Generated_Source/PSoC5/Volume_ADC.c ****                 break;
 582:./Generated_Source/PSoC5/Volume_ADC.c ****                 
 583:./Generated_Source/PSoC5/Volume_ADC.c ****             case Volume_ADC__VNEG_VDDA_DIFF:
 584:./Generated_Source/PSoC5/Volume_ADC.c ****                 Volume_ADC_CountsPerVolt = counts / Volume_ADC_DEFAULT_REF_VOLTAGE_MV / 2;
 585:./Generated_Source/PSoC5/Volume_ADC.c ****                 Volume_ADC_Offset = diff_zero;
 586:./Generated_Source/PSoC5/Volume_ADC.c ****                 break;
 587:./Generated_Source/PSoC5/Volume_ADC.c **** 
 588:./Generated_Source/PSoC5/Volume_ADC.c ****             case Volume_ADC__VNEG_VDDA_2_DIFF:
 589:./Generated_Source/PSoC5/Volume_ADC.c ****                 Volume_ADC_CountsPerVolt = counts / Volume_ADC_DEFAULT_REF_VOLTAGE_MV;
 590:./Generated_Source/PSoC5/Volume_ADC.c ****                 Volume_ADC_Offset = diff_zero;
 591:./Generated_Source/PSoC5/Volume_ADC.c ****                 break;
 592:./Generated_Source/PSoC5/Volume_ADC.c **** 
 593:./Generated_Source/PSoC5/Volume_ADC.c ****             case Volume_ADC__VNEG_VDAC_DIFF:
 594:./Generated_Source/PSoC5/Volume_ADC.c ****                 Volume_ADC_CountsPerVolt = counts / Volume_ADC_DEFAULT_REF_VOLTAGE_MV / 2;
 595:./Generated_Source/PSoC5/Volume_ADC.c ****                 Volume_ADC_Offset = diff_zero;
 596:./Generated_Source/PSoC5/Volume_ADC.c ****                 break;
 597:./Generated_Source/PSoC5/Volume_ADC.c **** 
 598:./Generated_Source/PSoC5/Volume_ADC.c ****             default:
 599:./Generated_Source/PSoC5/Volume_ADC.c ****                 /* if default case is hit, invalid argument was passed.*/
 600:./Generated_Source/PSoC5/Volume_ADC.c ****                 break;
 601:./Generated_Source/PSoC5/Volume_ADC.c ****          }
 602:./Generated_Source/PSoC5/Volume_ADC.c **** }
 750              		{r7}
 751 0078 07F11407 		bx	lr
 752 007c BD46     	.L68:
 753 007e 80BC     		.align	2
 754 0080 7047     	.L67:
 755              		.word	297165305
 756 0082 C046     		.word	Volume_ADC_CountsPerVolt
 757              		.word	Volume_ADC_Offset
 758 0084 F961B611 	.LFE15:
 759 0088 00000000 		.size	Volume_ADC_CalcGain, .-Volume_ADC_CalcGain
 760 008c 00000000 		.section	.text.Volume_ADC_SetGain,"ax",%progbits
 761              		.align	2
 762              		.global	Volume_ADC_SetGain
ARM GAS  C:\Users\blinky\AppData\Local\Temp/ccSwbaaa.s 			page 25


 763              		.thumb
 764              		.thumb_func
 765              		.type	Volume_ADC_SetGain, %function
 766              	Volume_ADC_SetGain:
 767              	.LFB16:
 768              		.loc 1 620 0
 769              		@ args = 0, pretend = 0, frame = 8
 770              		@ frame_needed = 1, uses_anonymous_args = 0
 603:./Generated_Source/PSoC5/Volume_ADC.c **** 
 604:./Generated_Source/PSoC5/Volume_ADC.c **** 
 605:./Generated_Source/PSoC5/Volume_ADC.c **** /*******************************************************************************
 606:./Generated_Source/PSoC5/Volume_ADC.c **** * Function Name: Volume_ADC_SetGain
 607:./Generated_Source/PSoC5/Volume_ADC.c **** ********************************************************************************
 608:./Generated_Source/PSoC5/Volume_ADC.c **** *
 609:./Generated_Source/PSoC5/Volume_ADC.c **** * Summary:
 610:./Generated_Source/PSoC5/Volume_ADC.c **** *  This function sets the ADC gain in counts per volt.
 611:./Generated_Source/PSoC5/Volume_ADC.c **** *
 612:./Generated_Source/PSoC5/Volume_ADC.c **** * Parameters:
 613:./Generated_Source/PSoC5/Volume_ADC.c **** *  int16  adcGain  counts per volt
 614:./Generated_Source/PSoC5/Volume_ADC.c **** *
 615:./Generated_Source/PSoC5/Volume_ADC.c **** * Return:
 616:./Generated_Source/PSoC5/Volume_ADC.c **** *  void
 617:./Generated_Source/PSoC5/Volume_ADC.c **** *
 618:./Generated_Source/PSoC5/Volume_ADC.c **** *******************************************************************************/
 619:./Generated_Source/PSoC5/Volume_ADC.c **** void Volume_ADC_SetGain(int16 adcGain)
 620:./Generated_Source/PSoC5/Volume_ADC.c **** {
 771              	 eliminated.
 772              		push	{r7}
 773              	.LCFI35:
 774              		sub	sp, sp, #12
 775 0000 80B4     	.LCFI36:
 776              		add	r7, sp, #0
 777 0002 83B0     	.LCFI37:
 778              		@ lr needed for prologue
 779 0004 00AF     		mov	r3, r0
 780              		strh	r3, [r7, #6]	@ movhi
 781              		.loc 1 622 0
 782 0006 0346     		ldr	r2, .L71
 783 0008 FB80     		ldrh	r3, [r7, #6]	@ movhi
 621:./Generated_Source/PSoC5/Volume_ADC.c **** 
 622:./Generated_Source/PSoC5/Volume_ADC.c ****     Volume_ADC_CountsPerVolt = adcGain;
 784              	, #0]	@ movhi
 785 000a 044A     		.loc 1 623 0
 786 000c FB88     		add	r7, r7, #12
 787 000e 1380     		mov	sp, r7
 623:./Generated_Source/PSoC5/Volume_ADC.c **** }
 788              		{r7}
 789 0010 07F10C07 		bx	lr
 790 0014 BD46     	.L72:
 791 0016 80BC     		.align	2
 792 0018 7047     	.L71:
 793              		.word	Volume_ADC_CountsPerVolt
 794 001a C046     	.LFE16:
 795              		.size	Volume_ADC_SetGain, .-Volume_ADC_SetGain
 796 001c 00000000 		.section	.text.Volume_ADC_CountsTo_mVolts,"ax",%progbits
 797              		.align	2
 798              		.global	Volume_ADC_CountsTo_mVolts
ARM GAS  C:\Users\blinky\AppData\Local\Temp/ccSwbaaa.s 			page 26


 799              		.thumb
 800              		.thumb_func
 801              		.type	Volume_ADC_CountsTo_mVolts, %function
 802              	Volume_ADC_CountsTo_mVolts:
 803              	.LFB17:
 804              		.loc 1 641 0
 805              		@ args = 0, pretend = 0, frame = 16
 806              		@ frame_needed = 1, uses_anonymous_args = 0
 624:./Generated_Source/PSoC5/Volume_ADC.c **** 
 625:./Generated_Source/PSoC5/Volume_ADC.c **** 
 626:./Generated_Source/PSoC5/Volume_ADC.c **** /*******************************************************************************
 627:./Generated_Source/PSoC5/Volume_ADC.c **** * Function Name: Volume_ADC_CountsTo_mVolts
 628:./Generated_Source/PSoC5/Volume_ADC.c **** ********************************************************************************
 629:./Generated_Source/PSoC5/Volume_ADC.c **** *
 630:./Generated_Source/PSoC5/Volume_ADC.c **** * Summary:
 631:./Generated_Source/PSoC5/Volume_ADC.c **** *  This function converts ADC counts to mVolts
 632:./Generated_Source/PSoC5/Volume_ADC.c **** *
 633:./Generated_Source/PSoC5/Volume_ADC.c **** * Parameters:
 634:./Generated_Source/PSoC5/Volume_ADC.c **** *  int16  adcCounts   Reading from ADC.
 635:./Generated_Source/PSoC5/Volume_ADC.c **** *
 636:./Generated_Source/PSoC5/Volume_ADC.c **** * Return:
 637:./Generated_Source/PSoC5/Volume_ADC.c **** *  int16  Result in mVolts
 638:./Generated_Source/PSoC5/Volume_ADC.c **** *
 639:./Generated_Source/PSoC5/Volume_ADC.c **** *******************************************************************************/
 640:./Generated_Source/PSoC5/Volume_ADC.c **** int16 Volume_ADC_CountsTo_mVolts( int16 adcCounts)
 641:./Generated_Source/PSoC5/Volume_ADC.c **** {
 807              	ve eliminated.
 808              		push	{r7}
 809              	.LCFI38:
 810              		sub	sp, sp, #20
 811 0000 80B4     	.LCFI39:
 812              		add	r7, sp, #0
 813 0002 85B0     	.LCFI40:
 814              		@ lr needed for prologue
 815 0004 00AF     		mov	r3, r0
 816              		strh	r3, [r7, #6]	@ movhi
 817              		.loc 1 643 0
 818 0006 0346     		mov	r3, #0
 819 0008 FB80     		strh	r3, [r7, #14]	@ movhi
 642:./Generated_Source/PSoC5/Volume_ADC.c **** 
 643:./Generated_Source/PSoC5/Volume_ADC.c ****     int16 mVolts = 0;
 820              	
 821 000a 4FF00003 		ldrh	r2, [r7, #6]
 822 000e FB81     		ldr	r3, .L75
 644:./Generated_Source/PSoC5/Volume_ADC.c **** 
 645:./Generated_Source/PSoC5/Volume_ADC.c ****     /* Subtract ADC offset */
 646:./Generated_Source/PSoC5/Volume_ADC.c ****     adcCounts -= Volume_ADC_Offset;
 823              	drh	r3, [r3, #0]
 824 0010 FA88     		uxth	r3, r3
 825 0012 114B     		rsb	r3, r3, r2
 826 0014 1B88     		uxth	r3, r3
 827 0016 9BB2     		strh	r3, [r7, #6]	@ movhi
 828 0018 C3EB0203 		.loc 1 648 0
 829 001c 9BB2     		ldrsh	r1, [r7, #6]
 830 001e FB80     		mov	r3, r1
 647:./Generated_Source/PSoC5/Volume_ADC.c **** 
 648:./Generated_Source/PSoC5/Volume_ADC.c ****     mVolts = ( (int32)adcCounts * 1000 ) / Volume_ADC_CountsPerVolt ;
ARM GAS  C:\Users\blinky\AppData\Local\Temp/ccSwbaaa.s 			page 27


 831              	 r3, #2
 832 0020 B7F90610 		lsl	r3, r2, #5
 833 0024 0B46     		rsb	r3, r2, r3
 834 0026 4FEA8302 		add	r3, r3, r1
 835 002a 4FEA4213 		lsl	r3, r3, #3
 836 002e C2EB0303 		mov	r2, r3
 837 0032 0B44     		ldr	r3, .L75+4
 838 0034 4FEAC303 		ldrh	r3, [r3, #0]
 839 0038 1A46     		sxth	r3, r3
 840 003a 084B     		sdiv	r3, r2, r3
 841 003c 1B88     		strh	r3, [r7, #14]	@ movhi
 842 003e 1BB2     		.loc 1 650 0
 843 0040 92FBF3F3 		ldrsh	r3, [r7, #14]
 844 0044 FB81     		.loc 1 651 0
 649:./Generated_Source/PSoC5/Volume_ADC.c **** 
 650:./Generated_Source/PSoC5/Volume_ADC.c ****     return( mVolts );
 845              	dd	r7, r7, #20
 846 0046 B7F90E30 		mov	sp, r7
 651:./Generated_Source/PSoC5/Volume_ADC.c **** }
 847              	op	{r7}
 848 004a 1846     		bx	lr
 849 004c 07F11407 	.L76:
 850 0050 BD46     		.align	2
 851 0052 80BC     	.L75:
 852 0054 7047     		.word	Volume_ADC_Offset
 853              		.word	Volume_ADC_CountsPerVolt
 854 0056 C046     	.LFE17:
 855              		.size	Volume_ADC_CountsTo_mVolts, .-Volume_ADC_CountsTo_mVolts
 856 0058 00000000 		.comm	Volume_ADC_CountsPerVolt,2,2
 857 005c 00000000 		.section	.debug_frame,"",%progbits
 858              	.Lframe0:
 859              		.4byte	.LECIE0-.LSCIE0
 860              	.LSCIE0:
 861              		.4byte	0xffffffff
 862              		.byte	0x1
 863 0000 0C000000 		.ascii	"\000"
 864              		.uleb128 0x1
 865 0004 FFFFFFFF 		.sleb128 -4
 866 0008 01       		.byte	0xe
 867 0009 00       		.byte	0xc
 868 000a 01       		.uleb128 0xd
 869 000b 7C       		.uleb128 0x0
 870 000c 0E       		.align	2
 871 000d 0C       	.LECIE0:
 872 000e 0D       	.LSFDE0:
 873 000f 00       		.4byte	.LEFDE0-.LASFDE0
 874              	.LASFDE0:
 875              		.4byte	.Lframe0
 876              		.4byte	.LFB2
 877 0010 1C000000 		.4byte	.LFE2-.LFB2
 878              		.byte	0x4
 879 0014 00000000 		.4byte	.LCFI0-.LFB2
 880 0018 00000000 		.byte	0xe
 881 001c DC000000 		.uleb128 0x8
 882 0020 42       		.byte	0x4
 883              		.4byte	.LCFI1-.LCFI0
 884 0021 0E       		.byte	0xe
ARM GAS  C:\Users\blinky\AppData\Local\Temp/ccSwbaaa.s 			page 28


 885 0022 08       		.uleb128 0x10
 886 0023 42       		.byte	0x8e
 887              		.uleb128 0x1
 888 0024 0E       		.byte	0x87
 889 0025 10       		.uleb128 0x2
 890 0026 8E       		.byte	0x4
 891 0027 01       		.4byte	.LCFI2-.LCFI1
 892 0028 87       		.byte	0xd
 893 0029 02       		.uleb128 0x7
 894 002a 42       		.align	2
 895              	.LEFDE0:
 896 002b 0D       	.LSFDE2:
 897 002c 07       		.4byte	.LEFDE2-.LASFDE2
 898 002d 000000   	.LASFDE2:
 899              		.4byte	.Lframe0
 900              		.4byte	.LFB3
 901 0030 18000000 		.4byte	.LFE3-.LFB3
 902              		.byte	0x4
 903 0034 00000000 		.4byte	.LCFI3-.LFB3
 904 0038 00000000 		.byte	0xe
 905 003c 64000000 		.uleb128 0x4
 906 0040 42       		.byte	0x4
 907              		.4byte	.LCFI4-.LCFI3
 908 0041 0E       		.byte	0xe
 909 0042 04       		.uleb128 0x18
 910 0043 42       		.byte	0x87
 911              		.uleb128 0x1
 912 0044 0E       		.byte	0x4
 913 0045 18       		.4byte	.LCFI5-.LCFI4
 914 0046 87       		.byte	0xd
 915 0047 01       		.uleb128 0x7
 916 0048 42       		.align	2
 917              	.LEFDE2:
 918 0049 0D       	.LSFDE4:
 919 004a 07       		.4byte	.LEFDE4-.LASFDE4
 920 004b 00       	.LASFDE4:
 921              		.4byte	.Lframe0
 922              		.4byte	.LFB4
 923 004c 18000000 		.4byte	.LFE4-.LFB4
 924              		.byte	0x4
 925 0050 00000000 		.4byte	.LCFI6-.LFB4
 926 0054 00000000 		.byte	0xe
 927 0058 44000000 		.uleb128 0x8
 928 005c 42       		.byte	0x8e
 929              		.uleb128 0x1
 930 005d 0E       		.byte	0x87
 931 005e 08       		.uleb128 0x2
 932 005f 8E       		.byte	0x4
 933 0060 01       		.4byte	.LCFI7-.LCFI6
 934 0061 87       		.byte	0xd
 935 0062 02       		.uleb128 0x7
 936 0063 42       		.align	2
 937              	.LEFDE4:
 938 0064 0D       	.LSFDE6:
 939 0065 07       		.4byte	.LEFDE6-.LASFDE6
 940 0066 0000     	.LASFDE6:
 941              		.4byte	.Lframe0
ARM GAS  C:\Users\blinky\AppData\Local\Temp/ccSwbaaa.s 			page 29


 942              		.4byte	.LFB5
 943 0068 18000000 		.4byte	.LFE5-.LFB5
 944              		.byte	0x4
 945 006c 00000000 		.4byte	.LCFI8-.LFB5
 946 0070 00000000 		.byte	0xe
 947 0074 10000000 		.uleb128 0x8
 948 0078 42       		.byte	0x8e
 949              		.uleb128 0x1
 950 0079 0E       		.byte	0x87
 951 007a 08       		.uleb128 0x2
 952 007b 8E       		.byte	0x4
 953 007c 01       		.4byte	.LCFI9-.LCFI8
 954 007d 87       		.byte	0xd
 955 007e 02       		.uleb128 0x7
 956 007f 42       		.align	2
 957              	.LEFDE6:
 958 0080 0D       	.LSFDE8:
 959 0081 07       		.4byte	.LEFDE8-.LASFDE8
 960 0082 0000     	.LASFDE8:
 961              		.4byte	.Lframe0
 962              		.4byte	.LFB6
 963 0084 18000000 		.4byte	.LFE6-.LFB6
 964              		.byte	0x4
 965 0088 00000000 		.4byte	.LCFI10-.LFB6
 966 008c 00000000 		.byte	0xe
 967 0090 10000000 		.uleb128 0x8
 968 0094 42       		.byte	0x8e
 969              		.uleb128 0x1
 970 0095 0E       		.byte	0x87
 971 0096 08       		.uleb128 0x2
 972 0097 8E       		.byte	0x4
 973 0098 01       		.4byte	.LCFI11-.LCFI10
 974 0099 87       		.byte	0xd
 975 009a 02       		.uleb128 0x7
 976 009b 42       		.align	2
 977              	.LEFDE8:
 978 009c 0D       	.LSFDE10:
 979 009d 07       		.4byte	.LEFDE10-.LASFDE10
 980 009e 0000     	.LASFDE10:
 981              		.4byte	.Lframe0
 982              		.4byte	.LFB7
 983 00a0 18000000 		.4byte	.LFE7-.LFB7
 984              		.byte	0x4
 985 00a4 00000000 		.4byte	.LCFI12-.LFB7
 986 00a8 00000000 		.byte	0xe
 987 00ac 48000000 		.uleb128 0x4
 988 00b0 42       		.byte	0x4
 989              		.4byte	.LCFI13-.LCFI12
 990 00b1 0E       		.byte	0xe
 991 00b2 04       		.uleb128 0x18
 992 00b3 42       		.byte	0x87
 993              		.uleb128 0x1
 994 00b4 0E       		.byte	0x4
 995 00b5 18       		.4byte	.LCFI14-.LCFI13
 996 00b6 87       		.byte	0xd
 997 00b7 01       		.uleb128 0x7
 998 00b8 42       		.align	2
ARM GAS  C:\Users\blinky\AppData\Local\Temp/ccSwbaaa.s 			page 30


 999              	.LEFDE10:
 1000 00b9 0D       	.LSFDE12:
 1001 00ba 07       		.4byte	.LEFDE12-.LASFDE12
 1002 00bb 00       	.LASFDE12:
 1003              		.4byte	.Lframe0
 1004              		.4byte	.LFB8
 1005 00bc 1C000000 		.4byte	.LFE8-.LFB8
 1006              		.byte	0x4
 1007 00c0 00000000 		.4byte	.LCFI15-.LFB8
 1008 00c4 00000000 		.byte	0xe
 1009 00c8 5C000000 		.uleb128 0x8
 1010 00cc 42       		.byte	0x4
 1011              		.4byte	.LCFI16-.LCFI15
 1012 00cd 0E       		.byte	0xe
 1013 00ce 08       		.uleb128 0x18
 1014 00cf 42       		.byte	0x8e
 1015              		.uleb128 0x1
 1016 00d0 0E       		.byte	0x87
 1017 00d1 18       		.uleb128 0x2
 1018 00d2 8E       		.byte	0x4
 1019 00d3 01       		.4byte	.LCFI17-.LCFI16
 1020 00d4 87       		.byte	0xd
 1021 00d5 02       		.uleb128 0x7
 1022 00d6 42       		.align	2
 1023              	.LEFDE12:
 1024 00d7 0D       	.LSFDE14:
 1025 00d8 07       		.4byte	.LEFDE14-.LASFDE14
 1026 00d9 000000   	.LASFDE14:
 1027              		.4byte	.Lframe0
 1028              		.4byte	.LFB9
 1029 00dc 14000000 		.4byte	.LFE9-.LFB9
 1030              		.byte	0x4
 1031 00e0 00000000 		.4byte	.LCFI18-.LFB9
 1032 00e4 00000000 		.byte	0xe
 1033 00e8 20000000 		.uleb128 0x4
 1034 00ec 42       		.byte	0x87
 1035              		.uleb128 0x1
 1036 00ed 0E       		.byte	0x4
 1037 00ee 04       		.4byte	.LCFI19-.LCFI18
 1038 00ef 87       		.byte	0xd
 1039 00f0 01       		.uleb128 0x7
 1040 00f1 42       		.align	2
 1041              	.LEFDE14:
 1042 00f2 0D       	.LSFDE16:
 1043 00f3 07       		.4byte	.LEFDE16-.LASFDE16
 1044              	.LASFDE16:
 1045              		.4byte	.Lframe0
 1046              		.4byte	.LFB10
 1047 00f4 14000000 		.4byte	.LFE10-.LFB10
 1048              		.byte	0x4
 1049 00f8 00000000 		.4byte	.LCFI20-.LFB10
 1050 00fc 00000000 		.byte	0xe
 1051 0100 1C000000 		.uleb128 0x4
 1052 0104 42       		.byte	0x87
 1053              		.uleb128 0x1
 1054 0105 0E       		.byte	0x4
 1055 0106 04       		.4byte	.LCFI21-.LCFI20
ARM GAS  C:\Users\blinky\AppData\Local\Temp/ccSwbaaa.s 			page 31


 1056 0107 87       		.byte	0xd
 1057 0108 01       		.uleb128 0x7
 1058 0109 42       		.align	2
 1059              	.LEFDE16:
 1060 010a 0D       	.LSFDE18:
 1061 010b 07       		.4byte	.LEFDE18-.LASFDE18
 1062              	.LASFDE18:
 1063              		.4byte	.Lframe0
 1064              		.4byte	.LFB11
 1065 010c 18000000 		.4byte	.LFE11-.LFB11
 1066              		.byte	0x4
 1067 0110 00000000 		.4byte	.LCFI22-.LFB11
 1068 0114 00000000 		.byte	0xe
 1069 0118 34000000 		.uleb128 0x4
 1070 011c 42       		.byte	0x4
 1071              		.4byte	.LCFI23-.LCFI22
 1072 011d 0E       		.byte	0xe
 1073 011e 04       		.uleb128 0x18
 1074 011f 42       		.byte	0x87
 1075              		.uleb128 0x1
 1076 0120 0E       		.byte	0x4
 1077 0121 18       		.4byte	.LCFI24-.LCFI23
 1078 0122 87       		.byte	0xd
 1079 0123 01       		.uleb128 0x7
 1080 0124 42       		.align	2
 1081              	.LEFDE18:
 1082 0125 0D       	.LSFDE20:
 1083 0126 07       		.4byte	.LEFDE20-.LASFDE20
 1084 0127 00       	.LASFDE20:
 1085              		.4byte	.Lframe0
 1086              		.4byte	.LFB12
 1087 0128 14000000 		.4byte	.LFE12-.LFB12
 1088              		.byte	0x4
 1089 012c 00000000 		.4byte	.LCFI25-.LFB12
 1090 0130 00000000 		.byte	0xe
 1091 0134 18000000 		.uleb128 0x4
 1092 0138 42       		.byte	0x87
 1093              		.uleb128 0x1
 1094 0139 0E       		.byte	0x4
 1095 013a 04       		.4byte	.LCFI26-.LCFI25
 1096 013b 87       		.byte	0xd
 1097 013c 01       		.uleb128 0x7
 1098 013d 42       		.align	2
 1099              	.LEFDE20:
 1100 013e 0D       	.LSFDE22:
 1101 013f 07       		.4byte	.LEFDE22-.LASFDE22
 1102              	.LASFDE22:
 1103              		.4byte	.Lframe0
 1104              		.4byte	.LFB13
 1105 0140 14000000 		.4byte	.LFE13-.LFB13
 1106              		.byte	0x4
 1107 0144 00000000 		.4byte	.LCFI27-.LFB13
 1108 0148 00000000 		.byte	0xe
 1109 014c 30000000 		.uleb128 0x4
 1110 0150 42       		.byte	0x87
 1111              		.uleb128 0x1
 1112 0151 0E       		.byte	0x4
ARM GAS  C:\Users\blinky\AppData\Local\Temp/ccSwbaaa.s 			page 32


 1113 0152 04       		.4byte	.LCFI28-.LCFI27
 1114 0153 87       		.byte	0xd
 1115 0154 01       		.uleb128 0x7
 1116 0155 42       		.align	2
 1117              	.LEFDE22:
 1118 0156 0D       	.LSFDE24:
 1119 0157 07       		.4byte	.LEFDE24-.LASFDE24
 1120              	.LASFDE24:
 1121              		.4byte	.Lframe0
 1122              		.4byte	.LFB14
 1123 0158 18000000 		.4byte	.LFE14-.LFB14
 1124              		.byte	0x4
 1125 015c 00000000 		.4byte	.LCFI29-.LFB14
 1126 0160 00000000 		.byte	0xe
 1127 0164 20000000 		.uleb128 0x4
 1128 0168 42       		.byte	0x4
 1129              		.4byte	.LCFI30-.LCFI29
 1130 0169 0E       		.byte	0xe
 1131 016a 04       		.uleb128 0x10
 1132 016b 42       		.byte	0x87
 1133              		.uleb128 0x1
 1134 016c 0E       		.byte	0x4
 1135 016d 10       		.4byte	.LCFI31-.LCFI30
 1136 016e 87       		.byte	0xd
 1137 016f 01       		.uleb128 0x7
 1138 0170 42       		.align	2
 1139              	.LEFDE24:
 1140 0171 0D       	.LSFDE26:
 1141 0172 07       		.4byte	.LEFDE26-.LASFDE26
 1142 0173 00       	.LASFDE26:
 1143              		.4byte	.Lframe0
 1144              		.4byte	.LFB15
 1145 0174 18000000 		.4byte	.LFE15-.LFB15
 1146              		.byte	0x4
 1147 0178 00000000 		.4byte	.LCFI32-.LFB15
 1148 017c 00000000 		.byte	0xe
 1149 0180 90000000 		.uleb128 0x4
 1150 0184 42       		.byte	0x4
 1151              		.4byte	.LCFI33-.LCFI32
 1152 0185 0E       		.byte	0xe
 1153 0186 04       		.uleb128 0x18
 1154 0187 42       		.byte	0x87
 1155              		.uleb128 0x1
 1156 0188 0E       		.byte	0x4
 1157 0189 18       		.4byte	.LCFI34-.LCFI33
 1158 018a 87       		.byte	0xd
 1159 018b 01       		.uleb128 0x7
 1160 018c 42       		.align	2
 1161              	.LEFDE26:
 1162 018d 0D       	.LSFDE28:
 1163 018e 07       		.4byte	.LEFDE28-.LASFDE28
 1164 018f 00       	.LASFDE28:
 1165              		.4byte	.Lframe0
 1166              		.4byte	.LFB16
 1167 0190 18000000 		.4byte	.LFE16-.LFB16
 1168              		.byte	0x4
 1169 0194 00000000 		.4byte	.LCFI35-.LFB16
ARM GAS  C:\Users\blinky\AppData\Local\Temp/ccSwbaaa.s 			page 33


 1170 0198 00000000 		.byte	0xe
 1171 019c 20000000 		.uleb128 0x4
 1172 01a0 42       		.byte	0x4
 1173              		.4byte	.LCFI36-.LCFI35
 1174 01a1 0E       		.byte	0xe
 1175 01a2 04       		.uleb128 0x10
 1176 01a3 42       		.byte	0x87
 1177              		.uleb128 0x1
 1178 01a4 0E       		.byte	0x4
 1179 01a5 10       		.4byte	.LCFI37-.LCFI36
 1180 01a6 87       		.byte	0xd
 1181 01a7 01       		.uleb128 0x7
 1182 01a8 42       		.align	2
 1183              	.LEFDE28:
 1184 01a9 0D       	.LSFDE30:
 1185 01aa 07       		.4byte	.LEFDE30-.LASFDE30
 1186 01ab 00       	.LASFDE30:
 1187              		.4byte	.Lframe0
 1188              		.4byte	.LFB17
 1189 01ac 18000000 		.4byte	.LFE17-.LFB17
 1190              		.byte	0x4
 1191 01b0 00000000 		.4byte	.LCFI38-.LFB17
 1192 01b4 00000000 		.byte	0xe
 1193 01b8 60000000 		.uleb128 0x4
 1194 01bc 42       		.byte	0x4
 1195              		.4byte	.LCFI39-.LCFI38
 1196 01bd 0E       		.byte	0xe
 1197 01be 04       		.uleb128 0x18
 1198 01bf 42       		.byte	0x87
 1199              		.uleb128 0x1
 1200 01c0 0E       		.byte	0x4
 1201 01c1 18       		.4byte	.LCFI40-.LCFI39
 1202 01c2 87       		.byte	0xd
 1203 01c3 01       		.uleb128 0x7
 1204 01c4 42       		.align	2
 1205              	.LEFDE30:
 1206 01c5 0D       		.text
 1207 01c6 07       	.Letext0: